ARM GAS  C:\Users\giris\AppData\Local\Temp\cceloVpD.s 			page 1


   1              		.syntax unified
   2              		.cpu cortex-m3
   3              		.fpu softvfp
   4              		.eabi_attribute 20, 1
   5              		.eabi_attribute 21, 1
   6              		.eabi_attribute 23, 3
   7              		.eabi_attribute 24, 1
   8              		.eabi_attribute 25, 1
   9              		.eabi_attribute 26, 1
  10              		.eabi_attribute 30, 1
  11              		.eabi_attribute 34, 1
  12              		.eabi_attribute 18, 4
  13              		.thumb
  14              		.syntax unified
  15              		.file	"clock.c"
  16              		.text
  17              	.Ltext0:
  18              		.cfi_sections	.debug_frame
  19              		.section	.text.CLOCK__setDisplayFonts,"ax",%progbits
  20              		.align	2
  21              		.thumb
  22              		.thumb_func
  23              		.type	CLOCK__setDisplayFonts, %function
  24              	CLOCK__setDisplayFonts:
  25              	.LFB158:
  26              		.file 1 "source\\asw\\clock.c"
   1:source\asw/clock.c **** /**
   2:source\asw/clock.c **** * \file <filename>
   3:source\asw/clock.c **** * \author <author-name>
   4:source\asw/clock.c **** * \date <date>
   5:source\asw/clock.c **** *
   6:source\asw/clock.c **** * \brief <Symbolic File name>
   7:source\asw/clock.c **** *
   8:source\asw/clock.c **** * \copyright Copyright ©2016
   9:source\asw/clock.c **** * Department of electrical engineering and information technology, Hochschule Darmstadt - Universit
  10:source\asw/clock.c **** * Permission to use, copy, modify, and distribute this software and its documentation for education
  11:source\asw/clock.c **** * (unless permitted by h_da) and official h_da projects, is hereby granted for enrolled students of
  12:source\asw/clock.c **** * this paragraph and the following paragraph appear in all copies, modifications, and distributions
  13:source\asw/clock.c **** * Contact Prof.Dr.-Ing. Peter Fromm, peter.fromm@h-da.de, Birkenweg 8 64295 Darmstadt - GERMANY for
  14:source\asw/clock.c **** *
  15:source\asw/clock.c **** * \warning This software is a PROTOTYPE version and is not designed or intended for use in producti
  16:source\asw/clock.c **** * The user represents and warrants that it will NOT use or redistribute the Software for such purpo
  17:source\asw/clock.c **** * This prototype is for research purposes only. This software is provided "AS IS," without a warran
  18:source\asw/clock.c **** */
  19:source\asw/clock.c **** 
  20:source\asw/clock.c **** /*****************************************************************************/
  21:source\asw/clock.c **** /* Include files                                                             */
  22:source\asw/clock.c **** /*****************************************************************************/
  23:source\asw/clock.c **** #include "clock.h"
  24:source\asw/clock.c **** #include "sp_common.h"
  25:source\asw/clock.c **** 
  26:source\asw/clock.c **** #include "stdlib.h"
  27:source\asw/clock.c **** /*****************************************************************************/
  28:source\asw/clock.c **** /* Local pre-processor symbols/macros ('#define')                            */
  29:source\asw/clock.c **** /*****************************************************************************/
  30:source\asw/clock.c **** 
  31:source\asw/clock.c **** /*****************************************************************************/
ARM GAS  C:\Users\giris\AppData\Local\Temp\cceloVpD.s 			page 2


  32:source\asw/clock.c **** /* Global variable definitions (declared in header file with 'extern')       */
  33:source\asw/clock.c **** /*****************************************************************************/
  34:source\asw/clock.c **** 
  35:source\asw/clock.c **** /*****************************************************************************/
  36:source\asw/clock.c **** /* Local type definitions ('typedef')                                        */
  37:source\asw/clock.c **** /*****************************************************************************/
  38:source\asw/clock.c **** 
  39:source\asw/clock.c **** /*****************************************************************************/
  40:source\asw/clock.c **** /* Local variable definitions ('static')                                     */
  41:source\asw/clock.c **** /*****************************************************************************/
  42:source\asw/clock.c **** STATE_state_t init_state = CLOCK_C_ISDISPLAYING;
  43:source\asw/clock.c **** 
  44:source\asw/clock.c **** 
  45:source\asw/clock.c **** /*****************************************************************************/
  46:source\asw/clock.c **** /* Local function prototypes ('static')                                      */
  47:source\asw/clock.c **** /*****************************************************************************/
  48:source\asw/clock.c **** 
  49:source\asw/clock.c **** /** ---------------------------- Actions ---------------------------------- **/
  50:source\asw/clock.c **** 
  51:source\asw/clock.c **** static void CLOCK__Dispatch_Wrapper(EVENT_t ev, CLOCK_Active_Widget_t widget);
  52:source\asw/clock.c **** 
  53:source\asw/clock.c **** static void CLOCK__Dispatch_KL_Hours();
  54:source\asw/clock.c **** 
  55:source\asw/clock.c **** static void CLOCK__Increment1Minute();
  56:source\asw/clock.c **** 
  57:source\asw/clock.c **** static void CLOCK__Dispatch_KL_HoursMin();
  58:source\asw/clock.c **** 
  59:source\asw/clock.c **** static void CLOCK__Dispatch_KR_Hours();
  60:source\asw/clock.c **** 
  61:source\asw/clock.c **** static void CLOCK__Dispatch_KRLP_Hours();
  62:source\asw/clock.c **** 
  63:source\asw/clock.c **** static void CLOCK__Dispatch_250MS_Hours();
  64:source\asw/clock.c **** 
  65:source\asw/clock.c **** static void CLOCK__Dispatch_KL_Min();
  66:source\asw/clock.c **** 
  67:source\asw/clock.c **** static void CLOCK__Dispatch_KR_Min();
  68:source\asw/clock.c **** 
  69:source\asw/clock.c **** static void CLOCK__Dispatch_KRLP_Min();
  70:source\asw/clock.c **** 
  71:source\asw/clock.c **** static void CLOCK__Dispatch_250MS_Min();
  72:source\asw/clock.c **** 
  73:source\asw/clock.c **** static void CLOCK__setEditFonts();
  74:source\asw/clock.c **** 
  75:source\asw/clock.c **** static void CLOCK__incrementWidget();
  76:source\asw/clock.c **** 
  77:source\asw/clock.c **** static void CLOCK__setDisplayFonts();
  78:source\asw/clock.c **** 
  79:source\asw/clock.c **** //static void CLOCK__updateTimeandDisplay();
  80:source\asw/clock.c **** 
  81:source\asw/clock.c **** static void CLOCK__updateDisplay();
  82:source\asw/clock.c **** 
  83:source\asw/clock.c **** static void CLOCK__updateTime();
  84:source\asw/clock.c **** 
  85:source\asw/clock.c **** static void CLOCK__IncrementHourandDisplay();
  86:source\asw/clock.c **** 
  87:source\asw/clock.c **** static void CLOCK__IncrementMinuteandDisplay();
  88:source\asw/clock.c **** 
ARM GAS  C:\Users\giris\AppData\Local\Temp\cceloVpD.s 			page 3


  89:source\asw/clock.c **** 
  90:source\asw/clock.c **** /*****************************************************************************/
  91:source\asw/clock.c **** /* Function implementation - global ('extern') and local ('static')          */
  92:source\asw/clock.c **** /*****************************************************************************/
  93:source\asw/clock.c **** 
  94:source\asw/clock.c **** /** ------------------------------------- Transitions Table Start ---------------------------------
  95:source\asw/clock.c **** 
  96:source\asw/clock.c **** /**============================== Container ================================ **/
  97:source\asw/clock.c **** 
  98:source\asw/clock.c **** /** ========= CLOCK_C_ISDISPLAYING ========== **/
  99:source\asw/clock.c **** const STATE_stateInnerTransition_t STATE_CLOCK_C_ISDISPLAYING_Transitions[] = 
 100:source\asw/clock.c **** {
 101:source\asw/clock.c ****     /*  Event               ToState                         Guard           Action                 
 102:source\asw/clock.c ****     {   EV_KEYLEFT,         CLOCK_C_ISEDITINGHOURS,         0,              CLOCK__Dispatch_KL_Hour
 103:source\asw/clock.c ****     {   EV_1MIN,            CLOCK_C_ISDISPLAYING,           0,              CLOCK__Increment1Minute
 104:source\asw/clock.c **** };
 105:source\asw/clock.c **** 
 106:source\asw/clock.c **** /** ========= CLOCK_C_ISEDITINGHOURS ========== **/
 107:source\asw/clock.c **** const STATE_stateInnerTransition_t STATE_CLOCK_C_ISEDITINGHOURS_Transitions[] = 
 108:source\asw/clock.c **** {
 109:source\asw/clock.c ****     /*  Event                       ToState                           Guard           Action       
 110:source\asw/clock.c ****     {   EV_KEYLEFT,                 CLOCK_C_ISEDITINGMINUTES,         0,              CLOCK__Dispat
 111:source\asw/clock.c ****     {   EV_KEYRIGHT,                CLOCK_C_ISEDITINGHOURS,           0,              CLOCK__Dispat
 112:source\asw/clock.c ****     {   EV_KEYRIGHTLONGPRESS,       CLOCK_C_ISEDITINGHOURS,           0,              CLOCK__Dispat
 113:source\asw/clock.c ****     {   EV_250MS,                   CLOCK_C_ISEDITINGHOURS,           0,              CLOCK__Dispat
 114:source\asw/clock.c **** };
 115:source\asw/clock.c **** 
 116:source\asw/clock.c **** /** ========= CLOCK_C_ISEDITINGMINUTES ========== **/
 117:source\asw/clock.c **** const STATE_stateInnerTransition_t STATE_CLOCK_C_ISEDITINGMINUTES_Transitions[] = 
 118:source\asw/clock.c **** {
 119:source\asw/clock.c ****     /*  Event                       ToState                         Guard           Action         
 120:source\asw/clock.c ****     {   EV_KEYLEFT,                 CLOCK_C_ISDISPLAYING,           0,              CLOCK__Dispatch
 121:source\asw/clock.c ****     {   EV_KEYRIGHT,                CLOCK_C_ISEDITINGMINUTES,       0,              CLOCK__Dispatch
 122:source\asw/clock.c ****     {   EV_KEYRIGHTLONGPRESS,       CLOCK_C_ISEDITINGMINUTES,       0,              CLOCK__Dispatch
 123:source\asw/clock.c ****     {   EV_250MS,                   CLOCK_C_ISEDITINGMINUTES,       0,              CLOCK__Dispatch
 124:source\asw/clock.c **** };
 125:source\asw/clock.c **** 
 126:source\asw/clock.c **** static const STATE_stateOuterTransitionTable_t CLOCK_Container_Transitions = 
 127:source\asw/clock.c **** {
 128:source\asw/clock.c ****     /*  fromState                     Pointer to table                                        Size 
 129:source\asw/clock.c ****     {   CLOCK_C_ISDISPLAYING,         &STATE_CLOCK_C_ISDISPLAYING_Transitions,                sizeo
 130:source\asw/clock.c ****     {   CLOCK_C_ISEDITINGHOURS,       &STATE_CLOCK_C_ISEDITINGHOURS_Transitions,              sizeo
 131:source\asw/clock.c ****     {   CLOCK_C_ISEDITINGMINUTES,     &STATE_CLOCK_C_ISEDITINGMINUTES_Transitions,            sizeo
 132:source\asw/clock.c **** };
 133:source\asw/clock.c **** static const uint16_t CLOCK_Container_Transitions_size = sizeof(CLOCK_Container_Transitions)/sizeof
 134:source\asw/clock.c **** 
 135:source\asw/clock.c **** /** ============= Container Action ============== **/
 136:source\asw/clock.c **** static const STATE_stateActionTable_t CLOCK_Container_Actions = 
 137:source\asw/clock.c **** {
 138:source\asw/clock.c ****     /*  fromState                   actionEntry                   actionExit          */
 139:source\asw/clock.c ****     {   CLOCK_C_ISDISPLAYING,       CLOCK__updateDisplay,         0                   },
 140:source\asw/clock.c **** };
 141:source\asw/clock.c **** static const uint16_t CLOCK_Container_Actions_size = sizeof(CLOCK_Container_Actions)/sizeof(STATE_s
 142:source\asw/clock.c **** 
 143:source\asw/clock.c **** /**============================== WIDGET ================================ **/
 144:source\asw/clock.c **** 
 145:source\asw/clock.c **** /** ========= CLOCK_W_ISDISPLAYING =========== **/
ARM GAS  C:\Users\giris\AppData\Local\Temp\cceloVpD.s 			page 4


 146:source\asw/clock.c **** const STATE_stateInnerTransition_t STATE_CLOCK_W_ISDISPLAYING_Transitions[] = 
 147:source\asw/clock.c **** {
 148:source\asw/clock.c ****     /*  Event               ToState                    Guard           Action                  */
 149:source\asw/clock.c ****     {   EV_KEYLEFT,         CLOCK_W_ISEDITING,         0,              CLOCK__setEditFonts     },
 150:source\asw/clock.c **** };
 151:source\asw/clock.c **** 
 152:source\asw/clock.c **** /** ========= CLOCK_W_ISEDITING ============== **/
 153:source\asw/clock.c **** const STATE_stateInnerTransition_t STATE_CLOCK_W_ISEDITING_Transitions[] = 
 154:source\asw/clock.c **** {
 155:source\asw/clock.c ****     /*  Event                       ToState                         Guard           Action         
 156:source\asw/clock.c ****     {   EV_KEYRIGHT,                CLOCK_W_ISEDITING,              0,              CLOCK__incremen
 157:source\asw/clock.c ****     {   EV_KEYRIGHTLONGPRESS,       CLOCK_W_ISAUTOINCREMENT,        0,              0              
 158:source\asw/clock.c ****     {   EV_KEYLEFT,                 CLOCK_W_ISDISPLAYING,           0,              CLOCK__setDispl
 159:source\asw/clock.c **** };
 160:source\asw/clock.c **** 
 161:source\asw/clock.c **** /** ========= CLOCK_W_ISAUTOINCREMENT ========== **/
 162:source\asw/clock.c **** const STATE_stateInnerTransition_t STATE_CLOCK_W_ISAUTOINCREMENT_Transitions[] = 
 163:source\asw/clock.c **** {
 164:source\asw/clock.c ****     /*  Event                       ToState                         Guard           Action         
 165:source\asw/clock.c ****     {   EV_KEYRIGHT,                CLOCK_W_ISEDITING,              0,              CLOCK__incremen
 166:source\asw/clock.c ****     {   EV_250MS,                   CLOCK_W_ISAUTOINCREMENT,        0,              CLOCK__incremen
 167:source\asw/clock.c **** };
 168:source\asw/clock.c **** 
 169:source\asw/clock.c **** static const STATE_stateOuterTransitionTable_t CLOCK_Widget_Transitions = 
 170:source\asw/clock.c **** {
 171:source\asw/clock.c ****     /*  fromState                   Pointer to table                                Size of table [
 172:source\asw/clock.c ****     {   CLOCK_W_ISDISPLAYING,       &STATE_CLOCK_W_ISDISPLAYING_Transitions,        sizeof(STATE_CL
 173:source\asw/clock.c ****     {   CLOCK_W_ISEDITING,          &STATE_CLOCK_W_ISEDITING_Transitions,           sizeof(STATE_CL
 174:source\asw/clock.c ****     {   CLOCK_W_ISAUTOINCREMENT,    &STATE_CLOCK_W_ISAUTOINCREMENT_Transitions,     sizeof(STATE_CL
 175:source\asw/clock.c **** };
 176:source\asw/clock.c **** static const uint16_t CLOCK_Widget_Transitions_size = sizeof(CLOCK_Container_Transitions)/sizeof(ST
 177:source\asw/clock.c **** 
 178:source\asw/clock.c **** /** ============= Widget Action ============== **/
 179:source\asw/clock.c **** static const STATE_stateActionTable_t CLOCK_Widget_Actions = 
 180:source\asw/clock.c **** {
 181:source\asw/clock.c ****     /*  fromState                   actionEntry                  actionExit          */
 182:source\asw/clock.c ****     {   CLOCK_W_ISDISPLAYING,       CLOCK__updateDisplay,        0                   },
 183:source\asw/clock.c ****     {   CLOCK_W_ISEDITING,          CLOCK__updateDisplay,        0                   },
 184:source\asw/clock.c ****     {   CLOCK_W_ISAUTOINCREMENT,    CLOCK__updateDisplay,        0                   },
 185:source\asw/clock.c **** };
 186:source\asw/clock.c **** static const uint16_t CLOCK_Widget_Actions_size = sizeof(CLOCK_Widget_Actions)/sizeof(STATE_stateAc
 187:source\asw/clock.c **** 
 188:source\asw/clock.c **** /** ------------------------------------- Transitions Table End -----------------------------------
 189:source\asw/clock.c **** 
 190:source\asw/clock.c **** void statemachine_init()
 191:source\asw/clock.c **** {
 192:source\asw/clock.c **** //    char buffer[100];
 193:source\asw/clock.c **** 
 194:source\asw/clock.c ****     SC_CONTROL_data_t fontstyle     =   SC_CONTROL_INIT_DATA;
 195:source\asw/clock.c ****         
 196:source\asw/clock.c ****     fontstyle   =   RTE_SC_CONTROL_get(&SO_CONTROL_signal);
 197:source\asw/clock.c ****     
 198:source\asw/clock.c ****     fontstyle.hour.font_type.size     =   3;
 199:source\asw/clock.c ****     fontstyle.minute.font_type.size   =   3;
 200:source\asw/clock.c ****     
 201:source\asw/clock.c ****     fontstyle.hour.font_type.x_pos    =   20;
 202:source\asw/clock.c ****     fontstyle.hour.font_type.y_pos    =   60;
ARM GAS  C:\Users\giris\AppData\Local\Temp\cceloVpD.s 			page 5


 203:source\asw/clock.c ****     
 204:source\asw/clock.c ****     fontstyle.minute.font_type.x_pos  =   20;
 205:source\asw/clock.c ****     fontstyle.minute.font_type.y_pos  =   60;
 206:source\asw/clock.c ****     
 207:source\asw/clock.c ****     fontstyle.hour.font_type.bg_colour        =   BLACK;
 208:source\asw/clock.c ****     fontstyle.minute.font_type.bg_colour      =   BLACK;
 209:source\asw/clock.c ****     
 210:source\asw/clock.c ****     fontstyle.hour.font_type.widget_colour    =   WHITE;
 211:source\asw/clock.c ****     fontstyle.minute.font_type.widget_colour  =   WHITE;
 212:source\asw/clock.c ****     
 213:source\asw/clock.c **** //    itoa(fontstyle.minute.font_type.widget_colour, buffer, 10);
 214:source\asw/clock.c **** //    UART_LOG_PutString("X pos: ");
 215:source\asw/clock.c **** //    UART_LOG_PutString(buffer);
 216:source\asw/clock.c **** //    UART_LOG_PutString("\n");
 217:source\asw/clock.c ****     
 218:source\asw/clock.c ****     RTE_SC_CONTROL_set(&SO_CONTROL_signal, fontstyle);
 219:source\asw/clock.c **** }
 220:source\asw/clock.c **** 
 221:source\asw/clock.c **** void ProcessEvent(STATE_event_t event)
 222:source\asw/clock.c **** {
 223:source\asw/clock.c ****     STATE_event_t local_event = event;
 224:source\asw/clock.c ****    
 225:source\asw/clock.c **** //    char buffer[100];
 226:source\asw/clock.c **** //    UART_LOG_PutString("in process event function...\n");
 227:source\asw/clock.c **** //    itoa(local_event, buffer, 10);
 228:source\asw/clock.c **** //    UART_LOG_PutString(buffer);
 229:source\asw/clock.c ****     
 230:source\asw/clock.c ****     STATE_processEvent(CLOCK_Container_Transitions, CLOCK_Container_Transitions_size, CLOCK_Contain
 231:source\asw/clock.c **** }
 232:source\asw/clock.c **** 
 233:source\asw/clock.c **** void CLOCK__Dispatch_Wrapper(EVENT_t ev, CLOCK_Active_Widget_t widget)
 234:source\asw/clock.c **** {
 235:source\asw/clock.c ****     SC_INPUT_data_t clock = RTE_SC_INPUT_get(&SO_INPUTEVENT_signal);
 236:source\asw/clock.c ****     
 237:source\asw/clock.c ****     clock.m_ev = EV_NONE;
 238:source\asw/clock.c ****     
 239:source\asw/clock.c ****     clock.m_clock_data.m_activeWidget = widget;
 240:source\asw/clock.c ****     
 241:source\asw/clock.c ****     RTE_SC_INPUT_set(&SO_INPUTEVENT_signal, clock);
 242:source\asw/clock.c ****     
 243:source\asw/clock.c **** //    char buffer[100];
 244:source\asw/clock.c **** //    UART_LOG_PutString("in clock dispatch wrapper function...\n");
 245:source\asw/clock.c **** //    
 246:source\asw/clock.c **** //    itoa(clock.m_clock_data.m_activeWidget, buffer, 10);
 247:source\asw/clock.c **** //    UART_LOG_PutString(buffer);
 248:source\asw/clock.c **** //    UART_LOG_PutString("\n");
 249:source\asw/clock.c ****     
 250:source\asw/clock.c ****     if(widget == CLOCK_HOURWIDGET)
 251:source\asw/clock.c ****     {
 252:source\asw/clock.c ****         STATE_state_t localstate = clock.m_clock_data.m_hours.m_widgetState;
 253:source\asw/clock.c ****         
 254:source\asw/clock.c **** //        UART_LOG_PutString("Hour widget state: ");
 255:source\asw/clock.c **** //        itoa(localstate, buffer, 10);
 256:source\asw/clock.c **** //        UART_LOG_PutString(buffer);
 257:source\asw/clock.c **** //        UART_LOG_PutString("\n");
 258:source\asw/clock.c ****         
 259:source\asw/clock.c ****         STATE_processEvent(CLOCK_Widget_Transitions, CLOCK_Widget_Transitions_size, CLOCK_Widget_Ac
ARM GAS  C:\Users\giris\AppData\Local\Temp\cceloVpD.s 			page 6


 260:source\asw/clock.c ****         
 261:source\asw/clock.c ****         clock = RTE_SC_INPUT_get(&SO_INPUTEVENT_signal);
 262:source\asw/clock.c ****         
 263:source\asw/clock.c ****         clock.m_clock_data.m_hours.m_widgetState = localstate;
 264:source\asw/clock.c ****         
 265:source\asw/clock.c ****         RTE_SC_INPUT_set(&SO_INPUTEVENT_signal, clock);
 266:source\asw/clock.c ****     }
 267:source\asw/clock.c ****     else if(widget == CLOCK_MINWIDGET)
 268:source\asw/clock.c ****     {
 269:source\asw/clock.c ****         STATE_state_t localstate = clock.m_clock_data.m_minutes.m_widgetState;
 270:source\asw/clock.c ****         
 271:source\asw/clock.c **** //        UART_LOG_PutString("Minute widget state: ");
 272:source\asw/clock.c **** //        itoa(localstate, buffer, 10);
 273:source\asw/clock.c **** //        UART_LOG_PutString(buffer);
 274:source\asw/clock.c **** //        UART_LOG_PutString("\n");
 275:source\asw/clock.c ****         
 276:source\asw/clock.c ****         STATE_processEvent(CLOCK_Widget_Transitions, CLOCK_Widget_Transitions_size, CLOCK_Widget_Ac
 277:source\asw/clock.c ****         
 278:source\asw/clock.c ****         clock = RTE_SC_INPUT_get(&SO_INPUTEVENT_signal);
 279:source\asw/clock.c ****         
 280:source\asw/clock.c ****         clock.m_clock_data.m_minutes.m_widgetState = localstate;
 281:source\asw/clock.c ****         
 282:source\asw/clock.c ****         RTE_SC_INPUT_set(&SO_INPUTEVENT_signal, clock);
 283:source\asw/clock.c ****     }
 284:source\asw/clock.c **** }
 285:source\asw/clock.c **** 
 286:source\asw/clock.c **** void CLOCK__Dispatch_KL_Hours()
 287:source\asw/clock.c **** {
 288:source\asw/clock.c **** //    UART_LOG_PutString("\nIn KL hours Dispatch.....\n");
 289:source\asw/clock.c **** 
 290:source\asw/clock.c ****     SC_INPUT_data_t clock = RTE_SC_INPUT_get(&SO_INPUTEVENT_signal);
 291:source\asw/clock.c ****     
 292:source\asw/clock.c ****     clock.m_clock_data.m_hours.m_widgetState = CLOCK_W_ISDISPLAYING;
 293:source\asw/clock.c ****     
 294:source\asw/clock.c ****     RTE_SC_INPUT_set(&SO_INPUTEVENT_signal, clock);
 295:source\asw/clock.c ****     
 296:source\asw/clock.c ****     CLOCK__Dispatch_Wrapper(EV_KEYLEFT, CLOCK_HOURWIDGET);
 297:source\asw/clock.c **** }
 298:source\asw/clock.c **** 
 299:source\asw/clock.c **** void CLOCK__Increment1Minute()
 300:source\asw/clock.c **** {
 301:source\asw/clock.c **** //    UART_LOG_PutString("\nIn Increment1Minute Dispatch.....\n");
 302:source\asw/clock.c ****     
 303:source\asw/clock.c ****     CLOCK__updateTime();
 304:source\asw/clock.c **** }
 305:source\asw/clock.c **** 
 306:source\asw/clock.c **** void CLOCK__Dispatch_KL_HoursMin()
 307:source\asw/clock.c **** {
 308:source\asw/clock.c **** //    UART_LOG_PutString("\nIn KL_HoursMin Dispatch.....\n");
 309:source\asw/clock.c ****     
 310:source\asw/clock.c ****     SC_INPUT_data_t clock = RTE_SC_INPUT_get(&SO_INPUTEVENT_signal);
 311:source\asw/clock.c ****     
 312:source\asw/clock.c ****     clock.m_clock_data.m_hours.m_widgetState = CLOCK_W_ISEDITING;
 313:source\asw/clock.c ****     clock.m_clock_data.m_minutes.m_widgetState = CLOCK_W_ISDISPLAYING;
 314:source\asw/clock.c ****     
 315:source\asw/clock.c ****     RTE_SC_INPUT_set(&SO_INPUTEVENT_signal, clock);
 316:source\asw/clock.c ****     
ARM GAS  C:\Users\giris\AppData\Local\Temp\cceloVpD.s 			page 7


 317:source\asw/clock.c ****     CLOCK__Dispatch_Wrapper(EV_KEYLEFT, CLOCK_HOURWIDGET);
 318:source\asw/clock.c ****     CLOCK__Dispatch_Wrapper(EV_KEYLEFT, CLOCK_MINWIDGET);
 319:source\asw/clock.c **** }
 320:source\asw/clock.c **** 
 321:source\asw/clock.c **** void CLOCK__Dispatch_KR_Hours()
 322:source\asw/clock.c **** {
 323:source\asw/clock.c **** //    UART_LOG_PutString("\nIn KR_Hours Dispatch.....\n");
 324:source\asw/clock.c ****     
 325:source\asw/clock.c ****     CLOCK__Dispatch_Wrapper(EV_KEYRIGHT, CLOCK_HOURWIDGET);
 326:source\asw/clock.c **** }
 327:source\asw/clock.c **** 
 328:source\asw/clock.c **** void CLOCK__Dispatch_KRLP_Hours()
 329:source\asw/clock.c **** {
 330:source\asw/clock.c **** //    UART_LOG_PutString("\nIn KRLP_Hours Dispatch.....\n");
 331:source\asw/clock.c ****     
 332:source\asw/clock.c ****     SC_INPUT_data_t clock = RTE_SC_INPUT_get(&SO_INPUTEVENT_signal);
 333:source\asw/clock.c ****     
 334:source\asw/clock.c ****     clock.m_clock_data.m_hours.m_widgetState = CLOCK_W_ISEDITING;
 335:source\asw/clock.c ****     
 336:source\asw/clock.c ****     RTE_SC_INPUT_set(&SO_INPUTEVENT_signal, clock);
 337:source\asw/clock.c ****     
 338:source\asw/clock.c ****     CLOCK__Dispatch_Wrapper(EV_KEYRIGHTLONGPRESS, CLOCK_HOURWIDGET);
 339:source\asw/clock.c **** }
 340:source\asw/clock.c **** 
 341:source\asw/clock.c **** void CLOCK__Dispatch_250MS_Hours()
 342:source\asw/clock.c **** {
 343:source\asw/clock.c **** //    UART_LOG_PutString("\nIn 250MS_Hours Dispatch.....\n");
 344:source\asw/clock.c ****     
 345:source\asw/clock.c ****     CLOCK__Dispatch_Wrapper(EV_250MS, CLOCK_HOURWIDGET);
 346:source\asw/clock.c **** }
 347:source\asw/clock.c **** 
 348:source\asw/clock.c **** void CLOCK__Dispatch_KL_Min()
 349:source\asw/clock.c **** {
 350:source\asw/clock.c **** //    UART_LOG_PutString("\nIn KL_Min Dispatch.....\n");
 351:source\asw/clock.c ****     
 352:source\asw/clock.c ****     CLOCK__Dispatch_Wrapper(EV_KEYLEFT, CLOCK_MINWIDGET);
 353:source\asw/clock.c **** }
 354:source\asw/clock.c **** 
 355:source\asw/clock.c **** void CLOCK__Dispatch_KR_Min()
 356:source\asw/clock.c **** {
 357:source\asw/clock.c **** //    UART_LOG_PutString("\nIn KR_Min Dispatch.....\n");
 358:source\asw/clock.c ****     
 359:source\asw/clock.c ****     CLOCK__Dispatch_Wrapper(EV_KEYRIGHT, CLOCK_MINWIDGET);
 360:source\asw/clock.c **** }
 361:source\asw/clock.c **** 
 362:source\asw/clock.c **** void CLOCK__Dispatch_KRLP_Min()
 363:source\asw/clock.c **** {
 364:source\asw/clock.c **** //    UART_LOG_PutString("\nIn KRLP_Min Dispatch.....\n");
 365:source\asw/clock.c ****     
 366:source\asw/clock.c ****     SC_INPUT_data_t clock = RTE_SC_INPUT_get(&SO_INPUTEVENT_signal);
 367:source\asw/clock.c ****     
 368:source\asw/clock.c ****     clock.m_clock_data.m_minutes.m_widgetState = CLOCK_W_ISEDITING;
 369:source\asw/clock.c ****     
 370:source\asw/clock.c ****     RTE_SC_INPUT_set(&SO_INPUTEVENT_signal, clock);
 371:source\asw/clock.c ****     
 372:source\asw/clock.c ****     CLOCK__Dispatch_Wrapper(EV_KEYRIGHTLONGPRESS, CLOCK_MINWIDGET);
 373:source\asw/clock.c **** }
ARM GAS  C:\Users\giris\AppData\Local\Temp\cceloVpD.s 			page 8


 374:source\asw/clock.c **** 
 375:source\asw/clock.c **** void CLOCK__Dispatch_250MS_Min()
 376:source\asw/clock.c **** {
 377:source\asw/clock.c **** //    UART_LOG_PutString("\nIn 250MS_Min Dispatch.....\n");
 378:source\asw/clock.c ****     
 379:source\asw/clock.c ****     CLOCK__Dispatch_Wrapper(EV_250MS, CLOCK_MINWIDGET);
 380:source\asw/clock.c **** }
 381:source\asw/clock.c **** 
 382:source\asw/clock.c **** void CLOCK__incrementWidget()
 383:source\asw/clock.c **** {
 384:source\asw/clock.c **** //    UART_LOG_PutString("\nIn increment widget Dispatch.....\n");
 385:source\asw/clock.c ****     
 386:source\asw/clock.c ****     SC_INPUT_data_t clock = RTE_SC_INPUT_get(&SO_INPUTEVENT_signal);
 387:source\asw/clock.c ****     
 388:source\asw/clock.c ****     if(clock.m_clock_data.m_activeWidget == CLOCK_HOURWIDGET)
 389:source\asw/clock.c ****     {
 390:source\asw/clock.c **** //        UART_LOG_PutString("increment Hour and Display the time.....\n");
 391:source\asw/clock.c ****         CLOCK__IncrementHourandDisplay();
 392:source\asw/clock.c ****     }
 393:source\asw/clock.c ****     else if(clock.m_clock_data.m_activeWidget == CLOCK_MINWIDGET)
 394:source\asw/clock.c ****     {
 395:source\asw/clock.c **** //        UART_LOG_PutString("increment Minute and Display the time.....\n");
 396:source\asw/clock.c ****         CLOCK__IncrementMinuteandDisplay();
 397:source\asw/clock.c ****     }
 398:source\asw/clock.c ****     
 399:source\asw/clock.c **** }
 400:source\asw/clock.c **** 
 401:source\asw/clock.c **** void CLOCK__setDisplayFonts()
 402:source\asw/clock.c **** {
  27              		.loc 1 402 0
  28              		.cfi_startproc
  29              		@ args = 0, pretend = 0, frame = 48
  30              		@ frame_needed = 0, uses_anonymous_args = 0
  31 0000 F0B5     		push	{r4, r5, r6, r7, lr}
  32              		.cfi_def_cfa_offset 20
  33              		.cfi_offset 4, -20
  34              		.cfi_offset 5, -16
  35              		.cfi_offset 6, -12
  36              		.cfi_offset 7, -8
  37              		.cfi_offset 14, -4
  38 0002 8DB0     		sub	sp, sp, #52
  39              		.cfi_def_cfa_offset 72
  40              	.LVL0:
  41              	.LBB76:
  42              	.LBB77:
  43              		.file 2 ".\\source\\rte/sc_control.h"
   1:.\source\rte/sc_control.h **** 
   2:.\source\rte/sc_control.h **** 
   3:.\source\rte/sc_control.h **** /**
   4:.\source\rte/sc_control.h ****  *  file    SC_CONTROL_signal.h
   5:.\source\rte/sc_control.h ****  *
   6:.\source\rte/sc_control.h ****  *  brief   signal base class for signal sc_control
   7:.\source\rte/sc_control.h ****  *
   8:.\source\rte/sc_control.h ****  *  author  Autogenerated, Peter Fromm       <peter.fromm@h-da.de>
   9:.\source\rte/sc_control.h ****  *
  10:.\source\rte/sc_control.h ****  * description: Signalclass
  11:.\source\rte/sc_control.h ****  * name: sc_control
ARM GAS  C:\Users\giris\AppData\Local\Temp\cceloVpD.s 			page 9


  12:.\source\rte/sc_control.h ****  * shortname: control
  13:.\source\rte/sc_control.h ****  *
  14:.\source\rte/sc_control.h ****  */
  15:.\source\rte/sc_control.h **** 
  16:.\source\rte/sc_control.h **** 
  17:.\source\rte/sc_control.h **** 
  18:.\source\rte/sc_control.h **** #ifndef SC_CONTROL_SIGNAL_H_INCLUDED
  19:.\source\rte/sc_control.h **** #define SC_CONTROL_SIGNAL_H_INCLUDED
  20:.\source\rte/sc_control.h **** 
  21:.\source\rte/sc_control.h **** /*================================================[ public includes  ]=============================
  22:.\source\rte/sc_control.h **** #include "global.h"
  23:.\source\rte/sc_control.h **** #include "project.h"
  24:.\source\rte/sc_control.h **** #include "rte.h"
  25:.\source\rte/sc_control.h **** #include "rte_types.h"
  26:.\source\rte/sc_control.h **** 
  27:.\source\rte/sc_control.h **** #include "sc_control_type.h"
  28:.\source\rte/sc_control.h **** 
  29:.\source\rte/sc_control.h **** 
  30:.\source\rte/sc_control.h **** /**************************************************************************************************
  31:.\source\rte/sc_control.h **** /* The driver API block																						*/
  32:.\source\rte/sc_control.h **** /**************************************************************************************************
  33:.\source\rte/sc_control.h ****                                                                                                    
  34:.\source\rte/sc_control.h **** /**
  35:.\source\rte/sc_control.h ****  *  Definition of function types for driver interfaces.
  36:.\source\rte/sc_control.h ****  *  I-Port
  37:.\source\rte/sc_control.h ****  */
  38:.\source\rte/sc_control.h **** typedef RC_t (*SC_CONTROL_driverIn_t)(SC_CONTROL_data_t * const);
  39:.\source\rte/sc_control.h **** 
  40:.\source\rte/sc_control.h **** /**
  41:.\source\rte/sc_control.h ****  *  Definition of function types for driver interfaces.
  42:.\source\rte/sc_control.h ****  *  O-Port
  43:.\source\rte/sc_control.h ****  */
  44:.\source\rte/sc_control.h **** typedef RC_t (*SC_CONTROL_driverOut_t)( const SC_CONTROL_data_t * const);
  45:.\source\rte/sc_control.h **** 
  46:.\source\rte/sc_control.h **** 
  47:.\source\rte/sc_control.h **** /**************************************************************************************************
  48:.\source\rte/sc_control.h **** /* The signal configuration API block																				*/
  49:.\source\rte/sc_control.h **** /**************************************************************************************************
  50:.\source\rte/sc_control.h **** 
  51:.\source\rte/sc_control.h **** /**
  52:.\source\rte/sc_control.h ****  * Instances of the struct SC_CONTROL_cfg_t represent the signal object configuration.
  53:.\source\rte/sc_control.h ****  */
  54:.\source\rte/sc_control.h **** struct SC_CONTROL_cfg_s
  55:.\source\rte/sc_control.h **** {
  56:.\source\rte/sc_control.h ****     /**
  57:.\source\rte/sc_control.h ****      * Function pointer to the input driver
  58:.\source\rte/sc_control.h ****      */
  59:.\source\rte/sc_control.h ****     SC_CONTROL_driverIn_t const inDriver;
  60:.\source\rte/sc_control.h **** 
  61:.\source\rte/sc_control.h ****     /**
  62:.\source\rte/sc_control.h ****      * Function pointer to the output driver table
  63:.\source\rte/sc_control.h ****      */
  64:.\source\rte/sc_control.h ****    SC_CONTROL_driverOut_t const outDriver;
  65:.\source\rte/sc_control.h ****    
  66:.\source\rte/sc_control.h ****     /**
  67:.\source\rte/sc_control.h ****      * Event onUpdate
  68:.\source\rte/sc_control.h ****      */
ARM GAS  C:\Users\giris\AppData\Local\Temp\cceloVpD.s 			page 10


  69:.\source\rte/sc_control.h ****     EventMaskType const evOnUpdate;
  70:.\source\rte/sc_control.h ****     
  71:.\source\rte/sc_control.h ****     
  72:.\source\rte/sc_control.h ****     /**
  73:.\source\rte/sc_control.h ****      * Event onError
  74:.\source\rte/sc_control.h ****      */
  75:.\source\rte/sc_control.h ****     EventMaskType const evOnError;
  76:.\source\rte/sc_control.h ****     
  77:.\source\rte/sc_control.h ****     /**
  78:.\source\rte/sc_control.h ****      * Task Count onUpdate
  79:.\source\rte/sc_control.h ****      */
  80:.\source\rte/sc_control.h ****     size_t const onUpdateTaskCount;
  81:.\source\rte/sc_control.h **** 
  82:.\source\rte/sc_control.h ****     /**
  83:.\source\rte/sc_control.h ****      * Task List onUpdate
  84:.\source\rte/sc_control.h ****      */
  85:.\source\rte/sc_control.h ****     TaskTypeArray* const onUpdateTasks;
  86:.\source\rte/sc_control.h ****     
  87:.\source\rte/sc_control.h ****     /**
  88:.\source\rte/sc_control.h ****      * Task Count onError
  89:.\source\rte/sc_control.h ****      */
  90:.\source\rte/sc_control.h ****     size_t const onErrorTaskCount;
  91:.\source\rte/sc_control.h **** 
  92:.\source\rte/sc_control.h ****     /**
  93:.\source\rte/sc_control.h ****      * Task List onError
  94:.\source\rte/sc_control.h ****      */
  95:.\source\rte/sc_control.h ****     TaskTypeArray* const onErrorTasks;
  96:.\source\rte/sc_control.h **** 	
  97:.\source\rte/sc_control.h **** 	
  98:.\source\rte/sc_control.h **** 	/**
  99:.\source\rte/sc_control.h **** 	 * Ressourse is active? We need an additional boolean as a ressource value 0 is valid.
 100:.\source\rte/sc_control.h **** 	 */
 101:.\source\rte/sc_control.h **** 	 boolean_t const resourceActive;
 102:.\source\rte/sc_control.h **** 	 
 103:.\source\rte/sc_control.h **** 	/**
 104:.\source\rte/sc_control.h **** 	 * Ressourse 
 105:.\source\rte/sc_control.h **** 	 */
 106:.\source\rte/sc_control.h **** 	 ResourceType const resource;
 107:.\source\rte/sc_control.h **** 
 108:.\source\rte/sc_control.h **** };                                                                                                 
 109:.\source\rte/sc_control.h **** typedef const struct SC_CONTROL_cfg_s SC_CONTROL_cfg_t;
 110:.\source\rte/sc_control.h ****                               
 111:.\source\rte/sc_control.h **** /**************************************************************************************************
 112:.\source\rte/sc_control.h **** /* The data interface block																							*/
 113:.\source\rte/sc_control.h **** /**************************************************************************************************
 114:.\source\rte/sc_control.h **** 
 115:.\source\rte/sc_control.h ****                                                                                                    
 116:.\source\rte/sc_control.h **** 							  
 117:.\source\rte/sc_control.h **** /**
 118:.\source\rte/sc_control.h ****  * Instances of the struct SC_CONTROL_t represent the signal objects.
 119:.\source\rte/sc_control.h ****  * A signal object contains the current application value 'value' as well as relevant meta data.
 120:.\source\rte/sc_control.h ****  */
 121:.\source\rte/sc_control.h **** struct SC_CONTROL_s
 122:.\source\rte/sc_control.h **** {                                                                                                  
 123:.\source\rte/sc_control.h **** 
 124:.\source\rte/sc_control.h **** 	/**
 125:.\source\rte/sc_control.h **** 	 * Data buffer for the application value
ARM GAS  C:\Users\giris\AppData\Local\Temp\cceloVpD.s 			page 11


 126:.\source\rte/sc_control.h **** 	 */
 127:.\source\rte/sc_control.h ****     SC_CONTROL_data_t value;
 128:.\source\rte/sc_control.h **** 
 129:.\source\rte/sc_control.h ****     /**
 130:.\source\rte/sc_control.h ****      * Current signal status
 131:.\source\rte/sc_control.h ****      */
 132:.\source\rte/sc_control.h ****     RTE_signalStatus_t status;
 133:.\source\rte/sc_control.h **** 
 134:.\source\rte/sc_control.h ****     /**
 135:.\source\rte/sc_control.h ****      * Current age of the signal (in calling cycles)
 136:.\source\rte/sc_control.h ****      */
 137:.\source\rte/sc_control.h ****     uint32_t age;
 138:.\source\rte/sc_control.h **** 
 139:.\source\rte/sc_control.h ****     /**
 140:.\source\rte/sc_control.h ****      * Pointer to the signal configuration
 141:.\source\rte/sc_control.h ****      */
 142:.\source\rte/sc_control.h **** 	const SC_CONTROL_cfg_t * const    pSigCfg;
 143:.\source\rte/sc_control.h **** 
 144:.\source\rte/sc_control.h **** };                                                                                                 
 145:.\source\rte/sc_control.h **** typedef struct SC_CONTROL_s SC_CONTROL_t;
 146:.\source\rte/sc_control.h **** 
 147:.\source\rte/sc_control.h **** /**************************************************************************************************
 148:.\source\rte/sc_control.h **** /* Signal initialisation   																							*/
 149:.\source\rte/sc_control.h **** /**************************************************************************************************
 150:.\source\rte/sc_control.h **** 
 151:.\source\rte/sc_control.h **** /**
 152:.\source\rte/sc_control.h ****  * Initializes a signal instance with a passed init value.
 153:.\source\rte/sc_control.h ****  * Depending on the configured conversion or scaling function the raw_value will be calculated.
 154:.\source\rte/sc_control.h ****  * Signal status will change from RTE_SIGNALSTATUS_STARTUP to RTE_SIGNALSTATUS_INITIALIZED.
 155:.\source\rte/sc_control.h ****  *
 156:.\source\rte/sc_control.h ****  * @param  SC_CONTROL_t * const signal: Pointer to the signal object which will be initialised
 157:.\source\rte/sc_control.h ****  * @return RC_t: standard return code, currently only RC_SUCCESS
 158:.\source\rte/sc_control.h ****  *
 159:.\source\rte/sc_control.h ****  **/
 160:.\source\rte/sc_control.h **** inline RC_t RTE_SC_CONTROL_init( SC_CONTROL_t * const signal )
 161:.\source\rte/sc_control.h **** {                                                                                                  
 162:.\source\rte/sc_control.h **** 
 163:.\source\rte/sc_control.h ****    RC_t ret = RC_SUCCESS;
 164:.\source\rte/sc_control.h **** 
 165:.\source\rte/sc_control.h ****    //Set value and raw value
 166:.\source\rte/sc_control.h ****    signal->value  = SC_CONTROL_INIT_DATA;
 167:.\source\rte/sc_control.h ****    signal->age    = 0;
 168:.\source\rte/sc_control.h ****    signal->status = RTE_SIGNALSTATUS_INITIALIZED;
 169:.\source\rte/sc_control.h **** 
 170:.\source\rte/sc_control.h ****    return ret;
 171:.\source\rte/sc_control.h **** }
 172:.\source\rte/sc_control.h **** 
 173:.\source\rte/sc_control.h **** /**************************************************************************************************
 174:.\source\rte/sc_control.h **** /* Status and timeout control																						*/
 175:.\source\rte/sc_control.h **** /**************************************************************************************************
 176:.\source\rte/sc_control.h **** 
 177:.\source\rte/sc_control.h **** /**
 178:.\source\rte/sc_control.h ****  *  Returns the current signal status of the passed signal instance.
 179:.\source\rte/sc_control.h ****  *
 180:.\source\rte/sc_control.h ****  * @param  SC_CONTROL_t * const signal: Pointer to the signal object
 181:.\source\rte/sc_control.h ****  * @return  sig_status_t: The current signal status
 182:.\source\rte/sc_control.h ****  *
ARM GAS  C:\Users\giris\AppData\Local\Temp\cceloVpD.s 			page 12


 183:.\source\rte/sc_control.h ****  **/
 184:.\source\rte/sc_control.h **** inline RTE_signalStatus_t RTE_SC_CONTROL_getStatus( const SC_CONTROL_t * const signal )
 185:.\source\rte/sc_control.h **** {
 186:.\source\rte/sc_control.h ****    return signal->status;
 187:.\source\rte/sc_control.h **** }
 188:.\source\rte/sc_control.h **** 
 189:.\source\rte/sc_control.h **** 
 190:.\source\rte/sc_control.h **** /**
 191:.\source\rte/sc_control.h ****  *  Sets a new signal status of the passed signal instance by passing the new status.
 192:.\source\rte/sc_control.h ****  *
 193:.\source\rte/sc_control.h ****  * @param  SC_CONTROL_t * const signal: Pointer to the signal object
 194:.\source\rte/sc_control.h ****  * @param  const sig_status_t status: New signal status
 195:.\source\rte/sc_control.h ****  * @return RC_t: standard return code, currently only RC_SUCCESS
 196:.\source\rte/sc_control.h ****  *
 197:.\source\rte/sc_control.h ****  */
 198:.\source\rte/sc_control.h **** inline RC_t RTE_SC_CONTROL_setStatus( SC_CONTROL_t * const signal, const RTE_signalStatus_t status 
 199:.\source\rte/sc_control.h **** {
 200:.\source\rte/sc_control.h ****    signal->status = status;
 201:.\source\rte/sc_control.h ****    size_t taskNum=0;
 202:.\source\rte/sc_control.h ****    
 203:.\source\rte/sc_control.h ****    //Fire error events in case of invalid state
 204:.\source\rte/sc_control.h ****    if (signal->status == RTE_SIGNALSTATUS_INVALID)
 205:.\source\rte/sc_control.h ****    {
 206:.\source\rte/sc_control.h **** 	    //Pointer to the Taskarray, containing the tasks receiving the onUpdate events
 207:.\source\rte/sc_control.h **** 		TaskTypeArray* pTaskArray = signal->pSigCfg->onErrorTasks;
 208:.\source\rte/sc_control.h **** 
 209:.\source\rte/sc_control.h **** 		if (0 != signal->pSigCfg->evOnError && NULL != pTaskArray){
 210:.\source\rte/sc_control.h **** 			for( taskNum=0 ; taskNum < signal->pSigCfg->onErrorTaskCount ;taskNum++){
 211:.\source\rte/sc_control.h **** 				TaskType task = (*pTaskArray)[taskNum];
 212:.\source\rte/sc_control.h **** 				SetEvent( task, signal->pSigCfg->evOnError);
 213:.\source\rte/sc_control.h **** 			}
 214:.\source\rte/sc_control.h **** 		}
 215:.\source\rte/sc_control.h ****    }
 216:.\source\rte/sc_control.h ****    
 217:.\source\rte/sc_control.h ****    return RC_SUCCESS;
 218:.\source\rte/sc_control.h **** }
 219:.\source\rte/sc_control.h **** 
 220:.\source\rte/sc_control.h **** 
 221:.\source\rte/sc_control.h **** /**
 222:.\source\rte/sc_control.h ****  * Returns the count of refreshing trials (refresh, set or set_raw) that failed.
 223:.\source\rte/sc_control.h ****  * Prerquisite: The signal is refreshed cyclically
 224:.\source\rte/sc_control.h ****  *
 225:.\source\rte/sc_control.h ****  * @param  SC_CONTROL_t * const signal: Pointer to the signal object
 226:.\source\rte/sc_control.h ****  * @return uint32_t: Number of cycles since the signal has been updated for the last time
 227:.\source\rte/sc_control.h ****  */
 228:.\source\rte/sc_control.h **** inline uint32_t RTE_SC_CONTROL_getAge( const SC_CONTROL_t * const signal )
 229:.\source\rte/sc_control.h **** {
 230:.\source\rte/sc_control.h ****    return signal->age;
 231:.\source\rte/sc_control.h **** }
 232:.\source\rte/sc_control.h **** 
 233:.\source\rte/sc_control.h **** /**
 234:.\source\rte/sc_control.h ****  * Should be called by application or driver if no new value can be provided.
 235:.\source\rte/sc_control.h ****  * @param  SC_CONTROL_t * const signal: Pointer to the signal object
 236:.\source\rte/sc_control.h ****  * @param uint32_t increment: incrementvalue, typically in [ms]
 237:.\source\rte/sc_control.h ****  * @return void
 238:.\source\rte/sc_control.h ****  */
 239:.\source\rte/sc_control.h **** inline void RTE_SC_CONTROL_incAge(  SC_CONTROL_t * const signal , uint32_t increment)
ARM GAS  C:\Users\giris\AppData\Local\Temp\cceloVpD.s 			page 13


 240:.\source\rte/sc_control.h **** {
 241:.\source\rte/sc_control.h **** 	   //Hack....
 242:.\source\rte/sc_control.h **** 	   if ( 0xFFFF0000 > (signal->age + increment) )
 243:.\source\rte/sc_control.h **** 	   {
 244:.\source\rte/sc_control.h **** 	      signal->age += increment;
 245:.\source\rte/sc_control.h **** 	   }
 246:.\source\rte/sc_control.h **** }
 247:.\source\rte/sc_control.h **** 
 248:.\source\rte/sc_control.h **** 
 249:.\source\rte/sc_control.h **** /**************************************************************************************************
 250:.\source\rte/sc_control.h **** /* Application Data read/write Interface																			*/
 251:.\source\rte/sc_control.h **** /**************************************************************************************************
 252:.\source\rte/sc_control.h **** 
 253:.\source\rte/sc_control.h **** /**
 254:.\source\rte/sc_control.h ****  * Returns the current application value as pointer to the signal payload.
 255:.\source\rte/sc_control.h ****  * Careful: This is not threadsafe!!!
 256:.\source\rte/sc_control.h ****  *
 257:.\source\rte/sc_control.h ****  * @param  SC_CONTROL_t * const signal: Pointer to the signal object
 258:.\source\rte/sc_control.h ****  * @return sc_control_data_t*: pointer to the current value of the application data buffer
 259:.\source\rte/sc_control.h ****  *
 260:.\source\rte/sc_control.h ****  **/
 261:.\source\rte/sc_control.h **** inline SC_CONTROL_data_t* RTE_SC_CONTROL_getPtr( SC_CONTROL_t * const signal )
 262:.\source\rte/sc_control.h **** {               
 263:.\source\rte/sc_control.h ****    //Todo: Critical region cannot be protected using return values																						
 264:.\source\rte/sc_control.h ****    return &(signal->value);                                                                        
 265:.\source\rte/sc_control.h **** }
 266:.\source\rte/sc_control.h **** 
 267:.\source\rte/sc_control.h **** /**
 268:.\source\rte/sc_control.h ****  * Returns the current application value of the passed signal instance.
 269:.\source\rte/sc_control.h ****  *
 270:.\source\rte/sc_control.h ****  * @param  SC_CONTROL_t * const signal: Pointer to the signal object
 271:.\source\rte/sc_control.h ****  * @return sc_control_data_t: current value of the application data buffer
 272:.\source\rte/sc_control.h ****  *
 273:.\source\rte/sc_control.h ****  **/
 274:.\source\rte/sc_control.h **** inline SC_CONTROL_data_t RTE_SC_CONTROL_get( const SC_CONTROL_t * const signal )
 275:.\source\rte/sc_control.h **** {               
 276:.\source\rte/sc_control.h ****    //Todo: Critical region cannot be protected using return values																						
 277:.\source\rte/sc_control.h ****    return signal->value;                                                                           
  44              		.loc 2 277 0
  45 0004 204F     		ldr	r7, .L7
  46 0006 06AD     		add	r5, sp, #24
  47 0008 3C46     		mov	r4, r7
  48 000a 0FCC     		ldmia	r4!, {r0, r1, r2, r3}
  49 000c 0FC5     		stmia	r5!, {r0, r1, r2, r3}
  50 000e 94E80300 		ldmia	r4, {r0, r1}
  51 0012 85E80300 		stmia	r5, {r0, r1}
  52              	.LVL1:
  53              	.LBE77:
  54              	.LBE76:
 403:source\asw/clock.c **** //    UART_LOG_PutString("\nIn set display fonts Dispatch.....\n");
 404:source\asw/clock.c ****     char buffer[100];
 405:source\asw/clock.c ****     
 406:source\asw/clock.c ****     SC_CONTROL_data_t fontstyle =   RTE_SC_CONTROL_get(&SO_CONTROL_signal);;
 407:source\asw/clock.c ****     
 408:source\asw/clock.c ****     fontstyle.hour.font_type.bg_colour        =   BLACK;
  55              		.loc 1 408 0
  56 0016 4FF0000E 		mov	lr, #0
ARM GAS  C:\Users\giris\AppData\Local\Temp\cceloVpD.s 			page 14


  57 001a ADF81CE0 		strh	lr, [sp, #28]	@ movhi
 409:source\asw/clock.c ****     fontstyle.hour.font_type.widget_colour    =   WHITE;
  58              		.loc 1 409 0
  59 001e 4FF6FF73 		movw	r3, #65535
  60 0022 ADF81E30 		strh	r3, [sp, #30]	@ movhi
 410:source\asw/clock.c **** 
 411:source\asw/clock.c ****     fontstyle.minute.font_type.bg_colour      =   BLACK;
  61              		.loc 1 411 0
  62 0026 ADF828E0 		strh	lr, [sp, #40]	@ movhi
 412:source\asw/clock.c ****     fontstyle.minute.font_type.widget_colour  =   WHITE;
  63              		.loc 1 412 0
  64 002a ADF82A30 		strh	r3, [sp, #42]	@ movhi
  65              	.LVL2:
  66 002e 6D46     		mov	r5, sp
  67 0030 06AE     		add	r6, sp, #24
  68 0032 0FCE     		ldmia	r6!, {r0, r1, r2, r3}
  69 0034 0FC5     		stmia	r5!, {r0, r1, r2, r3}
  70 0036 96E80300 		ldmia	r6, {r0, r1}
  71 003a 85E80300 		stmia	r5, {r0, r1}
  72              	.LVL3:
  73              	.LBB78:
  74              	.LBB79:
 278:.\source\rte/sc_control.h **** }                                                                                                  
 279:.\source\rte/sc_control.h ****                                                                                                    
 280:.\source\rte/sc_control.h **** /**
 281:.\source\rte/sc_control.h ****  * Returns the current application value of the passed signal instance threadsafe.
 282:.\source\rte/sc_control.h ****  *
 283:.\source\rte/sc_control.h ****  * @param  SC_CONTROL_t * const signal: Pointer to the signal object
 284:.\source\rte/sc_control.h ****  * @param  SC_CONTROL_data_t* data: Pointer to the return data Pointer to the signal object
 285:.\source\rte/sc_control.h ****  * @return RC_SUCCESS
 286:.\source\rte/sc_control.h ****  *
 287:.\source\rte/sc_control.h ****  **/
 288:.\source\rte/sc_control.h **** inline RC_t RTE_SC_CONTROL_getThreadSafe( const SC_CONTROL_t * const signal, SC_CONTROL_data_t * co
 289:.\source\rte/sc_control.h **** {    
 290:.\source\rte/sc_control.h ****    if (TRUE == signal->pSigCfg->resourceActive) GetResource(signal->pSigCfg->resource);
 291:.\source\rte/sc_control.h ****    *data = signal->value;
 292:.\source\rte/sc_control.h ****    if (TRUE == signal->pSigCfg->resourceActive) ReleaseResource(signal->pSigCfg->resource);        
 293:.\source\rte/sc_control.h **** 
 294:.\source\rte/sc_control.h ****    return RC_SUCCESS;                                                                   
 295:.\source\rte/sc_control.h ****    
 296:.\source\rte/sc_control.h **** }                                                                                                  
 297:.\source\rte/sc_control.h ****                                                                                                    
 298:.\source\rte/sc_control.h **** /**
 299:.\source\rte/sc_control.h ****  * Sets a new application value to the passed signal instance by passing the new value.
 300:.\source\rte/sc_control.h ****  * The corresponding driver raw value will be calculated immediately by using the default conversio
 301:.\source\rte/sc_control.h ****  * signal specific scaling function.
 302:.\source\rte/sc_control.h ****  * The signal age will be set to 0 and the new status will be 'RTE_SIGNALSTATUS_VALID'.
 303:.\source\rte/sc_control.h ****  *
 304:.\source\rte/sc_control.h ****  * @param  SC_CONTROL_t * const signal: Pointer to the signal object
 305:.\source\rte/sc_control.h ****  * @param  sc_control_data_t const value: value for the application data buffer
 306:.\source\rte/sc_control.h ****  * @return RC_t: standard return code, currently only RC_SUCCESS
 307:.\source\rte/sc_control.h ****  *
 308:.\source\rte/sc_control.h ****  **/
 309:.\source\rte/sc_control.h **** inline RC_t RTE_SC_CONTROL_set(SC_CONTROL_t * const signal, const SC_CONTROL_data_t value  )
 310:.\source\rte/sc_control.h **** {
 311:.\source\rte/sc_control.h **** 
 312:.\source\rte/sc_control.h ****    RC_t ret = RC_SUCCESS;
ARM GAS  C:\Users\giris\AppData\Local\Temp\cceloVpD.s 			page 15


 313:.\source\rte/sc_control.h ****    size_t taskNum=0;
 314:.\source\rte/sc_control.h **** 
 315:.\source\rte/sc_control.h **** 
 316:.\source\rte/sc_control.h ****    if (TRUE == signal->pSigCfg->resourceActive) GetResource(signal->pSigCfg->resource);
  75              		.loc 2 316 0
  76 003e D7F820C0 		ldr	ip, [r7, #32]
 317:.\source\rte/sc_control.h ****    signal->value  = value;
  77              		.loc 2 317 0
  78 0042 3E46     		mov	r6, r7
  79 0044 6D46     		mov	r5, sp
  80 0046 0FCD     		ldmia	r5!, {r0, r1, r2, r3}
  81 0048 0FC6     		stmia	r6!, {r0, r1, r2, r3}
  82 004a 95E80300 		ldmia	r5, {r0, r1}
  83 004e 84E80300 		stmia	r4, {r0, r1}
 318:.\source\rte/sc_control.h ****    signal->age    = 0;
  84              		.loc 2 318 0
  85 0052 C7F81CE0 		str	lr, [r7, #28]
 319:.\source\rte/sc_control.h ****    signal->status = RTE_SIGNALSTATUS_VALID;
  86              		.loc 2 319 0
  87 0056 0223     		movs	r3, #2
  88 0058 3B76     		strb	r3, [r7, #24]
 320:.\source\rte/sc_control.h ****    if (TRUE == signal->pSigCfg->resourceActive) ReleaseResource(signal->pSigCfg->resource);
 321:.\source\rte/sc_control.h **** 
 322:.\source\rte/sc_control.h ****    //Pointer to the Taskarray, containing the tasks receiving the onUpdate events
 323:.\source\rte/sc_control.h ****    TaskTypeArray* pTaskArray = signal->pSigCfg->onUpdateTasks;
  89              		.loc 2 323 0
  90 005a DCF81450 		ldr	r5, [ip, #20]
  91              	.LVL4:
 324:.\source\rte/sc_control.h **** 
 325:.\source\rte/sc_control.h ****    if (0 != signal->pSigCfg->evOnUpdate && NULL != pTaskArray){
  92              		.loc 2 325 0
  93 005e DCF80830 		ldr	r3, [ip, #8]
  94 0062 73B1     		cbz	r3, .L1
  95 0064 3DB9     		cbnz	r5, .L5
  96 0066 0CE0     		b	.L1
  97              	.LVL5:
  98              	.L4:
  99              	.LBB80:
 326:.\source\rte/sc_control.h ****       for( taskNum=0 ; taskNum < signal->pSigCfg->onUpdateTaskCount ;taskNum++){
 327:.\source\rte/sc_control.h **** 		  
 328:.\source\rte/sc_control.h ****           TaskType task = (*pTaskArray)[taskNum];
 329:.\source\rte/sc_control.h **** 	      SetEvent( task, signal->pSigCfg->evOnUpdate);
 100              		.loc 2 329 0
 101 0068 9968     		ldr	r1, [r3, #8]
 102 006a 55F82400 		ldr	r0, [r5, r4, lsl #2]
 103 006e FFF7FEFF 		bl	EE_oo_SetEvent
 104              	.LVL6:
 105              	.LBE80:
 326:.\source\rte/sc_control.h ****       for( taskNum=0 ; taskNum < signal->pSigCfg->onUpdateTaskCount ;taskNum++){
 106              		.loc 2 326 0
 107 0072 0134     		adds	r4, r4, #1
 108              	.LVL7:
 109 0074 00E0     		b	.L3
 110              	.LVL8:
 111              	.L5:
 325:.\source\rte/sc_control.h ****       for( taskNum=0 ; taskNum < signal->pSigCfg->onUpdateTaskCount ;taskNum++){
 112              		.loc 2 325 0
ARM GAS  C:\Users\giris\AppData\Local\Temp\cceloVpD.s 			page 16


 113 0076 0024     		movs	r4, #0
 114              	.LVL9:
 115              	.L3:
 326:.\source\rte/sc_control.h ****       for( taskNum=0 ; taskNum < signal->pSigCfg->onUpdateTaskCount ;taskNum++){
 116              		.loc 2 326 0
 117 0078 034B     		ldr	r3, .L7
 118 007a 1B6A     		ldr	r3, [r3, #32]
 119 007c 1A69     		ldr	r2, [r3, #16]
 120 007e 9442     		cmp	r4, r2
 121 0080 F2D3     		bcc	.L4
 122              	.LVL10:
 123              	.L1:
 124              	.LBE79:
 125              	.LBE78:
 413:source\asw/clock.c ****     
 414:source\asw/clock.c ****     RTE_SC_CONTROL_set(&SO_CONTROL_signal, fontstyle);
 415:source\asw/clock.c **** }
 126              		.loc 1 415 0
 127 0082 0DB0     		add	sp, sp, #52
 128              		.cfi_def_cfa_offset 20
 129              		@ sp needed
 130 0084 F0BD     		pop	{r4, r5, r6, r7, pc}
 131              	.LVL11:
 132              	.L8:
 133 0086 00BF     		.align	2
 134              	.L7:
 135 0088 00000000 		.word	SO_CONTROL_signal
 136              		.cfi_endproc
 137              	.LFE158:
 138              		.size	CLOCK__setDisplayFonts, .-CLOCK__setDisplayFonts
 139              		.section	.text.CLOCK__setEditFonts,"ax",%progbits
 140              		.align	2
 141              		.thumb
 142              		.thumb_func
 143              		.type	CLOCK__setEditFonts, %function
 144              	CLOCK__setEditFonts:
 145              	.LFB159:
 416:source\asw/clock.c **** 
 417:source\asw/clock.c **** void CLOCK__setEditFonts()
 418:source\asw/clock.c **** {
 146              		.loc 1 418 0
 147              		.cfi_startproc
 148              		@ args = 0, pretend = 0, frame = 48
 149              		@ frame_needed = 0, uses_anonymous_args = 0
 150 0000 F0B5     		push	{r4, r5, r6, r7, lr}
 151              		.cfi_def_cfa_offset 20
 152              		.cfi_offset 4, -20
 153              		.cfi_offset 5, -16
 154              		.cfi_offset 6, -12
 155              		.cfi_offset 7, -8
 156              		.cfi_offset 14, -4
 157 0002 8DB0     		sub	sp, sp, #52
 158              		.cfi_def_cfa_offset 72
 159              	.LVL12:
 160              	.LBB81:
 161              	.LBB82:
 277:.\source\rte/sc_control.h **** }                                                                                                  
ARM GAS  C:\Users\giris\AppData\Local\Temp\cceloVpD.s 			page 17


 162              		.loc 2 277 0
 163 0004 06AC     		add	r4, sp, #24
 164 0006 274D     		ldr	r5, .L17
 165 0008 0FCD     		ldmia	r5!, {r0, r1, r2, r3}
 166 000a 0FC4     		stmia	r4!, {r0, r1, r2, r3}
 167 000c 95E80300 		ldmia	r5, {r0, r1}
 168 0010 84E80300 		stmia	r4, {r0, r1}
 169              	.LVL13:
 170              	.LBE82:
 171              	.LBE81:
 419:source\asw/clock.c **** //    UART_LOG_PutString("\nIn set edit fonts Dispatch.....\n");
 420:source\asw/clock.c **** //    char buffer[100];
 421:source\asw/clock.c ****     
 422:source\asw/clock.c ****     SC_CONTROL_data_t fontstyle =   RTE_SC_CONTROL_get(&SO_CONTROL_signal);
 423:source\asw/clock.c ****     
 424:source\asw/clock.c ****     if(fontstyle.hour.widget_type == CLOCK_HOURWIDGET)
 172              		.loc 1 424 0
 173 0014 9DF81830 		ldrb	r3, [sp, #24]	@ zero_extendqisi2
 174 0018 5BB9     		cbnz	r3, .L10
 425:source\asw/clock.c ****     {
 426:source\asw/clock.c **** //        UART_LOG_PutString("E: Hour widget state: ");
 427:source\asw/clock.c **** //        itoa(clock.m_clock_data.m_activeWidget, buffer, 10);
 428:source\asw/clock.c **** //        UART_LOG_PutString(buffer);
 429:source\asw/clock.c **** //        UART_LOG_PutString("\n");
 430:source\asw/clock.c ****         
 431:source\asw/clock.c ****         fontstyle.hour.font_type.bg_colour        =   WHITE;
 175              		.loc 1 431 0
 176 001a 4FF6FF73 		movw	r3, #65535
 177 001e ADF81C30 		strh	r3, [sp, #28]	@ movhi
 432:source\asw/clock.c ****         fontstyle.hour.font_type.widget_colour    =   BLACK;
 178              		.loc 1 432 0
 179 0022 0022     		movs	r2, #0
 180 0024 ADF81E20 		strh	r2, [sp, #30]	@ movhi
 433:source\asw/clock.c ****         
 434:source\asw/clock.c ****         fontstyle.minute.font_type.bg_colour      =   BLACK;
 181              		.loc 1 434 0
 182 0028 ADF82820 		strh	r2, [sp, #40]	@ movhi
 435:source\asw/clock.c ****         fontstyle.minute.font_type.widget_colour  =   WHITE;
 183              		.loc 1 435 0
 184 002c ADF82A30 		strh	r3, [sp, #42]	@ movhi
 185 0030 0EE0     		b	.L11
 186              	.L10:
 436:source\asw/clock.c ****     }
 437:source\asw/clock.c ****     else if(fontstyle.minute.widget_type == CLOCK_MINWIDGET)
 187              		.loc 1 437 0
 188 0032 9DF82430 		ldrb	r3, [sp, #36]	@ zero_extendqisi2
 189 0036 012B     		cmp	r3, #1
 190 0038 0AD1     		bne	.L11
 438:source\asw/clock.c ****     {
 439:source\asw/clock.c **** //        UART_LOG_PutString("E: Minute widget state: ");
 440:source\asw/clock.c **** //        itoa(clock.m_clock_data.m_activeWidget, buffer, 10);
 441:source\asw/clock.c **** //        UART_LOG_PutString(buffer);
 442:source\asw/clock.c **** //        UART_LOG_PutString("\n");
 443:source\asw/clock.c ****         
 444:source\asw/clock.c ****         fontstyle.hour.font_type.bg_colour        =   BLACK;
 191              		.loc 1 444 0
 192 003a 0023     		movs	r3, #0
ARM GAS  C:\Users\giris\AppData\Local\Temp\cceloVpD.s 			page 18


 193 003c ADF81C30 		strh	r3, [sp, #28]	@ movhi
 445:source\asw/clock.c ****         fontstyle.hour.font_type.widget_colour    =   WHITE;
 194              		.loc 1 445 0
 195 0040 4FF6FF72 		movw	r2, #65535
 196 0044 ADF81E20 		strh	r2, [sp, #30]	@ movhi
 446:source\asw/clock.c ****         
 447:source\asw/clock.c ****         fontstyle.minute.font_type.bg_colour      =   WHITE;
 197              		.loc 1 447 0
 198 0048 ADF82820 		strh	r2, [sp, #40]	@ movhi
 448:source\asw/clock.c ****         fontstyle.minute.font_type.widget_colour  =   BLACK;
 199              		.loc 1 448 0
 200 004c ADF82A30 		strh	r3, [sp, #42]	@ movhi
 201              	.L11:
 202              	.LVL14:
 203 0050 6C46     		mov	r4, sp
 204 0052 06AD     		add	r5, sp, #24
 205 0054 0FCD     		ldmia	r5!, {r0, r1, r2, r3}
 206 0056 0FC4     		stmia	r4!, {r0, r1, r2, r3}
 207 0058 95E80300 		ldmia	r5, {r0, r1}
 208 005c 84E80300 		stmia	r4, {r0, r1}
 209              	.LVL15:
 210              	.LBB83:
 211              	.LBB84:
 316:.\source\rte/sc_control.h ****    signal->value  = value;
 212              		.loc 2 316 0
 213 0060 104E     		ldr	r6, .L17
 214 0062 376A     		ldr	r7, [r6, #32]
 317:.\source\rte/sc_control.h ****    signal->age    = 0;
 215              		.loc 2 317 0
 216 0064 3446     		mov	r4, r6
 217 0066 6D46     		mov	r5, sp
 218 0068 0FCD     		ldmia	r5!, {r0, r1, r2, r3}
 219 006a 0FC4     		stmia	r4!, {r0, r1, r2, r3}
 220 006c 95E80300 		ldmia	r5, {r0, r1}
 221 0070 84E80300 		stmia	r4, {r0, r1}
 318:.\source\rte/sc_control.h ****    signal->status = RTE_SIGNALSTATUS_VALID;
 222              		.loc 2 318 0
 223 0074 0023     		movs	r3, #0
 224 0076 F361     		str	r3, [r6, #28]
 319:.\source\rte/sc_control.h ****    if (TRUE == signal->pSigCfg->resourceActive) ReleaseResource(signal->pSigCfg->resource);
 225              		.loc 2 319 0
 226 0078 0223     		movs	r3, #2
 227 007a 3376     		strb	r3, [r6, #24]
 323:.\source\rte/sc_control.h **** 
 228              		.loc 2 323 0
 229 007c 7D69     		ldr	r5, [r7, #20]
 230              	.LVL16:
 325:.\source\rte/sc_control.h ****       for( taskNum=0 ; taskNum < signal->pSigCfg->onUpdateTaskCount ;taskNum++){
 231              		.loc 2 325 0
 232 007e BB68     		ldr	r3, [r7, #8]
 233 0080 73B1     		cbz	r3, .L9
 234 0082 3DB9     		cbnz	r5, .L15
 235 0084 0CE0     		b	.L9
 236              	.LVL17:
 237              	.L14:
 238              	.LBB85:
 239              		.loc 2 329 0
ARM GAS  C:\Users\giris\AppData\Local\Temp\cceloVpD.s 			page 19


 240 0086 9968     		ldr	r1, [r3, #8]
 241 0088 55F82400 		ldr	r0, [r5, r4, lsl #2]
 242 008c FFF7FEFF 		bl	EE_oo_SetEvent
 243              	.LVL18:
 244              	.LBE85:
 326:.\source\rte/sc_control.h **** 		  
 245              		.loc 2 326 0
 246 0090 0134     		adds	r4, r4, #1
 247              	.LVL19:
 248 0092 00E0     		b	.L13
 249              	.LVL20:
 250              	.L15:
 325:.\source\rte/sc_control.h ****       for( taskNum=0 ; taskNum < signal->pSigCfg->onUpdateTaskCount ;taskNum++){
 251              		.loc 2 325 0
 252 0094 0024     		movs	r4, #0
 253              	.LVL21:
 254              	.L13:
 326:.\source\rte/sc_control.h **** 		  
 255              		.loc 2 326 0
 256 0096 034B     		ldr	r3, .L17
 257 0098 1B6A     		ldr	r3, [r3, #32]
 258 009a 1A69     		ldr	r2, [r3, #16]
 259 009c 9442     		cmp	r4, r2
 260 009e F2D3     		bcc	.L14
 261              	.LVL22:
 262              	.L9:
 263              	.LBE84:
 264              	.LBE83:
 449:source\asw/clock.c ****     }
 450:source\asw/clock.c ****     
 451:source\asw/clock.c ****     RTE_SC_CONTROL_set(&SO_CONTROL_signal, fontstyle);
 452:source\asw/clock.c **** }
 265              		.loc 1 452 0
 266 00a0 0DB0     		add	sp, sp, #52
 267              		.cfi_def_cfa_offset 20
 268              		@ sp needed
 269 00a2 F0BD     		pop	{r4, r5, r6, r7, pc}
 270              	.LVL23:
 271              	.L18:
 272              		.align	2
 273              	.L17:
 274 00a4 00000000 		.word	SO_CONTROL_signal
 275              		.cfi_endproc
 276              	.LFE159:
 277              		.size	CLOCK__setEditFonts, .-CLOCK__setEditFonts
 278              		.section	.text.CLOCK__updateDisplay,"ax",%progbits
 279              		.align	2
 280              		.thumb
 281              		.thumb_func
 282              		.type	CLOCK__updateDisplay, %function
 283              	CLOCK__updateDisplay:
 284              	.LFB160:
 453:source\asw/clock.c **** 
 454:source\asw/clock.c **** void CLOCK__updateDisplay()
 455:source\asw/clock.c **** {
 285              		.loc 1 455 0
 286              		.cfi_startproc
ARM GAS  C:\Users\giris\AppData\Local\Temp\cceloVpD.s 			page 20


 287              		@ args = 0, pretend = 0, frame = 48
 288              		@ frame_needed = 0, uses_anonymous_args = 0
 289 0000 F0B5     		push	{r4, r5, r6, r7, lr}
 290              		.cfi_def_cfa_offset 20
 291              		.cfi_offset 4, -20
 292              		.cfi_offset 5, -16
 293              		.cfi_offset 6, -12
 294              		.cfi_offset 7, -8
 295              		.cfi_offset 14, -4
 296 0002 8DB0     		sub	sp, sp, #52
 297              		.cfi_def_cfa_offset 72
 298              	.LVL24:
 299              	.LBB86:
 300              	.LBB87:
 277:.\source\rte/sc_control.h **** }                                                                                                  
 301              		.loc 2 277 0
 302 0004 184F     		ldr	r7, .L25
 303 0006 06AD     		add	r5, sp, #24
 304 0008 3C46     		mov	r4, r7
 305 000a 0FCC     		ldmia	r4!, {r0, r1, r2, r3}
 306 000c 0FC5     		stmia	r5!, {r0, r1, r2, r3}
 307 000e 94E80300 		ldmia	r4, {r0, r1}
 308 0012 85E80300 		stmia	r5, {r0, r1}
 309              	.LVL25:
 310 0016 6D46     		mov	r5, sp
 311 0018 06AE     		add	r6, sp, #24
 312 001a 0FCE     		ldmia	r6!, {r0, r1, r2, r3}
 313 001c 0FC5     		stmia	r5!, {r0, r1, r2, r3}
 314 001e 96E80300 		ldmia	r6, {r0, r1}
 315 0022 85E80300 		stmia	r5, {r0, r1}
 316              	.LVL26:
 317              	.LBE87:
 318              	.LBE86:
 319              	.LBB88:
 320              	.LBB89:
 316:.\source\rte/sc_control.h ****    signal->value  = value;
 321              		.loc 2 316 0
 322 0026 D7F820E0 		ldr	lr, [r7, #32]
 317:.\source\rte/sc_control.h ****    signal->age    = 0;
 323              		.loc 2 317 0
 324 002a 3E46     		mov	r6, r7
 325 002c 6D46     		mov	r5, sp
 326 002e 0FCD     		ldmia	r5!, {r0, r1, r2, r3}
 327 0030 0FC6     		stmia	r6!, {r0, r1, r2, r3}
 318:.\source\rte/sc_control.h ****    signal->status = RTE_SIGNALSTATUS_VALID;
 328              		.loc 2 318 0
 329 0032 0023     		movs	r3, #0
 330 0034 FB61     		str	r3, [r7, #28]
 319:.\source\rte/sc_control.h ****    if (TRUE == signal->pSigCfg->resourceActive) ReleaseResource(signal->pSigCfg->resource);
 331              		.loc 2 319 0
 332 0036 0223     		movs	r3, #2
 333 0038 3B76     		strb	r3, [r7, #24]
 323:.\source\rte/sc_control.h **** 
 334              		.loc 2 323 0
 335 003a DEF81450 		ldr	r5, [lr, #20]
 336              	.LVL27:
 325:.\source\rte/sc_control.h ****       for( taskNum=0 ; taskNum < signal->pSigCfg->onUpdateTaskCount ;taskNum++){
ARM GAS  C:\Users\giris\AppData\Local\Temp\cceloVpD.s 			page 21


 337              		.loc 2 325 0
 338 003e DEF80830 		ldr	r3, [lr, #8]
 339 0042 73B1     		cbz	r3, .L19
 340 0044 3DB9     		cbnz	r5, .L23
 341 0046 0CE0     		b	.L19
 342              	.LVL28:
 343              	.L22:
 344              	.LBB90:
 345              		.loc 2 329 0
 346 0048 9968     		ldr	r1, [r3, #8]
 347 004a 55F82400 		ldr	r0, [r5, r4, lsl #2]
 348 004e FFF7FEFF 		bl	EE_oo_SetEvent
 349              	.LVL29:
 350              	.LBE90:
 326:.\source\rte/sc_control.h **** 		  
 351              		.loc 2 326 0
 352 0052 0134     		adds	r4, r4, #1
 353              	.LVL30:
 354 0054 00E0     		b	.L21
 355              	.LVL31:
 356              	.L23:
 325:.\source\rte/sc_control.h ****       for( taskNum=0 ; taskNum < signal->pSigCfg->onUpdateTaskCount ;taskNum++){
 357              		.loc 2 325 0
 358 0056 0024     		movs	r4, #0
 359              	.LVL32:
 360              	.L21:
 326:.\source\rte/sc_control.h **** 		  
 361              		.loc 2 326 0
 362 0058 034B     		ldr	r3, .L25
 363 005a 1B6A     		ldr	r3, [r3, #32]
 364 005c 1A69     		ldr	r2, [r3, #16]
 365 005e 9442     		cmp	r4, r2
 366 0060 F2D3     		bcc	.L22
 367              	.LVL33:
 368              	.L19:
 369              	.LBE89:
 370              	.LBE88:
 456:source\asw/clock.c **** //    UART_LOG_PutString("\nNeed to Display Time.....\n");
 457:source\asw/clock.c ****     
 458:source\asw/clock.c ****     SC_CONTROL_data_t clock_values  =   RTE_SC_CONTROL_get(&SO_CONTROL_signal);
 459:source\asw/clock.c ****     
 460:source\asw/clock.c ****     RTE_SC_CONTROL_set(&SO_CONTROL_signal, clock_values);
 461:source\asw/clock.c ****     
 462:source\asw/clock.c **** }
 371              		.loc 1 462 0
 372 0062 0DB0     		add	sp, sp, #52
 373              		.cfi_def_cfa_offset 20
 374              		@ sp needed
 375 0064 F0BD     		pop	{r4, r5, r6, r7, pc}
 376              	.LVL34:
 377              	.L26:
 378 0066 00BF     		.align	2
 379              	.L25:
 380 0068 00000000 		.word	SO_CONTROL_signal
 381              		.cfi_endproc
 382              	.LFE160:
 383              		.size	CLOCK__updateDisplay, .-CLOCK__updateDisplay
ARM GAS  C:\Users\giris\AppData\Local\Temp\cceloVpD.s 			page 22


 384              		.section	.text.CLOCK__updateTime,"ax",%progbits
 385              		.align	2
 386              		.thumb
 387              		.thumb_func
 388              		.type	CLOCK__updateTime, %function
 389              	CLOCK__updateTime:
 390              	.LFB161:
 463:source\asw/clock.c **** 
 464:source\asw/clock.c **** void CLOCK__updateTime()
 465:source\asw/clock.c **** {
 391              		.loc 1 465 0
 392              		.cfi_startproc
 393              		@ args = 0, pretend = 0, frame = 48
 394              		@ frame_needed = 0, uses_anonymous_args = 0
 395 0000 F0B5     		push	{r4, r5, r6, r7, lr}
 396              		.cfi_def_cfa_offset 20
 397              		.cfi_offset 4, -20
 398              		.cfi_offset 5, -16
 399              		.cfi_offset 6, -12
 400              		.cfi_offset 7, -8
 401              		.cfi_offset 14, -4
 402 0002 8DB0     		sub	sp, sp, #52
 403              		.cfi_def_cfa_offset 72
 404              	.LVL35:
 405              	.LBB91:
 406              	.LBB92:
 277:.\source\rte/sc_control.h **** }                                                                                                  
 407              		.loc 2 277 0
 408 0004 06AC     		add	r4, sp, #24
 409 0006 2C4D     		ldr	r5, .L35
 410 0008 0FCD     		ldmia	r5!, {r0, r1, r2, r3}
 411 000a 0FC4     		stmia	r4!, {r0, r1, r2, r3}
 412 000c 95E80300 		ldmia	r5, {r0, r1}
 413 0010 84E80300 		stmia	r4, {r0, r1}
 414              	.LVL36:
 415              	.LBE92:
 416              	.LBE91:
 466:source\asw/clock.c **** //    UART_LOG_PutString("\nNeed to Update Time in minutes.....\n");
 467:source\asw/clock.c ****     
 468:source\asw/clock.c ****     SC_CONTROL_data_t   time  =   RTE_SC_CONTROL_get(&SO_CONTROL_signal);
 469:source\asw/clock.c ****     
 470:source\asw/clock.c ****     time.minute.value++;
 417              		.loc 1 470 0
 418 0014 9DF82E30 		ldrb	r3, [sp, #46]	@ zero_extendqisi2
 419 0018 0133     		adds	r3, r3, #1
 420 001a DBB2     		uxtb	r3, r3
 421 001c 8DF82E30 		strb	r3, [sp, #46]
 471:source\asw/clock.c ****     if(time.minute.value%60 == 0)
 422              		.loc 1 471 0
 423 0020 264A     		ldr	r2, .L35+4
 424 0022 A2FB0312 		umull	r1, r2, r2, r3
 425 0026 5209     		lsrs	r2, r2, #5
 426 0028 C2EB0212 		rsb	r2, r2, r2, lsl #4
 427 002c 9100     		lsls	r1, r2, #2
 428 002e 5B1A     		subs	r3, r3, r1
 429 0030 13F0FF0F 		tst	r3, #255
 430 0034 16D1     		bne	.L28
ARM GAS  C:\Users\giris\AppData\Local\Temp\cceloVpD.s 			page 23


 472:source\asw/clock.c ****     {
 473:source\asw/clock.c ****         time.hour.value++;
 431              		.loc 1 473 0
 432 0036 9DF82230 		ldrb	r3, [sp, #34]	@ zero_extendqisi2
 433 003a 0133     		adds	r3, r3, #1
 434 003c DBB2     		uxtb	r3, r3
 435 003e 8DF82230 		strb	r3, [sp, #34]
 474:source\asw/clock.c ****         if(time.hour.value%24 == 0)
 436              		.loc 1 474 0
 437 0042 1F4A     		ldr	r2, .L35+8
 438 0044 A2FB0312 		umull	r1, r2, r2, r3
 439 0048 1209     		lsrs	r2, r2, #4
 440 004a 02EB4202 		add	r2, r2, r2, lsl #1
 441 004e D100     		lsls	r1, r2, #3
 442 0050 5B1A     		subs	r3, r3, r1
 443 0052 13F0FF0F 		tst	r3, #255
 444 0056 02D1     		bne	.L29
 475:source\asw/clock.c ****         {
 476:source\asw/clock.c ****             time.hour.value = 0;
 445              		.loc 1 476 0
 446 0058 0023     		movs	r3, #0
 447 005a 8DF82230 		strb	r3, [sp, #34]
 448              	.L29:
 477:source\asw/clock.c ****         }
 478:source\asw/clock.c ****         time.minute.value = 0;
 449              		.loc 1 478 0
 450 005e 0023     		movs	r3, #0
 451 0060 8DF82E30 		strb	r3, [sp, #46]
 452              	.L28:
 453              	.LVL37:
 454 0064 6C46     		mov	r4, sp
 455 0066 06AD     		add	r5, sp, #24
 456 0068 0FCD     		ldmia	r5!, {r0, r1, r2, r3}
 457 006a 0FC4     		stmia	r4!, {r0, r1, r2, r3}
 458 006c 95E80300 		ldmia	r5, {r0, r1}
 459 0070 84E80300 		stmia	r4, {r0, r1}
 460              	.LVL38:
 461              	.LBB93:
 462              	.LBB94:
 316:.\source\rte/sc_control.h ****    signal->value  = value;
 463              		.loc 2 316 0
 464 0074 104E     		ldr	r6, .L35
 465 0076 376A     		ldr	r7, [r6, #32]
 317:.\source\rte/sc_control.h ****    signal->age    = 0;
 466              		.loc 2 317 0
 467 0078 3446     		mov	r4, r6
 468 007a 6D46     		mov	r5, sp
 469 007c 0FCD     		ldmia	r5!, {r0, r1, r2, r3}
 470 007e 0FC4     		stmia	r4!, {r0, r1, r2, r3}
 471 0080 95E80300 		ldmia	r5, {r0, r1}
 472 0084 84E80300 		stmia	r4, {r0, r1}
 318:.\source\rte/sc_control.h ****    signal->status = RTE_SIGNALSTATUS_VALID;
 473              		.loc 2 318 0
 474 0088 0023     		movs	r3, #0
 475 008a F361     		str	r3, [r6, #28]
 319:.\source\rte/sc_control.h ****    if (TRUE == signal->pSigCfg->resourceActive) ReleaseResource(signal->pSigCfg->resource);
 476              		.loc 2 319 0
ARM GAS  C:\Users\giris\AppData\Local\Temp\cceloVpD.s 			page 24


 477 008c 0223     		movs	r3, #2
 478 008e 3376     		strb	r3, [r6, #24]
 323:.\source\rte/sc_control.h **** 
 479              		.loc 2 323 0
 480 0090 7D69     		ldr	r5, [r7, #20]
 481              	.LVL39:
 325:.\source\rte/sc_control.h ****       for( taskNum=0 ; taskNum < signal->pSigCfg->onUpdateTaskCount ;taskNum++){
 482              		.loc 2 325 0
 483 0092 BB68     		ldr	r3, [r7, #8]
 484 0094 73B1     		cbz	r3, .L27
 485 0096 3DB9     		cbnz	r5, .L33
 486 0098 0CE0     		b	.L27
 487              	.LVL40:
 488              	.L32:
 489              	.LBB95:
 490              		.loc 2 329 0
 491 009a 9968     		ldr	r1, [r3, #8]
 492 009c 55F82400 		ldr	r0, [r5, r4, lsl #2]
 493 00a0 FFF7FEFF 		bl	EE_oo_SetEvent
 494              	.LVL41:
 495              	.LBE95:
 326:.\source\rte/sc_control.h **** 		  
 496              		.loc 2 326 0
 497 00a4 0134     		adds	r4, r4, #1
 498              	.LVL42:
 499 00a6 00E0     		b	.L31
 500              	.LVL43:
 501              	.L33:
 325:.\source\rte/sc_control.h ****       for( taskNum=0 ; taskNum < signal->pSigCfg->onUpdateTaskCount ;taskNum++){
 502              		.loc 2 325 0
 503 00a8 0024     		movs	r4, #0
 504              	.LVL44:
 505              	.L31:
 326:.\source\rte/sc_control.h **** 		  
 506              		.loc 2 326 0
 507 00aa 034B     		ldr	r3, .L35
 508 00ac 1B6A     		ldr	r3, [r3, #32]
 509 00ae 1A69     		ldr	r2, [r3, #16]
 510 00b0 9442     		cmp	r4, r2
 511 00b2 F2D3     		bcc	.L32
 512              	.LVL45:
 513              	.L27:
 514              	.LBE94:
 515              	.LBE93:
 479:source\asw/clock.c ****     }
 480:source\asw/clock.c ****     RTE_SC_CONTROL_set(&SO_CONTROL_signal, time);
 481:source\asw/clock.c **** }
 516              		.loc 1 481 0
 517 00b4 0DB0     		add	sp, sp, #52
 518              		.cfi_def_cfa_offset 20
 519              		@ sp needed
 520 00b6 F0BD     		pop	{r4, r5, r6, r7, pc}
 521              	.LVL46:
 522              	.L36:
 523              		.align	2
 524              	.L35:
 525 00b8 00000000 		.word	SO_CONTROL_signal
ARM GAS  C:\Users\giris\AppData\Local\Temp\cceloVpD.s 			page 25


 526 00bc 89888888 		.word	-2004318071
 527 00c0 ABAAAAAA 		.word	-1431655765
 528              		.cfi_endproc
 529              	.LFE161:
 530              		.size	CLOCK__updateTime, .-CLOCK__updateTime
 531              		.section	.text.CLOCK__Increment1Minute,"ax",%progbits
 532              		.align	2
 533              		.thumb
 534              		.thumb_func
 535              		.type	CLOCK__Increment1Minute, %function
 536              	CLOCK__Increment1Minute:
 537              	.LFB148:
 300:source\asw/clock.c **** //    UART_LOG_PutString("\nIn Increment1Minute Dispatch.....\n");
 538              		.loc 1 300 0
 539              		.cfi_startproc
 540              		@ args = 0, pretend = 0, frame = 0
 541              		@ frame_needed = 0, uses_anonymous_args = 0
 542 0000 08B5     		push	{r3, lr}
 543              		.cfi_def_cfa_offset 8
 544              		.cfi_offset 3, -8
 545              		.cfi_offset 14, -4
 303:source\asw/clock.c **** }
 546              		.loc 1 303 0
 547 0002 FFF7FEFF 		bl	CLOCK__updateTime
 548              	.LVL47:
 549 0006 08BD     		pop	{r3, pc}
 550              		.cfi_endproc
 551              	.LFE148:
 552              		.size	CLOCK__Increment1Minute, .-CLOCK__Increment1Minute
 553              		.section	.text.CLOCK__IncrementHourandDisplay,"ax",%progbits
 554              		.align	2
 555              		.thumb
 556              		.thumb_func
 557              		.type	CLOCK__IncrementHourandDisplay, %function
 558              	CLOCK__IncrementHourandDisplay:
 559              	.LFB162:
 482:source\asw/clock.c **** 
 483:source\asw/clock.c **** void CLOCK__IncrementHourandDisplay()
 484:source\asw/clock.c **** {
 560              		.loc 1 484 0
 561              		.cfi_startproc
 562              		@ args = 0, pretend = 0, frame = 48
 563              		@ frame_needed = 0, uses_anonymous_args = 0
 564 0000 F0B5     		push	{r4, r5, r6, r7, lr}
 565              		.cfi_def_cfa_offset 20
 566              		.cfi_offset 4, -20
 567              		.cfi_offset 5, -16
 568              		.cfi_offset 6, -12
 569              		.cfi_offset 7, -8
 570              		.cfi_offset 14, -4
 571 0002 8DB0     		sub	sp, sp, #52
 572              		.cfi_def_cfa_offset 72
 573              	.LVL48:
 574              	.LBB96:
 575              	.LBB97:
 277:.\source\rte/sc_control.h **** }                                                                                                  
 576              		.loc 2 277 0
ARM GAS  C:\Users\giris\AppData\Local\Temp\cceloVpD.s 			page 26


 577 0004 06AC     		add	r4, sp, #24
 578 0006 234D     		ldr	r5, .L46
 579 0008 0FCD     		ldmia	r5!, {r0, r1, r2, r3}
 580 000a 0FC4     		stmia	r4!, {r0, r1, r2, r3}
 581 000c 95E80300 		ldmia	r5, {r0, r1}
 582 0010 84E80300 		stmia	r4, {r0, r1}
 583              	.LVL49:
 584              	.LBE97:
 585              	.LBE96:
 485:source\asw/clock.c ****     SC_CONTROL_data_t   clock_hour  =   RTE_SC_CONTROL_get(&SO_CONTROL_signal);
 486:source\asw/clock.c ****     
 487:source\asw/clock.c ****     clock_hour.hour.value++;
 586              		.loc 1 487 0
 587 0014 9DF82230 		ldrb	r3, [sp, #34]	@ zero_extendqisi2
 588 0018 0133     		adds	r3, r3, #1
 589 001a DBB2     		uxtb	r3, r3
 590 001c 8DF82230 		strb	r3, [sp, #34]
 488:source\asw/clock.c ****     
 489:source\asw/clock.c ****     if(clock_hour.hour.value%24 == 0)
 591              		.loc 1 489 0
 592 0020 1D4A     		ldr	r2, .L46+4
 593 0022 A2FB0312 		umull	r1, r2, r2, r3
 594 0026 1209     		lsrs	r2, r2, #4
 595 0028 02EB4202 		add	r2, r2, r2, lsl #1
 596 002c D100     		lsls	r1, r2, #3
 597 002e 5B1A     		subs	r3, r3, r1
 598 0030 13F0FF0F 		tst	r3, #255
 599 0034 02D1     		bne	.L40
 490:source\asw/clock.c ****     {
 491:source\asw/clock.c ****         clock_hour.hour.value = 0;
 600              		.loc 1 491 0
 601 0036 0023     		movs	r3, #0
 602 0038 8DF82230 		strb	r3, [sp, #34]
 603              	.L40:
 492:source\asw/clock.c ****     }
 493:source\asw/clock.c ****     
 494:source\asw/clock.c **** //    char buffer[100];
 495:source\asw/clock.c **** //    itoa(clock_hour.hour.value, buffer, 10);
 496:source\asw/clock.c **** //    UART_LOG_PutString("Hour value: ");
 497:source\asw/clock.c **** //    UART_LOG_PutString(buffer);
 498:source\asw/clock.c **** //    UART_LOG_PutString("\n");
 499:source\asw/clock.c ****     
 500:source\asw/clock.c ****     CLOCK__updateDisplay();
 604              		.loc 1 500 0
 605 003c FFF7FEFF 		bl	CLOCK__updateDisplay
 606              	.LVL50:
 607 0040 6C46     		mov	r4, sp
 608 0042 06AD     		add	r5, sp, #24
 609 0044 0FCD     		ldmia	r5!, {r0, r1, r2, r3}
 610 0046 0FC4     		stmia	r4!, {r0, r1, r2, r3}
 611 0048 95E80300 		ldmia	r5, {r0, r1}
 612 004c 84E80300 		stmia	r4, {r0, r1}
 613              	.LVL51:
 614              	.LBB98:
 615              	.LBB99:
 316:.\source\rte/sc_control.h ****    signal->value  = value;
 616              		.loc 2 316 0
ARM GAS  C:\Users\giris\AppData\Local\Temp\cceloVpD.s 			page 27


 617 0050 104E     		ldr	r6, .L46
 618 0052 376A     		ldr	r7, [r6, #32]
 317:.\source\rte/sc_control.h ****    signal->age    = 0;
 619              		.loc 2 317 0
 620 0054 3446     		mov	r4, r6
 621 0056 6D46     		mov	r5, sp
 622 0058 0FCD     		ldmia	r5!, {r0, r1, r2, r3}
 623 005a 0FC4     		stmia	r4!, {r0, r1, r2, r3}
 624 005c 95E80300 		ldmia	r5, {r0, r1}
 625 0060 84E80300 		stmia	r4, {r0, r1}
 318:.\source\rte/sc_control.h ****    signal->status = RTE_SIGNALSTATUS_VALID;
 626              		.loc 2 318 0
 627 0064 0023     		movs	r3, #0
 628 0066 F361     		str	r3, [r6, #28]
 319:.\source\rte/sc_control.h ****    if (TRUE == signal->pSigCfg->resourceActive) ReleaseResource(signal->pSigCfg->resource);
 629              		.loc 2 319 0
 630 0068 0223     		movs	r3, #2
 631 006a 3376     		strb	r3, [r6, #24]
 323:.\source\rte/sc_control.h **** 
 632              		.loc 2 323 0
 633 006c 7D69     		ldr	r5, [r7, #20]
 634              	.LVL52:
 325:.\source\rte/sc_control.h ****       for( taskNum=0 ; taskNum < signal->pSigCfg->onUpdateTaskCount ;taskNum++){
 635              		.loc 2 325 0
 636 006e BB68     		ldr	r3, [r7, #8]
 637 0070 73B1     		cbz	r3, .L39
 638 0072 3DB9     		cbnz	r5, .L44
 639 0074 0CE0     		b	.L39
 640              	.LVL53:
 641              	.L43:
 642              	.LBB100:
 643              		.loc 2 329 0
 644 0076 9968     		ldr	r1, [r3, #8]
 645 0078 55F82400 		ldr	r0, [r5, r4, lsl #2]
 646 007c FFF7FEFF 		bl	EE_oo_SetEvent
 647              	.LVL54:
 648              	.LBE100:
 326:.\source\rte/sc_control.h **** 		  
 649              		.loc 2 326 0
 650 0080 0134     		adds	r4, r4, #1
 651              	.LVL55:
 652 0082 00E0     		b	.L42
 653              	.LVL56:
 654              	.L44:
 325:.\source\rte/sc_control.h ****       for( taskNum=0 ; taskNum < signal->pSigCfg->onUpdateTaskCount ;taskNum++){
 655              		.loc 2 325 0
 656 0084 0024     		movs	r4, #0
 657              	.LVL57:
 658              	.L42:
 326:.\source\rte/sc_control.h **** 		  
 659              		.loc 2 326 0
 660 0086 034B     		ldr	r3, .L46
 661 0088 1B6A     		ldr	r3, [r3, #32]
 662 008a 1A69     		ldr	r2, [r3, #16]
 663 008c 9442     		cmp	r4, r2
 664 008e F2D3     		bcc	.L43
 665              	.LVL58:
ARM GAS  C:\Users\giris\AppData\Local\Temp\cceloVpD.s 			page 28


 666              	.L39:
 667              	.LBE99:
 668              	.LBE98:
 501:source\asw/clock.c ****     
 502:source\asw/clock.c ****     RTE_SC_CONTROL_set(&SO_CONTROL_signal, clock_hour);
 503:source\asw/clock.c **** }
 669              		.loc 1 503 0
 670 0090 0DB0     		add	sp, sp, #52
 671              		.cfi_def_cfa_offset 20
 672              		@ sp needed
 673 0092 F0BD     		pop	{r4, r5, r6, r7, pc}
 674              	.LVL59:
 675              	.L47:
 676              		.align	2
 677              	.L46:
 678 0094 00000000 		.word	SO_CONTROL_signal
 679 0098 ABAAAAAA 		.word	-1431655765
 680              		.cfi_endproc
 681              	.LFE162:
 682              		.size	CLOCK__IncrementHourandDisplay, .-CLOCK__IncrementHourandDisplay
 683              		.section	.text.CLOCK__IncrementMinuteandDisplay,"ax",%progbits
 684              		.align	2
 685              		.thumb
 686              		.thumb_func
 687              		.type	CLOCK__IncrementMinuteandDisplay, %function
 688              	CLOCK__IncrementMinuteandDisplay:
 689              	.LFB163:
 504:source\asw/clock.c **** 
 505:source\asw/clock.c **** void CLOCK__IncrementMinuteandDisplay()
 506:source\asw/clock.c **** {
 690              		.loc 1 506 0
 691              		.cfi_startproc
 692              		@ args = 0, pretend = 0, frame = 48
 693              		@ frame_needed = 0, uses_anonymous_args = 0
 694 0000 F0B5     		push	{r4, r5, r6, r7, lr}
 695              		.cfi_def_cfa_offset 20
 696              		.cfi_offset 4, -20
 697              		.cfi_offset 5, -16
 698              		.cfi_offset 6, -12
 699              		.cfi_offset 7, -8
 700              		.cfi_offset 14, -4
 701 0002 8DB0     		sub	sp, sp, #52
 702              		.cfi_def_cfa_offset 72
 703              	.LVL60:
 704              	.LBB101:
 705              	.LBB102:
 277:.\source\rte/sc_control.h **** }                                                                                                  
 706              		.loc 2 277 0
 707 0004 06AC     		add	r4, sp, #24
 708 0006 244D     		ldr	r5, .L55
 709 0008 0FCD     		ldmia	r5!, {r0, r1, r2, r3}
 710 000a 0FC4     		stmia	r4!, {r0, r1, r2, r3}
 711 000c 95E80300 		ldmia	r5, {r0, r1}
 712 0010 84E80300 		stmia	r4, {r0, r1}
 713              	.LVL61:
 714              	.LBE102:
 715              	.LBE101:
ARM GAS  C:\Users\giris\AppData\Local\Temp\cceloVpD.s 			page 29


 507:source\asw/clock.c ****     SC_CONTROL_data_t   clock_minute  =   RTE_SC_CONTROL_get(&SO_CONTROL_signal);
 508:source\asw/clock.c ****         
 509:source\asw/clock.c ****     clock_minute.minute.value++;
 716              		.loc 1 509 0
 717 0014 9DF82E30 		ldrb	r3, [sp, #46]	@ zero_extendqisi2
 718 0018 0133     		adds	r3, r3, #1
 719 001a DBB2     		uxtb	r3, r3
 720 001c 8DF82E30 		strb	r3, [sp, #46]
 510:source\asw/clock.c ****     
 511:source\asw/clock.c ****     if(clock_minute.minute.value%60 == 0)
 721              		.loc 1 511 0
 722 0020 1E4A     		ldr	r2, .L55+4
 723 0022 A2FB0312 		umull	r1, r2, r2, r3
 724 0026 5209     		lsrs	r2, r2, #5
 725 0028 C2EB0212 		rsb	r2, r2, r2, lsl #4
 726 002c 9100     		lsls	r1, r2, #2
 727 002e 5B1A     		subs	r3, r3, r1
 728 0030 13F0FF0F 		tst	r3, #255
 729 0034 04D1     		bne	.L49
 512:source\asw/clock.c ****     {
 513:source\asw/clock.c ****         clock_minute.minute.value = 0;
 730              		.loc 1 513 0
 731 0036 0023     		movs	r3, #0
 732 0038 8DF82E30 		strb	r3, [sp, #46]
 514:source\asw/clock.c ****         CLOCK__IncrementHourandDisplay();
 733              		.loc 1 514 0
 734 003c FFF7FEFF 		bl	CLOCK__IncrementHourandDisplay
 735              	.LVL62:
 736              	.L49:
 515:source\asw/clock.c ****     }
 516:source\asw/clock.c ****     
 517:source\asw/clock.c **** //    char buffer[100];
 518:source\asw/clock.c **** //    itoa(clock_minute.minute.value, buffer, 10);
 519:source\asw/clock.c **** //    UART_LOG_PutString("Minute value: ");
 520:source\asw/clock.c **** //    UART_LOG_PutString(buffer);
 521:source\asw/clock.c **** //    UART_LOG_PutString("\n");
 522:source\asw/clock.c ****     
 523:source\asw/clock.c ****     CLOCK__updateDisplay();
 737              		.loc 1 523 0
 738 0040 FFF7FEFF 		bl	CLOCK__updateDisplay
 739              	.LVL63:
 740 0044 6C46     		mov	r4, sp
 741 0046 06AD     		add	r5, sp, #24
 742 0048 0FCD     		ldmia	r5!, {r0, r1, r2, r3}
 743 004a 0FC4     		stmia	r4!, {r0, r1, r2, r3}
 744 004c 95E80300 		ldmia	r5, {r0, r1}
 745 0050 84E80300 		stmia	r4, {r0, r1}
 746              	.LVL64:
 747              	.LBB103:
 748              	.LBB104:
 316:.\source\rte/sc_control.h ****    signal->value  = value;
 749              		.loc 2 316 0
 750 0054 104E     		ldr	r6, .L55
 751 0056 376A     		ldr	r7, [r6, #32]
 317:.\source\rte/sc_control.h ****    signal->age    = 0;
 752              		.loc 2 317 0
 753 0058 3446     		mov	r4, r6
ARM GAS  C:\Users\giris\AppData\Local\Temp\cceloVpD.s 			page 30


 754 005a 6D46     		mov	r5, sp
 755 005c 0FCD     		ldmia	r5!, {r0, r1, r2, r3}
 756 005e 0FC4     		stmia	r4!, {r0, r1, r2, r3}
 757 0060 95E80300 		ldmia	r5, {r0, r1}
 758 0064 84E80300 		stmia	r4, {r0, r1}
 318:.\source\rte/sc_control.h ****    signal->status = RTE_SIGNALSTATUS_VALID;
 759              		.loc 2 318 0
 760 0068 0023     		movs	r3, #0
 761 006a F361     		str	r3, [r6, #28]
 319:.\source\rte/sc_control.h ****    if (TRUE == signal->pSigCfg->resourceActive) ReleaseResource(signal->pSigCfg->resource);
 762              		.loc 2 319 0
 763 006c 0223     		movs	r3, #2
 764 006e 3376     		strb	r3, [r6, #24]
 323:.\source\rte/sc_control.h **** 
 765              		.loc 2 323 0
 766 0070 7D69     		ldr	r5, [r7, #20]
 767              	.LVL65:
 325:.\source\rte/sc_control.h ****       for( taskNum=0 ; taskNum < signal->pSigCfg->onUpdateTaskCount ;taskNum++){
 768              		.loc 2 325 0
 769 0072 BB68     		ldr	r3, [r7, #8]
 770 0074 73B1     		cbz	r3, .L48
 771 0076 3DB9     		cbnz	r5, .L53
 772 0078 0CE0     		b	.L48
 773              	.LVL66:
 774              	.L52:
 775              	.LBB105:
 776              		.loc 2 329 0
 777 007a 9968     		ldr	r1, [r3, #8]
 778 007c 55F82400 		ldr	r0, [r5, r4, lsl #2]
 779 0080 FFF7FEFF 		bl	EE_oo_SetEvent
 780              	.LVL67:
 781              	.LBE105:
 326:.\source\rte/sc_control.h **** 		  
 782              		.loc 2 326 0
 783 0084 0134     		adds	r4, r4, #1
 784              	.LVL68:
 785 0086 00E0     		b	.L51
 786              	.LVL69:
 787              	.L53:
 325:.\source\rte/sc_control.h ****       for( taskNum=0 ; taskNum < signal->pSigCfg->onUpdateTaskCount ;taskNum++){
 788              		.loc 2 325 0
 789 0088 0024     		movs	r4, #0
 790              	.LVL70:
 791              	.L51:
 326:.\source\rte/sc_control.h **** 		  
 792              		.loc 2 326 0
 793 008a 034B     		ldr	r3, .L55
 794 008c 1B6A     		ldr	r3, [r3, #32]
 795 008e 1A69     		ldr	r2, [r3, #16]
 796 0090 9442     		cmp	r4, r2
 797 0092 F2D3     		bcc	.L52
 798              	.LVL71:
 799              	.L48:
 800              	.LBE104:
 801              	.LBE103:
 524:source\asw/clock.c ****     
 525:source\asw/clock.c ****     RTE_SC_CONTROL_set(&SO_CONTROL_signal, clock_minute);
ARM GAS  C:\Users\giris\AppData\Local\Temp\cceloVpD.s 			page 31


 526:source\asw/clock.c **** }
 802              		.loc 1 526 0
 803 0094 0DB0     		add	sp, sp, #52
 804              		.cfi_def_cfa_offset 20
 805              		@ sp needed
 806 0096 F0BD     		pop	{r4, r5, r6, r7, pc}
 807              	.LVL72:
 808              	.L56:
 809              		.align	2
 810              	.L55:
 811 0098 00000000 		.word	SO_CONTROL_signal
 812 009c 89888888 		.word	-2004318071
 813              		.cfi_endproc
 814              	.LFE163:
 815              		.size	CLOCK__IncrementMinuteandDisplay, .-CLOCK__IncrementMinuteandDisplay
 816              		.section	.text.CLOCK__incrementWidget,"ax",%progbits
 817              		.align	2
 818              		.thumb
 819              		.thumb_func
 820              		.type	CLOCK__incrementWidget, %function
 821              	CLOCK__incrementWidget:
 822              	.LFB157:
 383:source\asw/clock.c **** //    UART_LOG_PutString("\nIn increment widget Dispatch.....\n");
 823              		.loc 1 383 0
 824              		.cfi_startproc
 825              		@ args = 0, pretend = 0, frame = 72
 826              		@ frame_needed = 0, uses_anonymous_args = 0
 827 0000 00B5     		push	{lr}
 828              		.cfi_def_cfa_offset 4
 829              		.cfi_offset 14, -4
 830 0002 93B0     		sub	sp, sp, #76
 831              		.cfi_def_cfa_offset 80
 832              	.LVL73:
 833              	.LBB106:
 834              	.LBB107:
 835              		.file 3 ".\\source\\rte/sc_input.h"
   1:.\source\rte/sc_input.h **** 
   2:.\source\rte/sc_input.h **** 
   3:.\source\rte/sc_input.h **** /**
   4:.\source\rte/sc_input.h ****  *  file    SC_INPUT_signal.h
   5:.\source\rte/sc_input.h ****  *
   6:.\source\rte/sc_input.h ****  *  brief   signal base class for signal sc_input
   7:.\source\rte/sc_input.h ****  *
   8:.\source\rte/sc_input.h ****  *  author  Autogenerated, Peter Fromm       <peter.fromm@h-da.de>
   9:.\source\rte/sc_input.h ****  *
  10:.\source\rte/sc_input.h ****  * description: Signalclass
  11:.\source\rte/sc_input.h ****  * name: sc_input
  12:.\source\rte/sc_input.h ****  * shortname: input
  13:.\source\rte/sc_input.h ****  *
  14:.\source\rte/sc_input.h ****  */
  15:.\source\rte/sc_input.h **** 
  16:.\source\rte/sc_input.h **** 
  17:.\source\rte/sc_input.h **** 
  18:.\source\rte/sc_input.h **** #ifndef SC_INPUT_SIGNAL_H_INCLUDED
  19:.\source\rte/sc_input.h **** #define SC_INPUT_SIGNAL_H_INCLUDED
  20:.\source\rte/sc_input.h **** 
  21:.\source\rte/sc_input.h **** /*================================================[ public includes  ]=============================
ARM GAS  C:\Users\giris\AppData\Local\Temp\cceloVpD.s 			page 32


  22:.\source\rte/sc_input.h **** #include "global.h"
  23:.\source\rte/sc_input.h **** #include "project.h"
  24:.\source\rte/sc_input.h **** #include "rte.h"
  25:.\source\rte/sc_input.h **** #include "rte_types.h"
  26:.\source\rte/sc_input.h **** 
  27:.\source\rte/sc_input.h **** #include "sc_input_type.h"
  28:.\source\rte/sc_input.h **** 
  29:.\source\rte/sc_input.h **** 
  30:.\source\rte/sc_input.h **** /**************************************************************************************************
  31:.\source\rte/sc_input.h **** /* The driver API block																						*/
  32:.\source\rte/sc_input.h **** /**************************************************************************************************
  33:.\source\rte/sc_input.h ****                                                                                                    
  34:.\source\rte/sc_input.h **** /**
  35:.\source\rte/sc_input.h ****  *  Definition of function types for driver interfaces.
  36:.\source\rte/sc_input.h ****  *  I-Port
  37:.\source\rte/sc_input.h ****  */
  38:.\source\rte/sc_input.h **** typedef RC_t (*SC_INPUT_driverIn_t)(SC_INPUT_data_t * const);
  39:.\source\rte/sc_input.h **** 
  40:.\source\rte/sc_input.h **** /**
  41:.\source\rte/sc_input.h ****  *  Definition of function types for driver interfaces.
  42:.\source\rte/sc_input.h ****  *  O-Port
  43:.\source\rte/sc_input.h ****  */
  44:.\source\rte/sc_input.h **** typedef RC_t (*SC_INPUT_driverOut_t)( const SC_INPUT_data_t * const);
  45:.\source\rte/sc_input.h **** 
  46:.\source\rte/sc_input.h **** 
  47:.\source\rte/sc_input.h **** /**************************************************************************************************
  48:.\source\rte/sc_input.h **** /* The signal configuration API block																				*/
  49:.\source\rte/sc_input.h **** /**************************************************************************************************
  50:.\source\rte/sc_input.h **** 
  51:.\source\rte/sc_input.h **** /**
  52:.\source\rte/sc_input.h ****  * Instances of the struct SC_INPUT_cfg_t represent the signal object configuration.
  53:.\source\rte/sc_input.h ****  */
  54:.\source\rte/sc_input.h **** struct SC_INPUT_cfg_s
  55:.\source\rte/sc_input.h **** {
  56:.\source\rte/sc_input.h ****     /**
  57:.\source\rte/sc_input.h ****      * Function pointer to the input driver
  58:.\source\rte/sc_input.h ****      */
  59:.\source\rte/sc_input.h ****     SC_INPUT_driverIn_t const inDriver;
  60:.\source\rte/sc_input.h **** 
  61:.\source\rte/sc_input.h ****     /**
  62:.\source\rte/sc_input.h ****      * Function pointer to the output driver table
  63:.\source\rte/sc_input.h ****      */
  64:.\source\rte/sc_input.h ****    SC_INPUT_driverOut_t const outDriver;
  65:.\source\rte/sc_input.h ****    
  66:.\source\rte/sc_input.h ****     /**
  67:.\source\rte/sc_input.h ****      * Event onUpdate
  68:.\source\rte/sc_input.h ****      */
  69:.\source\rte/sc_input.h ****     EventMaskType const evOnUpdate;
  70:.\source\rte/sc_input.h ****     
  71:.\source\rte/sc_input.h ****     
  72:.\source\rte/sc_input.h ****     /**
  73:.\source\rte/sc_input.h ****      * Event onError
  74:.\source\rte/sc_input.h ****      */
  75:.\source\rte/sc_input.h ****     EventMaskType const evOnError;
  76:.\source\rte/sc_input.h ****     
  77:.\source\rte/sc_input.h ****     /**
  78:.\source\rte/sc_input.h ****      * Task Count onUpdate
ARM GAS  C:\Users\giris\AppData\Local\Temp\cceloVpD.s 			page 33


  79:.\source\rte/sc_input.h ****      */
  80:.\source\rte/sc_input.h ****     size_t const onUpdateTaskCount;
  81:.\source\rte/sc_input.h **** 
  82:.\source\rte/sc_input.h ****     /**
  83:.\source\rte/sc_input.h ****      * Task List onUpdate
  84:.\source\rte/sc_input.h ****      */
  85:.\source\rte/sc_input.h ****     TaskTypeArray* const onUpdateTasks;
  86:.\source\rte/sc_input.h ****     
  87:.\source\rte/sc_input.h ****     /**
  88:.\source\rte/sc_input.h ****      * Task Count onError
  89:.\source\rte/sc_input.h ****      */
  90:.\source\rte/sc_input.h ****     size_t const onErrorTaskCount;
  91:.\source\rte/sc_input.h **** 
  92:.\source\rte/sc_input.h ****     /**
  93:.\source\rte/sc_input.h ****      * Task List onError
  94:.\source\rte/sc_input.h ****      */
  95:.\source\rte/sc_input.h ****     TaskTypeArray* const onErrorTasks;
  96:.\source\rte/sc_input.h **** 	
  97:.\source\rte/sc_input.h **** 	
  98:.\source\rte/sc_input.h **** 	/**
  99:.\source\rte/sc_input.h **** 	 * Ressourse is active? We need an additional boolean as a ressource value 0 is valid.
 100:.\source\rte/sc_input.h **** 	 */
 101:.\source\rte/sc_input.h **** 	 boolean_t const resourceActive;
 102:.\source\rte/sc_input.h **** 	 
 103:.\source\rte/sc_input.h **** 	/**
 104:.\source\rte/sc_input.h **** 	 * Ressourse 
 105:.\source\rte/sc_input.h **** 	 */
 106:.\source\rte/sc_input.h **** 	 ResourceType const resource;
 107:.\source\rte/sc_input.h **** 
 108:.\source\rte/sc_input.h **** };                                                                                                 
 109:.\source\rte/sc_input.h **** typedef const struct SC_INPUT_cfg_s SC_INPUT_cfg_t;
 110:.\source\rte/sc_input.h ****                               
 111:.\source\rte/sc_input.h **** /**************************************************************************************************
 112:.\source\rte/sc_input.h **** /* The data interface block																							*/
 113:.\source\rte/sc_input.h **** /**************************************************************************************************
 114:.\source\rte/sc_input.h **** 
 115:.\source\rte/sc_input.h ****                                                                                                    
 116:.\source\rte/sc_input.h **** 							  
 117:.\source\rte/sc_input.h **** /**
 118:.\source\rte/sc_input.h ****  * Instances of the struct SC_INPUT_t represent the signal objects.
 119:.\source\rte/sc_input.h ****  * A signal object contains the current application value 'value' as well as relevant meta data.
 120:.\source\rte/sc_input.h ****  */
 121:.\source\rte/sc_input.h **** struct SC_INPUT_s
 122:.\source\rte/sc_input.h **** {                                                                                                  
 123:.\source\rte/sc_input.h **** 
 124:.\source\rte/sc_input.h **** 	/**
 125:.\source\rte/sc_input.h **** 	 * Data buffer for the application value
 126:.\source\rte/sc_input.h **** 	 */
 127:.\source\rte/sc_input.h ****     SC_INPUT_data_t value;
 128:.\source\rte/sc_input.h **** 
 129:.\source\rte/sc_input.h ****     /**
 130:.\source\rte/sc_input.h ****      * Current signal status
 131:.\source\rte/sc_input.h ****      */
 132:.\source\rte/sc_input.h ****     RTE_signalStatus_t status;
 133:.\source\rte/sc_input.h **** 
 134:.\source\rte/sc_input.h ****     /**
 135:.\source\rte/sc_input.h ****      * Current age of the signal (in calling cycles)
ARM GAS  C:\Users\giris\AppData\Local\Temp\cceloVpD.s 			page 34


 136:.\source\rte/sc_input.h ****      */
 137:.\source\rte/sc_input.h ****     uint32_t age;
 138:.\source\rte/sc_input.h **** 
 139:.\source\rte/sc_input.h ****     /**
 140:.\source\rte/sc_input.h ****      * Pointer to the signal configuration
 141:.\source\rte/sc_input.h ****      */
 142:.\source\rte/sc_input.h **** 	const SC_INPUT_cfg_t * const    pSigCfg;
 143:.\source\rte/sc_input.h **** 
 144:.\source\rte/sc_input.h **** };                                                                                                 
 145:.\source\rte/sc_input.h **** typedef struct SC_INPUT_s SC_INPUT_t;
 146:.\source\rte/sc_input.h **** 
 147:.\source\rte/sc_input.h **** /**************************************************************************************************
 148:.\source\rte/sc_input.h **** /* Signal initialisation   																							*/
 149:.\source\rte/sc_input.h **** /**************************************************************************************************
 150:.\source\rte/sc_input.h **** 
 151:.\source\rte/sc_input.h **** /**
 152:.\source\rte/sc_input.h ****  * Initializes a signal instance with a passed init value.
 153:.\source\rte/sc_input.h ****  * Depending on the configured conversion or scaling function the raw_value will be calculated.
 154:.\source\rte/sc_input.h ****  * Signal status will change from RTE_SIGNALSTATUS_STARTUP to RTE_SIGNALSTATUS_INITIALIZED.
 155:.\source\rte/sc_input.h ****  *
 156:.\source\rte/sc_input.h ****  * @param  SC_INPUT_t * const signal: Pointer to the signal object which will be initialised
 157:.\source\rte/sc_input.h ****  * @return RC_t: standard return code, currently only RC_SUCCESS
 158:.\source\rte/sc_input.h ****  *
 159:.\source\rte/sc_input.h ****  **/
 160:.\source\rte/sc_input.h **** inline RC_t RTE_SC_INPUT_init( SC_INPUT_t * const signal )
 161:.\source\rte/sc_input.h **** {                                                                                                  
 162:.\source\rte/sc_input.h **** 
 163:.\source\rte/sc_input.h ****    RC_t ret = RC_SUCCESS;
 164:.\source\rte/sc_input.h **** 
 165:.\source\rte/sc_input.h ****    //Set value and raw value
 166:.\source\rte/sc_input.h ****    signal->value  = SC_INPUT_INIT_DATA;
 167:.\source\rte/sc_input.h ****    signal->age    = 0;
 168:.\source\rte/sc_input.h ****    signal->status = RTE_SIGNALSTATUS_INITIALIZED;
 169:.\source\rte/sc_input.h **** 
 170:.\source\rte/sc_input.h ****    return ret;
 171:.\source\rte/sc_input.h **** }
 172:.\source\rte/sc_input.h **** 
 173:.\source\rte/sc_input.h **** /**************************************************************************************************
 174:.\source\rte/sc_input.h **** /* Status and timeout control																						*/
 175:.\source\rte/sc_input.h **** /**************************************************************************************************
 176:.\source\rte/sc_input.h **** 
 177:.\source\rte/sc_input.h **** /**
 178:.\source\rte/sc_input.h ****  *  Returns the current signal status of the passed signal instance.
 179:.\source\rte/sc_input.h ****  *
 180:.\source\rte/sc_input.h ****  * @param  SC_INPUT_t * const signal: Pointer to the signal object
 181:.\source\rte/sc_input.h ****  * @return  sig_status_t: The current signal status
 182:.\source\rte/sc_input.h ****  *
 183:.\source\rte/sc_input.h ****  **/
 184:.\source\rte/sc_input.h **** inline RTE_signalStatus_t RTE_SC_INPUT_getStatus( const SC_INPUT_t * const signal )
 185:.\source\rte/sc_input.h **** {
 186:.\source\rte/sc_input.h ****    return signal->status;
 187:.\source\rte/sc_input.h **** }
 188:.\source\rte/sc_input.h **** 
 189:.\source\rte/sc_input.h **** 
 190:.\source\rte/sc_input.h **** /**
 191:.\source\rte/sc_input.h ****  *  Sets a new signal status of the passed signal instance by passing the new status.
 192:.\source\rte/sc_input.h ****  *
ARM GAS  C:\Users\giris\AppData\Local\Temp\cceloVpD.s 			page 35


 193:.\source\rte/sc_input.h ****  * @param  SC_INPUT_t * const signal: Pointer to the signal object
 194:.\source\rte/sc_input.h ****  * @param  const sig_status_t status: New signal status
 195:.\source\rte/sc_input.h ****  * @return RC_t: standard return code, currently only RC_SUCCESS
 196:.\source\rte/sc_input.h ****  *
 197:.\source\rte/sc_input.h ****  */
 198:.\source\rte/sc_input.h **** inline RC_t RTE_SC_INPUT_setStatus( SC_INPUT_t * const signal, const RTE_signalStatus_t status )
 199:.\source\rte/sc_input.h **** {
 200:.\source\rte/sc_input.h ****    signal->status = status;
 201:.\source\rte/sc_input.h ****    size_t taskNum=0;
 202:.\source\rte/sc_input.h ****    
 203:.\source\rte/sc_input.h ****    //Fire error events in case of invalid state
 204:.\source\rte/sc_input.h ****    if (signal->status == RTE_SIGNALSTATUS_INVALID)
 205:.\source\rte/sc_input.h ****    {
 206:.\source\rte/sc_input.h **** 	    //Pointer to the Taskarray, containing the tasks receiving the onUpdate events
 207:.\source\rte/sc_input.h **** 		TaskTypeArray* pTaskArray = signal->pSigCfg->onErrorTasks;
 208:.\source\rte/sc_input.h **** 
 209:.\source\rte/sc_input.h **** 		if (0 != signal->pSigCfg->evOnError && NULL != pTaskArray){
 210:.\source\rte/sc_input.h **** 			for( taskNum=0 ; taskNum < signal->pSigCfg->onErrorTaskCount ;taskNum++){
 211:.\source\rte/sc_input.h **** 				TaskType task = (*pTaskArray)[taskNum];
 212:.\source\rte/sc_input.h **** 				SetEvent( task, signal->pSigCfg->evOnError);
 213:.\source\rte/sc_input.h **** 			}
 214:.\source\rte/sc_input.h **** 		}
 215:.\source\rte/sc_input.h ****    }
 216:.\source\rte/sc_input.h ****    
 217:.\source\rte/sc_input.h ****    return RC_SUCCESS;
 218:.\source\rte/sc_input.h **** }
 219:.\source\rte/sc_input.h **** 
 220:.\source\rte/sc_input.h **** 
 221:.\source\rte/sc_input.h **** /**
 222:.\source\rte/sc_input.h ****  * Returns the count of refreshing trials (refresh, set or set_raw) that failed.
 223:.\source\rte/sc_input.h ****  * Prerquisite: The signal is refreshed cyclically
 224:.\source\rte/sc_input.h ****  *
 225:.\source\rte/sc_input.h ****  * @param  SC_INPUT_t * const signal: Pointer to the signal object
 226:.\source\rte/sc_input.h ****  * @return uint32_t: Number of cycles since the signal has been updated for the last time
 227:.\source\rte/sc_input.h ****  */
 228:.\source\rte/sc_input.h **** inline uint32_t RTE_SC_INPUT_getAge( const SC_INPUT_t * const signal )
 229:.\source\rte/sc_input.h **** {
 230:.\source\rte/sc_input.h ****    return signal->age;
 231:.\source\rte/sc_input.h **** }
 232:.\source\rte/sc_input.h **** 
 233:.\source\rte/sc_input.h **** /**
 234:.\source\rte/sc_input.h ****  * Should be called by application or driver if no new value can be provided.
 235:.\source\rte/sc_input.h ****  * @param  SC_INPUT_t * const signal: Pointer to the signal object
 236:.\source\rte/sc_input.h ****  * @param uint32_t increment: incrementvalue, typically in [ms]
 237:.\source\rte/sc_input.h ****  * @return void
 238:.\source\rte/sc_input.h ****  */
 239:.\source\rte/sc_input.h **** inline void RTE_SC_INPUT_incAge(  SC_INPUT_t * const signal , uint32_t increment)
 240:.\source\rte/sc_input.h **** {
 241:.\source\rte/sc_input.h **** 	   //Hack....
 242:.\source\rte/sc_input.h **** 	   if ( 0xFFFF0000 > (signal->age + increment) )
 243:.\source\rte/sc_input.h **** 	   {
 244:.\source\rte/sc_input.h **** 	      signal->age += increment;
 245:.\source\rte/sc_input.h **** 	   }
 246:.\source\rte/sc_input.h **** }
 247:.\source\rte/sc_input.h **** 
 248:.\source\rte/sc_input.h **** 
 249:.\source\rte/sc_input.h **** /**************************************************************************************************
ARM GAS  C:\Users\giris\AppData\Local\Temp\cceloVpD.s 			page 36


 250:.\source\rte/sc_input.h **** /* Application Data read/write Interface																			*/
 251:.\source\rte/sc_input.h **** /**************************************************************************************************
 252:.\source\rte/sc_input.h **** 
 253:.\source\rte/sc_input.h **** /**
 254:.\source\rte/sc_input.h ****  * Returns the current application value as pointer to the signal payload.
 255:.\source\rte/sc_input.h ****  * Careful: This is not threadsafe!!!
 256:.\source\rte/sc_input.h ****  *
 257:.\source\rte/sc_input.h ****  * @param  SC_INPUT_t * const signal: Pointer to the signal object
 258:.\source\rte/sc_input.h ****  * @return sc_input_data_t*: pointer to the current value of the application data buffer
 259:.\source\rte/sc_input.h ****  *
 260:.\source\rte/sc_input.h ****  **/
 261:.\source\rte/sc_input.h **** inline SC_INPUT_data_t* RTE_SC_INPUT_getPtr( SC_INPUT_t * const signal )
 262:.\source\rte/sc_input.h **** {               
 263:.\source\rte/sc_input.h ****    //Todo: Critical region cannot be protected using return values																						
 264:.\source\rte/sc_input.h ****    return &(signal->value);                                                                        
 265:.\source\rte/sc_input.h **** }
 266:.\source\rte/sc_input.h **** 
 267:.\source\rte/sc_input.h **** /**
 268:.\source\rte/sc_input.h ****  * Returns the current application value of the passed signal instance.
 269:.\source\rte/sc_input.h ****  *
 270:.\source\rte/sc_input.h ****  * @param  SC_INPUT_t * const signal: Pointer to the signal object
 271:.\source\rte/sc_input.h ****  * @return sc_input_data_t: current value of the application data buffer
 272:.\source\rte/sc_input.h ****  *
 273:.\source\rte/sc_input.h ****  **/
 274:.\source\rte/sc_input.h **** inline SC_INPUT_data_t RTE_SC_INPUT_get( const SC_INPUT_t * const signal )
 275:.\source\rte/sc_input.h **** {               
 276:.\source\rte/sc_input.h ****    //Todo: Critical region cannot be protected using return values																						
 277:.\source\rte/sc_input.h ****    return signal->value;                                                                           
 836              		.loc 3 277 0
 837 0004 4422     		movs	r2, #68
 838 0006 0849     		ldr	r1, .L61
 839 0008 01A8     		add	r0, sp, #4
 840 000a FFF7FEFF 		bl	memcpy
 841              	.LVL74:
 842              	.LBE107:
 843              	.LBE106:
 388:source\asw/clock.c ****     {
 844              		.loc 1 388 0
 845 000e 9DF81430 		ldrb	r3, [sp, #20]	@ zero_extendqisi2
 846 0012 13B9     		cbnz	r3, .L58
 391:source\asw/clock.c ****     }
 847              		.loc 1 391 0
 848 0014 FFF7FEFF 		bl	CLOCK__IncrementHourandDisplay
 849              	.LVL75:
 850 0018 03E0     		b	.L57
 851              	.L58:
 393:source\asw/clock.c ****     {
 852              		.loc 1 393 0
 853 001a 012B     		cmp	r3, #1
 854 001c 01D1     		bne	.L57
 396:source\asw/clock.c ****     }
 855              		.loc 1 396 0
 856 001e FFF7FEFF 		bl	CLOCK__IncrementMinuteandDisplay
 857              	.LVL76:
 858              	.L57:
 399:source\asw/clock.c **** 
 859              		.loc 1 399 0
ARM GAS  C:\Users\giris\AppData\Local\Temp\cceloVpD.s 			page 37


 860 0022 13B0     		add	sp, sp, #76
 861              		.cfi_def_cfa_offset 4
 862              		@ sp needed
 863 0024 5DF804FB 		ldr	pc, [sp], #4
 864              	.L62:
 865              		.align	2
 866              	.L61:
 867 0028 00000000 		.word	SO_INPUTEVENT_signal
 868              		.cfi_endproc
 869              	.LFE157:
 870              		.size	CLOCK__incrementWidget, .-CLOCK__incrementWidget
 871              		.section	.text.CLOCK__Dispatch_Wrapper,"ax",%progbits
 872              		.align	2
 873              		.thumb
 874              		.thumb_func
 875              		.type	CLOCK__Dispatch_Wrapper, %function
 876              	CLOCK__Dispatch_Wrapper:
 877              	.LFB146:
 234:source\asw/clock.c ****     SC_INPUT_data_t clock = RTE_SC_INPUT_get(&SO_INPUTEVENT_signal);
 878              		.loc 1 234 0
 879              		.cfi_startproc
 880              		@ args = 0, pretend = 0, frame = 408
 881              		@ frame_needed = 0, uses_anonymous_args = 0
 882              	.LVL77:
 883 0000 2DE9F043 		push	{r4, r5, r6, r7, r8, r9, lr}
 884              		.cfi_def_cfa_offset 28
 885              		.cfi_offset 4, -28
 886              		.cfi_offset 5, -24
 887              		.cfi_offset 6, -20
 888              		.cfi_offset 7, -16
 889              		.cfi_offset 8, -12
 890              		.cfi_offset 9, -8
 891              		.cfi_offset 14, -4
 892 0004 E9B0     		sub	sp, sp, #420
 893              		.cfi_def_cfa_offset 448
 894 0006 0746     		mov	r7, r0
 895 0008 0E46     		mov	r6, r1
 896              	.LVL78:
 897              	.LBB108:
 898              	.LBB109:
 899              		.loc 3 277 0
 900 000a 5D4C     		ldr	r4, .L79
 901 000c 4425     		movs	r5, #68
 902 000e 2A46     		mov	r2, r5
 903 0010 2146     		mov	r1, r4
 904              	.LVL79:
 905 0012 57A8     		add	r0, sp, #348
 906              	.LVL80:
 907 0014 FFF7FEFF 		bl	memcpy
 908              	.LVL81:
 909              	.LBE109:
 910              	.LBE108:
 237:source\asw/clock.c ****     
 911              		.loc 1 237 0
 912 0018 4FF00009 		mov	r9, #0
 913 001c 8DF85E91 		strb	r9, [sp, #350]
 239:source\asw/clock.c ****     
ARM GAS  C:\Users\giris\AppData\Local\Temp\cceloVpD.s 			page 38


 914              		.loc 1 239 0
 915 0020 8DF86C61 		strb	r6, [sp, #364]
 916              	.LVL82:
 917 0024 2A46     		mov	r2, r5
 918 0026 57A9     		add	r1, sp, #348
 919 0028 02A8     		add	r0, sp, #8
 920 002a FFF7FEFF 		bl	memcpy
 921              	.LVL83:
 922              	.LBB110:
 923              	.LBB111:
 278:.\source\rte/sc_input.h **** }                                                                                                  
 279:.\source\rte/sc_input.h ****                                                                                                    
 280:.\source\rte/sc_input.h **** /**
 281:.\source\rte/sc_input.h ****  * Returns the current application value of the passed signal instance threadsafe.
 282:.\source\rte/sc_input.h ****  *
 283:.\source\rte/sc_input.h ****  * @param  SC_INPUT_t * const signal: Pointer to the signal object
 284:.\source\rte/sc_input.h ****  * @param  SC_INPUT_data_t* data: Pointer to the return data Pointer to the signal object
 285:.\source\rte/sc_input.h ****  * @return RC_SUCCESS
 286:.\source\rte/sc_input.h ****  *
 287:.\source\rte/sc_input.h ****  **/
 288:.\source\rte/sc_input.h **** inline RC_t RTE_SC_INPUT_getThreadSafe( const SC_INPUT_t * const signal, SC_INPUT_data_t * const da
 289:.\source\rte/sc_input.h **** {    
 290:.\source\rte/sc_input.h ****    if (TRUE == signal->pSigCfg->resourceActive) GetResource(signal->pSigCfg->resource);
 291:.\source\rte/sc_input.h ****    *data = signal->value;
 292:.\source\rte/sc_input.h ****    if (TRUE == signal->pSigCfg->resourceActive) ReleaseResource(signal->pSigCfg->resource);        
 293:.\source\rte/sc_input.h **** 
 294:.\source\rte/sc_input.h ****    return RC_SUCCESS;                                                                   
 295:.\source\rte/sc_input.h ****    
 296:.\source\rte/sc_input.h **** }                                                                                                  
 297:.\source\rte/sc_input.h ****                                                                                                    
 298:.\source\rte/sc_input.h **** /**
 299:.\source\rte/sc_input.h ****  * Sets a new application value to the passed signal instance by passing the new value.
 300:.\source\rte/sc_input.h ****  * The corresponding driver raw value will be calculated immediately by using the default conversio
 301:.\source\rte/sc_input.h ****  * signal specific scaling function.
 302:.\source\rte/sc_input.h ****  * The signal age will be set to 0 and the new status will be 'RTE_SIGNALSTATUS_VALID'.
 303:.\source\rte/sc_input.h ****  *
 304:.\source\rte/sc_input.h ****  * @param  SC_INPUT_t * const signal: Pointer to the signal object
 305:.\source\rte/sc_input.h ****  * @param  sc_input_data_t const value: value for the application data buffer
 306:.\source\rte/sc_input.h ****  * @return RC_t: standard return code, currently only RC_SUCCESS
 307:.\source\rte/sc_input.h ****  *
 308:.\source\rte/sc_input.h ****  **/
 309:.\source\rte/sc_input.h **** inline RC_t RTE_SC_INPUT_set(SC_INPUT_t * const signal, const SC_INPUT_data_t value  )
 310:.\source\rte/sc_input.h **** {
 311:.\source\rte/sc_input.h **** 
 312:.\source\rte/sc_input.h ****    RC_t ret = RC_SUCCESS;
 313:.\source\rte/sc_input.h ****    size_t taskNum=0;
 314:.\source\rte/sc_input.h **** 
 315:.\source\rte/sc_input.h **** 
 316:.\source\rte/sc_input.h ****    if (TRUE == signal->pSigCfg->resourceActive) GetResource(signal->pSigCfg->resource);
 924              		.loc 3 316 0
 925 002e D4F84C80 		ldr	r8, [r4, #76]
 317:.\source\rte/sc_input.h ****    signal->value  = value;
 926              		.loc 3 317 0
 927 0032 2A46     		mov	r2, r5
 928 0034 02A9     		add	r1, sp, #8
 929 0036 2046     		mov	r0, r4
 930 0038 FFF7FEFF 		bl	memcpy
ARM GAS  C:\Users\giris\AppData\Local\Temp\cceloVpD.s 			page 39


 931              	.LVL84:
 318:.\source\rte/sc_input.h ****    signal->age    = 0;
 932              		.loc 3 318 0
 933 003c C4F84890 		str	r9, [r4, #72]
 319:.\source\rte/sc_input.h ****    signal->status = RTE_SIGNALSTATUS_VALID;
 934              		.loc 3 319 0
 935 0040 0223     		movs	r3, #2
 936 0042 84F84430 		strb	r3, [r4, #68]
 320:.\source\rte/sc_input.h ****    if (TRUE == signal->pSigCfg->resourceActive) ReleaseResource(signal->pSigCfg->resource);
 321:.\source\rte/sc_input.h **** 
 322:.\source\rte/sc_input.h ****    //Pointer to the Taskarray, containing the tasks receiving the onUpdate events
 323:.\source\rte/sc_input.h ****    TaskTypeArray* pTaskArray = signal->pSigCfg->onUpdateTasks;
 937              		.loc 3 323 0
 938 0046 D8F81450 		ldr	r5, [r8, #20]
 939              	.LVL85:
 324:.\source\rte/sc_input.h **** 
 325:.\source\rte/sc_input.h ****    if (0 != signal->pSigCfg->evOnUpdate && NULL != pTaskArray){
 940              		.loc 3 325 0
 941 004a D8F80830 		ldr	r3, [r8, #8]
 942 004e 73B1     		cbz	r3, .L64
 943 0050 3DB9     		cbnz	r5, .L75
 944 0052 0CE0     		b	.L64
 945              	.LVL86:
 946              	.L66:
 947              	.LBB112:
 326:.\source\rte/sc_input.h ****       for( taskNum=0 ; taskNum < signal->pSigCfg->onUpdateTaskCount ;taskNum++){
 327:.\source\rte/sc_input.h **** 		  
 328:.\source\rte/sc_input.h ****           TaskType task = (*pTaskArray)[taskNum];
 329:.\source\rte/sc_input.h **** 	      SetEvent( task, signal->pSigCfg->evOnUpdate);
 948              		.loc 3 329 0
 949 0054 9968     		ldr	r1, [r3, #8]
 950 0056 55F82400 		ldr	r0, [r5, r4, lsl #2]
 951 005a FFF7FEFF 		bl	EE_oo_SetEvent
 952              	.LVL87:
 953              	.LBE112:
 326:.\source\rte/sc_input.h ****       for( taskNum=0 ; taskNum < signal->pSigCfg->onUpdateTaskCount ;taskNum++){
 954              		.loc 3 326 0
 955 005e 0134     		adds	r4, r4, #1
 956              	.LVL88:
 957 0060 00E0     		b	.L65
 958              	.LVL89:
 959              	.L75:
 325:.\source\rte/sc_input.h ****       for( taskNum=0 ; taskNum < signal->pSigCfg->onUpdateTaskCount ;taskNum++){
 960              		.loc 3 325 0
 961 0062 0024     		movs	r4, #0
 962              	.LVL90:
 963              	.L65:
 326:.\source\rte/sc_input.h ****       for( taskNum=0 ; taskNum < signal->pSigCfg->onUpdateTaskCount ;taskNum++){
 964              		.loc 3 326 0
 965 0064 464B     		ldr	r3, .L79
 966 0066 DB6C     		ldr	r3, [r3, #76]
 967 0068 1A69     		ldr	r2, [r3, #16]
 968 006a 9442     		cmp	r4, r2
 969 006c F2D3     		bcc	.L66
 970              	.LVL91:
 971              	.L64:
 972              	.LBE111:
ARM GAS  C:\Users\giris\AppData\Local\Temp\cceloVpD.s 			page 40


 973              	.LBE110:
 250:source\asw/clock.c ****     {
 974              		.loc 1 250 0
 975 006e 002E     		cmp	r6, #0
 976 0070 41D1     		bne	.L67
 977              	.LBB113:
 252:source\asw/clock.c ****         
 978              		.loc 1 252 0
 979 0072 9DF87021 		ldrb	r2, [sp, #368]	@ zero_extendqisi2
 980 0076 68AB     		add	r3, sp, #416
 981 0078 03F8882D 		strb	r2, [r3, #-136]!
 259:source\asw/clock.c ****         
 982              		.loc 1 259 0
 983 007c 4148     		ldr	r0, .L79+4
 984 007e 0193     		str	r3, [sp, #4]
 985 0080 0097     		str	r7, [sp]
 986 0082 0323     		movs	r3, #3
 987 0084 0246     		mov	r2, r0
 988 0086 1946     		mov	r1, r3
 989 0088 2430     		adds	r0, r0, #36
 990 008a FFF7FEFF 		bl	STATE_processEvent
 991              	.LVL92:
 992              	.LBB114:
 993              	.LBB115:
 277:.\source\rte/sc_input.h **** }                                                                                                  
 994              		.loc 3 277 0
 995 008e 3C4C     		ldr	r4, .L79
 996 0090 4425     		movs	r5, #68
 997 0092 2A46     		mov	r2, r5
 998 0094 2146     		mov	r1, r4
 999 0096 24A8     		add	r0, sp, #144
 1000 0098 FFF7FEFF 		bl	memcpy
 1001              	.LVL93:
 1002              	.LBE115:
 1003              	.LBE114:
 261:source\asw/clock.c ****         
 1004              		.loc 1 261 0
 1005 009c 2A46     		mov	r2, r5
 1006 009e 24A9     		add	r1, sp, #144
 1007 00a0 57A8     		add	r0, sp, #348
 1008 00a2 FFF7FEFF 		bl	memcpy
 1009              	.LVL94:
 263:source\asw/clock.c ****         
 1010              		.loc 1 263 0
 1011 00a6 9DF81831 		ldrb	r3, [sp, #280]	@ zero_extendqisi2
 1012 00aa 8DF87031 		strb	r3, [sp, #368]
 1013              	.LVL95:
 1014 00ae 2A46     		mov	r2, r5
 1015 00b0 57A9     		add	r1, sp, #348
 1016 00b2 13A8     		add	r0, sp, #76
 1017 00b4 FFF7FEFF 		bl	memcpy
 1018              	.LVL96:
 1019              	.LBB116:
 1020              	.LBB117:
 316:.\source\rte/sc_input.h ****    signal->value  = value;
 1021              		.loc 3 316 0
 1022 00b8 E66C     		ldr	r6, [r4, #76]
ARM GAS  C:\Users\giris\AppData\Local\Temp\cceloVpD.s 			page 41


 317:.\source\rte/sc_input.h ****    signal->age    = 0;
 1023              		.loc 3 317 0
 1024 00ba 2A46     		mov	r2, r5
 1025 00bc 13A9     		add	r1, sp, #76
 1026 00be 2046     		mov	r0, r4
 1027 00c0 FFF7FEFF 		bl	memcpy
 1028              	.LVL97:
 318:.\source\rte/sc_input.h ****    signal->status = RTE_SIGNALSTATUS_VALID;
 1029              		.loc 3 318 0
 1030 00c4 0023     		movs	r3, #0
 1031 00c6 A364     		str	r3, [r4, #72]
 319:.\source\rte/sc_input.h ****    if (TRUE == signal->pSigCfg->resourceActive) ReleaseResource(signal->pSigCfg->resource);
 1032              		.loc 3 319 0
 1033 00c8 0223     		movs	r3, #2
 1034 00ca 84F84430 		strb	r3, [r4, #68]
 323:.\source\rte/sc_input.h **** 
 1035              		.loc 3 323 0
 1036 00ce 7569     		ldr	r5, [r6, #20]
 1037              	.LVL98:
 325:.\source\rte/sc_input.h ****       for( taskNum=0 ; taskNum < signal->pSigCfg->onUpdateTaskCount ;taskNum++){
 1038              		.loc 3 325 0
 1039 00d0 B368     		ldr	r3, [r6, #8]
 1040 00d2 002B     		cmp	r3, #0
 1041 00d4 50D0     		beq	.L63
 1042 00d6 3DB9     		cbnz	r5, .L76
 1043 00d8 4EE0     		b	.L63
 1044              	.LVL99:
 1045              	.L70:
 1046              	.LBB118:
 1047              		.loc 3 329 0
 1048 00da 9968     		ldr	r1, [r3, #8]
 1049 00dc 55F82400 		ldr	r0, [r5, r4, lsl #2]
 1050 00e0 FFF7FEFF 		bl	EE_oo_SetEvent
 1051              	.LVL100:
 1052              	.LBE118:
 326:.\source\rte/sc_input.h **** 		  
 1053              		.loc 3 326 0
 1054 00e4 0134     		adds	r4, r4, #1
 1055              	.LVL101:
 1056 00e6 00E0     		b	.L69
 1057              	.LVL102:
 1058              	.L76:
 325:.\source\rte/sc_input.h ****       for( taskNum=0 ; taskNum < signal->pSigCfg->onUpdateTaskCount ;taskNum++){
 1059              		.loc 3 325 0
 1060 00e8 0024     		movs	r4, #0
 1061              	.LVL103:
 1062              	.L69:
 326:.\source\rte/sc_input.h **** 		  
 1063              		.loc 3 326 0
 1064 00ea 254B     		ldr	r3, .L79
 1065 00ec DB6C     		ldr	r3, [r3, #76]
 1066 00ee 1A69     		ldr	r2, [r3, #16]
 1067 00f0 9442     		cmp	r4, r2
 1068 00f2 F2D3     		bcc	.L70
 1069 00f4 40E0     		b	.L63
 1070              	.LVL104:
 1071              	.L67:
ARM GAS  C:\Users\giris\AppData\Local\Temp\cceloVpD.s 			page 42


 1072              	.LBE117:
 1073              	.LBE116:
 1074              	.LBE113:
 267:source\asw/clock.c ****     {
 1075              		.loc 1 267 0
 1076 00f6 012E     		cmp	r6, #1
 1077 00f8 3ED1     		bne	.L63
 1078              	.LBB119:
 269:source\asw/clock.c ****         
 1079              		.loc 1 269 0 discriminator 2
 1080 00fa 9DF88831 		ldrb	r3, [sp, #392]	@ zero_extendqisi2
 1081 00fe 24AE     		add	r6, sp, #144
 1082 0100 8DF89030 		strb	r3, [sp, #144]
 276:source\asw/clock.c ****         
 1083              		.loc 1 276 0 discriminator 2
 1084 0104 1F48     		ldr	r0, .L79+4
 1085 0106 0196     		str	r6, [sp, #4]
 1086 0108 0097     		str	r7, [sp]
 1087 010a 0323     		movs	r3, #3
 1088 010c 0246     		mov	r2, r0
 1089 010e 1946     		mov	r1, r3
 1090 0110 2430     		adds	r0, r0, #36
 1091 0112 FFF7FEFF 		bl	STATE_processEvent
 1092              	.LVL105:
 1093              	.LBB120:
 1094              	.LBB121:
 277:.\source\rte/sc_input.h **** }                                                                                                  
 1095              		.loc 3 277 0 discriminator 2
 1096 0116 1A4C     		ldr	r4, .L79
 1097 0118 4425     		movs	r5, #68
 1098 011a 2A46     		mov	r2, r5
 1099 011c 2146     		mov	r1, r4
 1100 011e 46A8     		add	r0, sp, #280
 1101 0120 FFF7FEFF 		bl	memcpy
 1102              	.LVL106:
 1103              	.LBE121:
 1104              	.LBE120:
 278:source\asw/clock.c ****         
 1105              		.loc 1 278 0 discriminator 2
 1106 0124 2A46     		mov	r2, r5
 1107 0126 46A9     		add	r1, sp, #280
 1108 0128 57A8     		add	r0, sp, #348
 1109 012a FFF7FEFF 		bl	memcpy
 1110              	.LVL107:
 280:source\asw/clock.c ****         
 1111              		.loc 1 280 0 discriminator 2
 1112 012e 3378     		ldrb	r3, [r6]	@ zero_extendqisi2
 1113 0130 8DF88831 		strb	r3, [sp, #392]
 1114              	.LVL108:
 1115 0134 2A46     		mov	r2, r5
 1116 0136 57A9     		add	r1, sp, #348
 1117 0138 35A8     		add	r0, sp, #212
 1118 013a FFF7FEFF 		bl	memcpy
 1119              	.LVL109:
 1120              	.LBB122:
 1121              	.LBB123:
 316:.\source\rte/sc_input.h ****    signal->value  = value;
ARM GAS  C:\Users\giris\AppData\Local\Temp\cceloVpD.s 			page 43


 1122              		.loc 3 316 0 discriminator 2
 1123 013e E66C     		ldr	r6, [r4, #76]
 317:.\source\rte/sc_input.h ****    signal->age    = 0;
 1124              		.loc 3 317 0 discriminator 2
 1125 0140 2A46     		mov	r2, r5
 1126 0142 35A9     		add	r1, sp, #212
 1127 0144 2046     		mov	r0, r4
 1128 0146 FFF7FEFF 		bl	memcpy
 1129              	.LVL110:
 318:.\source\rte/sc_input.h ****    signal->status = RTE_SIGNALSTATUS_VALID;
 1130              		.loc 3 318 0 discriminator 2
 1131 014a 0023     		movs	r3, #0
 1132 014c A364     		str	r3, [r4, #72]
 319:.\source\rte/sc_input.h ****    if (TRUE == signal->pSigCfg->resourceActive) ReleaseResource(signal->pSigCfg->resource);
 1133              		.loc 3 319 0 discriminator 2
 1134 014e 0223     		movs	r3, #2
 1135 0150 84F84430 		strb	r3, [r4, #68]
 323:.\source\rte/sc_input.h **** 
 1136              		.loc 3 323 0 discriminator 2
 1137 0154 7569     		ldr	r5, [r6, #20]
 1138              	.LVL111:
 325:.\source\rte/sc_input.h ****       for( taskNum=0 ; taskNum < signal->pSigCfg->onUpdateTaskCount ;taskNum++){
 1139              		.loc 3 325 0 discriminator 2
 1140 0156 B368     		ldr	r3, [r6, #8]
 1141 0158 73B1     		cbz	r3, .L63
 325:.\source\rte/sc_input.h ****       for( taskNum=0 ; taskNum < signal->pSigCfg->onUpdateTaskCount ;taskNum++){
 1142              		.loc 3 325 0 is_stmt 0
 1143 015a 3DB9     		cbnz	r5, .L77
 1144 015c 0CE0     		b	.L63
 1145              	.LVL112:
 1146              	.L74:
 1147              	.LBB124:
 1148              		.loc 3 329 0 is_stmt 1
 1149 015e 9968     		ldr	r1, [r3, #8]
 1150 0160 55F82400 		ldr	r0, [r5, r4, lsl #2]
 1151 0164 FFF7FEFF 		bl	EE_oo_SetEvent
 1152              	.LVL113:
 1153              	.LBE124:
 326:.\source\rte/sc_input.h **** 		  
 1154              		.loc 3 326 0
 1155 0168 0134     		adds	r4, r4, #1
 1156              	.LVL114:
 1157 016a 00E0     		b	.L73
 1158              	.LVL115:
 1159              	.L77:
 325:.\source\rte/sc_input.h ****       for( taskNum=0 ; taskNum < signal->pSigCfg->onUpdateTaskCount ;taskNum++){
 1160              		.loc 3 325 0
 1161 016c 0024     		movs	r4, #0
 1162              	.LVL116:
 1163              	.L73:
 326:.\source\rte/sc_input.h **** 		  
 1164              		.loc 3 326 0
 1165 016e 044B     		ldr	r3, .L79
 1166 0170 DB6C     		ldr	r3, [r3, #76]
 1167 0172 1A69     		ldr	r2, [r3, #16]
 1168 0174 9442     		cmp	r4, r2
 1169 0176 F2D3     		bcc	.L74
ARM GAS  C:\Users\giris\AppData\Local\Temp\cceloVpD.s 			page 44


 1170              	.LVL117:
 1171              	.L63:
 1172              	.LBE123:
 1173              	.LBE122:
 1174              	.LBE119:
 284:source\asw/clock.c **** 
 1175              		.loc 1 284 0
 1176 0178 69B0     		add	sp, sp, #420
 1177              		.cfi_def_cfa_offset 28
 1178              		@ sp needed
 1179 017a BDE8F083 		pop	{r4, r5, r6, r7, r8, r9, pc}
 1180              	.L80:
 1181 017e 00BF     		.align	2
 1182              	.L79:
 1183 0180 00000000 		.word	SO_INPUTEVENT_signal
 1184 0184 00000000 		.word	.LANCHOR0
 1185              		.cfi_endproc
 1186              	.LFE146:
 1187              		.size	CLOCK__Dispatch_Wrapper, .-CLOCK__Dispatch_Wrapper
 1188              		.section	.text.CLOCK__Dispatch_KL_Hours,"ax",%progbits
 1189              		.align	2
 1190              		.thumb
 1191              		.thumb_func
 1192              		.type	CLOCK__Dispatch_KL_Hours, %function
 1193              	CLOCK__Dispatch_KL_Hours:
 1194              	.LFB147:
 287:source\asw/clock.c **** //    UART_LOG_PutString("\nIn KL hours Dispatch.....\n");
 1195              		.loc 1 287 0
 1196              		.cfi_startproc
 1197              		@ args = 0, pretend = 0, frame = 136
 1198              		@ frame_needed = 0, uses_anonymous_args = 0
 1199 0000 70B5     		push	{r4, r5, r6, lr}
 1200              		.cfi_def_cfa_offset 16
 1201              		.cfi_offset 4, -16
 1202              		.cfi_offset 5, -12
 1203              		.cfi_offset 6, -8
 1204              		.cfi_offset 14, -4
 1205 0002 A2B0     		sub	sp, sp, #136
 1206              		.cfi_def_cfa_offset 152
 1207              	.LVL118:
 1208              	.LBB125:
 1209              	.LBB126:
 277:.\source\rte/sc_input.h **** }                                                                                                  
 1210              		.loc 3 277 0
 1211 0004 194C     		ldr	r4, .L87
 1212 0006 4425     		movs	r5, #68
 1213 0008 2A46     		mov	r2, r5
 1214 000a 2146     		mov	r1, r4
 1215 000c 0DEB0500 		add	r0, sp, r5
 1216 0010 FFF7FEFF 		bl	memcpy
 1217              	.LVL119:
 1218              	.LBE126:
 1219              	.LBE125:
 292:source\asw/clock.c ****     
 1220              		.loc 1 292 0
 1221 0014 0323     		movs	r3, #3
 1222 0016 8DF85830 		strb	r3, [sp, #88]
ARM GAS  C:\Users\giris\AppData\Local\Temp\cceloVpD.s 			page 45


 1223              	.LVL120:
 1224 001a 2A46     		mov	r2, r5
 1225 001c 0DEB0501 		add	r1, sp, r5
 1226 0020 6846     		mov	r0, sp
 1227 0022 FFF7FEFF 		bl	memcpy
 1228              	.LVL121:
 1229              	.LBB127:
 1230              	.LBB128:
 316:.\source\rte/sc_input.h ****    signal->value  = value;
 1231              		.loc 3 316 0
 1232 0026 E66C     		ldr	r6, [r4, #76]
 317:.\source\rte/sc_input.h ****    signal->age    = 0;
 1233              		.loc 3 317 0
 1234 0028 2A46     		mov	r2, r5
 1235 002a 6946     		mov	r1, sp
 1236 002c 2046     		mov	r0, r4
 1237 002e FFF7FEFF 		bl	memcpy
 1238              	.LVL122:
 318:.\source\rte/sc_input.h ****    signal->status = RTE_SIGNALSTATUS_VALID;
 1239              		.loc 3 318 0
 1240 0032 0023     		movs	r3, #0
 1241 0034 A364     		str	r3, [r4, #72]
 319:.\source\rte/sc_input.h ****    if (TRUE == signal->pSigCfg->resourceActive) ReleaseResource(signal->pSigCfg->resource);
 1242              		.loc 3 319 0
 1243 0036 0223     		movs	r3, #2
 1244 0038 84F84430 		strb	r3, [r4, #68]
 323:.\source\rte/sc_input.h **** 
 1245              		.loc 3 323 0
 1246 003c 7569     		ldr	r5, [r6, #20]
 1247              	.LVL123:
 325:.\source\rte/sc_input.h ****       for( taskNum=0 ; taskNum < signal->pSigCfg->onUpdateTaskCount ;taskNum++){
 1248              		.loc 3 325 0
 1249 003e B368     		ldr	r3, [r6, #8]
 1250 0040 73B1     		cbz	r3, .L82
 1251 0042 3DB9     		cbnz	r5, .L85
 1252 0044 0CE0     		b	.L82
 1253              	.LVL124:
 1254              	.L84:
 1255              	.LBB129:
 1256              		.loc 3 329 0
 1257 0046 9968     		ldr	r1, [r3, #8]
 1258 0048 55F82400 		ldr	r0, [r5, r4, lsl #2]
 1259 004c FFF7FEFF 		bl	EE_oo_SetEvent
 1260              	.LVL125:
 1261              	.LBE129:
 326:.\source\rte/sc_input.h **** 		  
 1262              		.loc 3 326 0
 1263 0050 0134     		adds	r4, r4, #1
 1264              	.LVL126:
 1265 0052 00E0     		b	.L83
 1266              	.LVL127:
 1267              	.L85:
 325:.\source\rte/sc_input.h ****       for( taskNum=0 ; taskNum < signal->pSigCfg->onUpdateTaskCount ;taskNum++){
 1268              		.loc 3 325 0
 1269 0054 0024     		movs	r4, #0
 1270              	.LVL128:
 1271              	.L83:
ARM GAS  C:\Users\giris\AppData\Local\Temp\cceloVpD.s 			page 46


 326:.\source\rte/sc_input.h **** 		  
 1272              		.loc 3 326 0
 1273 0056 054B     		ldr	r3, .L87
 1274 0058 DB6C     		ldr	r3, [r3, #76]
 1275 005a 1A69     		ldr	r2, [r3, #16]
 1276 005c 9442     		cmp	r4, r2
 1277 005e F2D3     		bcc	.L84
 1278              	.LVL129:
 1279              	.L82:
 1280              	.LBE128:
 1281              	.LBE127:
 296:source\asw/clock.c **** }
 1282              		.loc 1 296 0
 1283 0060 0021     		movs	r1, #0
 1284 0062 0120     		movs	r0, #1
 1285 0064 FFF7FEFF 		bl	CLOCK__Dispatch_Wrapper
 1286              	.LVL130:
 297:source\asw/clock.c **** 
 1287              		.loc 1 297 0
 1288 0068 22B0     		add	sp, sp, #136
 1289              		.cfi_def_cfa_offset 16
 1290              		@ sp needed
 1291 006a 70BD     		pop	{r4, r5, r6, pc}
 1292              	.L88:
 1293              		.align	2
 1294              	.L87:
 1295 006c 00000000 		.word	SO_INPUTEVENT_signal
 1296              		.cfi_endproc
 1297              	.LFE147:
 1298              		.size	CLOCK__Dispatch_KL_Hours, .-CLOCK__Dispatch_KL_Hours
 1299              		.section	.text.CLOCK__Dispatch_250MS_Hours,"ax",%progbits
 1300              		.align	2
 1301              		.thumb
 1302              		.thumb_func
 1303              		.type	CLOCK__Dispatch_250MS_Hours, %function
 1304              	CLOCK__Dispatch_250MS_Hours:
 1305              	.LFB152:
 342:source\asw/clock.c **** //    UART_LOG_PutString("\nIn 250MS_Hours Dispatch.....\n");
 1306              		.loc 1 342 0
 1307              		.cfi_startproc
 1308              		@ args = 0, pretend = 0, frame = 0
 1309              		@ frame_needed = 0, uses_anonymous_args = 0
 1310 0000 08B5     		push	{r3, lr}
 1311              		.cfi_def_cfa_offset 8
 1312              		.cfi_offset 3, -8
 1313              		.cfi_offset 14, -4
 345:source\asw/clock.c **** }
 1314              		.loc 1 345 0
 1315 0002 0021     		movs	r1, #0
 1316 0004 0420     		movs	r0, #4
 1317 0006 FFF7FEFF 		bl	CLOCK__Dispatch_Wrapper
 1318              	.LVL131:
 1319 000a 08BD     		pop	{r3, pc}
 1320              		.cfi_endproc
 1321              	.LFE152:
 1322              		.size	CLOCK__Dispatch_250MS_Hours, .-CLOCK__Dispatch_250MS_Hours
 1323              		.section	.text.CLOCK__Dispatch_KRLP_Hours,"ax",%progbits
ARM GAS  C:\Users\giris\AppData\Local\Temp\cceloVpD.s 			page 47


 1324              		.align	2
 1325              		.thumb
 1326              		.thumb_func
 1327              		.type	CLOCK__Dispatch_KRLP_Hours, %function
 1328              	CLOCK__Dispatch_KRLP_Hours:
 1329              	.LFB151:
 329:source\asw/clock.c **** //    UART_LOG_PutString("\nIn KRLP_Hours Dispatch.....\n");
 1330              		.loc 1 329 0
 1331              		.cfi_startproc
 1332              		@ args = 0, pretend = 0, frame = 136
 1333              		@ frame_needed = 0, uses_anonymous_args = 0
 1334 0000 70B5     		push	{r4, r5, r6, lr}
 1335              		.cfi_def_cfa_offset 16
 1336              		.cfi_offset 4, -16
 1337              		.cfi_offset 5, -12
 1338              		.cfi_offset 6, -8
 1339              		.cfi_offset 14, -4
 1340 0002 A2B0     		sub	sp, sp, #136
 1341              		.cfi_def_cfa_offset 152
 1342              	.LVL132:
 1343              	.LBB130:
 1344              	.LBB131:
 277:.\source\rte/sc_input.h **** }                                                                                                  
 1345              		.loc 3 277 0
 1346 0004 194C     		ldr	r4, .L97
 1347 0006 4425     		movs	r5, #68
 1348 0008 2A46     		mov	r2, r5
 1349 000a 2146     		mov	r1, r4
 1350 000c 0DEB0500 		add	r0, sp, r5
 1351 0010 FFF7FEFF 		bl	memcpy
 1352              	.LVL133:
 1353              	.LBE131:
 1354              	.LBE130:
 334:source\asw/clock.c ****     
 1355              		.loc 1 334 0
 1356 0014 0423     		movs	r3, #4
 1357 0016 8DF85830 		strb	r3, [sp, #88]
 1358              	.LVL134:
 1359 001a 2A46     		mov	r2, r5
 1360 001c 0DEB0501 		add	r1, sp, r5
 1361 0020 6846     		mov	r0, sp
 1362 0022 FFF7FEFF 		bl	memcpy
 1363              	.LVL135:
 1364              	.LBB132:
 1365              	.LBB133:
 316:.\source\rte/sc_input.h ****    signal->value  = value;
 1366              		.loc 3 316 0
 1367 0026 E66C     		ldr	r6, [r4, #76]
 317:.\source\rte/sc_input.h ****    signal->age    = 0;
 1368              		.loc 3 317 0
 1369 0028 2A46     		mov	r2, r5
 1370 002a 6946     		mov	r1, sp
 1371 002c 2046     		mov	r0, r4
 1372 002e FFF7FEFF 		bl	memcpy
 1373              	.LVL136:
 318:.\source\rte/sc_input.h ****    signal->status = RTE_SIGNALSTATUS_VALID;
 1374              		.loc 3 318 0
ARM GAS  C:\Users\giris\AppData\Local\Temp\cceloVpD.s 			page 48


 1375 0032 0023     		movs	r3, #0
 1376 0034 A364     		str	r3, [r4, #72]
 319:.\source\rte/sc_input.h ****    if (TRUE == signal->pSigCfg->resourceActive) ReleaseResource(signal->pSigCfg->resource);
 1377              		.loc 3 319 0
 1378 0036 0223     		movs	r3, #2
 1379 0038 84F84430 		strb	r3, [r4, #68]
 323:.\source\rte/sc_input.h **** 
 1380              		.loc 3 323 0
 1381 003c 7569     		ldr	r5, [r6, #20]
 1382              	.LVL137:
 325:.\source\rte/sc_input.h ****       for( taskNum=0 ; taskNum < signal->pSigCfg->onUpdateTaskCount ;taskNum++){
 1383              		.loc 3 325 0
 1384 003e B368     		ldr	r3, [r6, #8]
 1385 0040 73B1     		cbz	r3, .L92
 1386 0042 3DB9     		cbnz	r5, .L95
 1387 0044 0CE0     		b	.L92
 1388              	.LVL138:
 1389              	.L94:
 1390              	.LBB134:
 1391              		.loc 3 329 0
 1392 0046 9968     		ldr	r1, [r3, #8]
 1393 0048 55F82400 		ldr	r0, [r5, r4, lsl #2]
 1394 004c FFF7FEFF 		bl	EE_oo_SetEvent
 1395              	.LVL139:
 1396              	.LBE134:
 326:.\source\rte/sc_input.h **** 		  
 1397              		.loc 3 326 0
 1398 0050 0134     		adds	r4, r4, #1
 1399              	.LVL140:
 1400 0052 00E0     		b	.L93
 1401              	.LVL141:
 1402              	.L95:
 325:.\source\rte/sc_input.h ****       for( taskNum=0 ; taskNum < signal->pSigCfg->onUpdateTaskCount ;taskNum++){
 1403              		.loc 3 325 0
 1404 0054 0024     		movs	r4, #0
 1405              	.LVL142:
 1406              	.L93:
 326:.\source\rte/sc_input.h **** 		  
 1407              		.loc 3 326 0
 1408 0056 054B     		ldr	r3, .L97
 1409 0058 DB6C     		ldr	r3, [r3, #76]
 1410 005a 1A69     		ldr	r2, [r3, #16]
 1411 005c 9442     		cmp	r4, r2
 1412 005e F2D3     		bcc	.L94
 1413              	.LVL143:
 1414              	.L92:
 1415              	.LBE133:
 1416              	.LBE132:
 338:source\asw/clock.c **** }
 1417              		.loc 1 338 0
 1418 0060 0021     		movs	r1, #0
 1419 0062 0320     		movs	r0, #3
 1420 0064 FFF7FEFF 		bl	CLOCK__Dispatch_Wrapper
 1421              	.LVL144:
 339:source\asw/clock.c **** 
 1422              		.loc 1 339 0
 1423 0068 22B0     		add	sp, sp, #136
ARM GAS  C:\Users\giris\AppData\Local\Temp\cceloVpD.s 			page 49


 1424              		.cfi_def_cfa_offset 16
 1425              		@ sp needed
 1426 006a 70BD     		pop	{r4, r5, r6, pc}
 1427              	.L98:
 1428              		.align	2
 1429              	.L97:
 1430 006c 00000000 		.word	SO_INPUTEVENT_signal
 1431              		.cfi_endproc
 1432              	.LFE151:
 1433              		.size	CLOCK__Dispatch_KRLP_Hours, .-CLOCK__Dispatch_KRLP_Hours
 1434              		.section	.text.CLOCK__Dispatch_KR_Hours,"ax",%progbits
 1435              		.align	2
 1436              		.thumb
 1437              		.thumb_func
 1438              		.type	CLOCK__Dispatch_KR_Hours, %function
 1439              	CLOCK__Dispatch_KR_Hours:
 1440              	.LFB150:
 322:source\asw/clock.c **** //    UART_LOG_PutString("\nIn KR_Hours Dispatch.....\n");
 1441              		.loc 1 322 0
 1442              		.cfi_startproc
 1443              		@ args = 0, pretend = 0, frame = 0
 1444              		@ frame_needed = 0, uses_anonymous_args = 0
 1445 0000 08B5     		push	{r3, lr}
 1446              		.cfi_def_cfa_offset 8
 1447              		.cfi_offset 3, -8
 1448              		.cfi_offset 14, -4
 325:source\asw/clock.c **** }
 1449              		.loc 1 325 0
 1450 0002 0021     		movs	r1, #0
 1451 0004 0220     		movs	r0, #2
 1452 0006 FFF7FEFF 		bl	CLOCK__Dispatch_Wrapper
 1453              	.LVL145:
 1454 000a 08BD     		pop	{r3, pc}
 1455              		.cfi_endproc
 1456              	.LFE150:
 1457              		.size	CLOCK__Dispatch_KR_Hours, .-CLOCK__Dispatch_KR_Hours
 1458              		.section	.text.CLOCK__Dispatch_KL_HoursMin,"ax",%progbits
 1459              		.align	2
 1460              		.thumb
 1461              		.thumb_func
 1462              		.type	CLOCK__Dispatch_KL_HoursMin, %function
 1463              	CLOCK__Dispatch_KL_HoursMin:
 1464              	.LFB149:
 307:source\asw/clock.c **** //    UART_LOG_PutString("\nIn KL_HoursMin Dispatch.....\n");
 1465              		.loc 1 307 0
 1466              		.cfi_startproc
 1467              		@ args = 0, pretend = 0, frame = 136
 1468              		@ frame_needed = 0, uses_anonymous_args = 0
 1469 0000 70B5     		push	{r4, r5, r6, lr}
 1470              		.cfi_def_cfa_offset 16
 1471              		.cfi_offset 4, -16
 1472              		.cfi_offset 5, -12
 1473              		.cfi_offset 6, -8
 1474              		.cfi_offset 14, -4
 1475 0002 A2B0     		sub	sp, sp, #136
 1476              		.cfi_def_cfa_offset 152
 1477              	.LVL146:
ARM GAS  C:\Users\giris\AppData\Local\Temp\cceloVpD.s 			page 50


 1478              	.LBB135:
 1479              	.LBB136:
 277:.\source\rte/sc_input.h **** }                                                                                                  
 1480              		.loc 3 277 0
 1481 0004 1D4C     		ldr	r4, .L107
 1482 0006 4425     		movs	r5, #68
 1483 0008 2A46     		mov	r2, r5
 1484 000a 2146     		mov	r1, r4
 1485 000c 0DEB0500 		add	r0, sp, r5
 1486 0010 FFF7FEFF 		bl	memcpy
 1487              	.LVL147:
 1488              	.LBE136:
 1489              	.LBE135:
 312:source\asw/clock.c ****     clock.m_clock_data.m_minutes.m_widgetState = CLOCK_W_ISDISPLAYING;
 1490              		.loc 1 312 0
 1491 0014 0423     		movs	r3, #4
 1492 0016 8DF85830 		strb	r3, [sp, #88]
 313:source\asw/clock.c ****     
 1493              		.loc 1 313 0
 1494 001a 0323     		movs	r3, #3
 1495 001c 8DF87030 		strb	r3, [sp, #112]
 1496              	.LVL148:
 1497 0020 2A46     		mov	r2, r5
 1498 0022 0DEB0501 		add	r1, sp, r5
 1499 0026 6846     		mov	r0, sp
 1500 0028 FFF7FEFF 		bl	memcpy
 1501              	.LVL149:
 1502              	.LBB137:
 1503              	.LBB138:
 316:.\source\rte/sc_input.h ****    signal->value  = value;
 1504              		.loc 3 316 0
 1505 002c E66C     		ldr	r6, [r4, #76]
 317:.\source\rte/sc_input.h ****    signal->age    = 0;
 1506              		.loc 3 317 0
 1507 002e 2A46     		mov	r2, r5
 1508 0030 6946     		mov	r1, sp
 1509 0032 2046     		mov	r0, r4
 1510 0034 FFF7FEFF 		bl	memcpy
 1511              	.LVL150:
 318:.\source\rte/sc_input.h ****    signal->status = RTE_SIGNALSTATUS_VALID;
 1512              		.loc 3 318 0
 1513 0038 0023     		movs	r3, #0
 1514 003a A364     		str	r3, [r4, #72]
 319:.\source\rte/sc_input.h ****    if (TRUE == signal->pSigCfg->resourceActive) ReleaseResource(signal->pSigCfg->resource);
 1515              		.loc 3 319 0
 1516 003c 0223     		movs	r3, #2
 1517 003e 84F84430 		strb	r3, [r4, #68]
 323:.\source\rte/sc_input.h **** 
 1518              		.loc 3 323 0
 1519 0042 7569     		ldr	r5, [r6, #20]
 1520              	.LVL151:
 325:.\source\rte/sc_input.h ****       for( taskNum=0 ; taskNum < signal->pSigCfg->onUpdateTaskCount ;taskNum++){
 1521              		.loc 3 325 0
 1522 0044 B368     		ldr	r3, [r6, #8]
 1523 0046 73B1     		cbz	r3, .L102
 1524 0048 3DB9     		cbnz	r5, .L105
 1525 004a 0CE0     		b	.L102
ARM GAS  C:\Users\giris\AppData\Local\Temp\cceloVpD.s 			page 51


 1526              	.LVL152:
 1527              	.L104:
 1528              	.LBB139:
 1529              		.loc 3 329 0
 1530 004c 9968     		ldr	r1, [r3, #8]
 1531 004e 55F82400 		ldr	r0, [r5, r4, lsl #2]
 1532 0052 FFF7FEFF 		bl	EE_oo_SetEvent
 1533              	.LVL153:
 1534              	.LBE139:
 326:.\source\rte/sc_input.h **** 		  
 1535              		.loc 3 326 0
 1536 0056 0134     		adds	r4, r4, #1
 1537              	.LVL154:
 1538 0058 00E0     		b	.L103
 1539              	.LVL155:
 1540              	.L105:
 325:.\source\rte/sc_input.h ****       for( taskNum=0 ; taskNum < signal->pSigCfg->onUpdateTaskCount ;taskNum++){
 1541              		.loc 3 325 0
 1542 005a 0024     		movs	r4, #0
 1543              	.LVL156:
 1544              	.L103:
 326:.\source\rte/sc_input.h **** 		  
 1545              		.loc 3 326 0
 1546 005c 074B     		ldr	r3, .L107
 1547 005e DB6C     		ldr	r3, [r3, #76]
 1548 0060 1A69     		ldr	r2, [r3, #16]
 1549 0062 9442     		cmp	r4, r2
 1550 0064 F2D3     		bcc	.L104
 1551              	.LVL157:
 1552              	.L102:
 1553              	.LBE138:
 1554              	.LBE137:
 317:source\asw/clock.c ****     CLOCK__Dispatch_Wrapper(EV_KEYLEFT, CLOCK_MINWIDGET);
 1555              		.loc 1 317 0
 1556 0066 0021     		movs	r1, #0
 1557 0068 0120     		movs	r0, #1
 1558 006a FFF7FEFF 		bl	CLOCK__Dispatch_Wrapper
 1559              	.LVL158:
 318:source\asw/clock.c **** }
 1560              		.loc 1 318 0
 1561 006e 0121     		movs	r1, #1
 1562 0070 0846     		mov	r0, r1
 1563 0072 FFF7FEFF 		bl	CLOCK__Dispatch_Wrapper
 1564              	.LVL159:
 319:source\asw/clock.c **** 
 1565              		.loc 1 319 0
 1566 0076 22B0     		add	sp, sp, #136
 1567              		.cfi_def_cfa_offset 16
 1568              		@ sp needed
 1569 0078 70BD     		pop	{r4, r5, r6, pc}
 1570              	.L108:
 1571 007a 00BF     		.align	2
 1572              	.L107:
 1573 007c 00000000 		.word	SO_INPUTEVENT_signal
 1574              		.cfi_endproc
 1575              	.LFE149:
 1576              		.size	CLOCK__Dispatch_KL_HoursMin, .-CLOCK__Dispatch_KL_HoursMin
ARM GAS  C:\Users\giris\AppData\Local\Temp\cceloVpD.s 			page 52


 1577              		.section	.text.CLOCK__Dispatch_250MS_Min,"ax",%progbits
 1578              		.align	2
 1579              		.thumb
 1580              		.thumb_func
 1581              		.type	CLOCK__Dispatch_250MS_Min, %function
 1582              	CLOCK__Dispatch_250MS_Min:
 1583              	.LFB156:
 376:source\asw/clock.c **** //    UART_LOG_PutString("\nIn 250MS_Min Dispatch.....\n");
 1584              		.loc 1 376 0
 1585              		.cfi_startproc
 1586              		@ args = 0, pretend = 0, frame = 0
 1587              		@ frame_needed = 0, uses_anonymous_args = 0
 1588 0000 08B5     		push	{r3, lr}
 1589              		.cfi_def_cfa_offset 8
 1590              		.cfi_offset 3, -8
 1591              		.cfi_offset 14, -4
 379:source\asw/clock.c **** }
 1592              		.loc 1 379 0
 1593 0002 0121     		movs	r1, #1
 1594 0004 0420     		movs	r0, #4
 1595 0006 FFF7FEFF 		bl	CLOCK__Dispatch_Wrapper
 1596              	.LVL160:
 1597 000a 08BD     		pop	{r3, pc}
 1598              		.cfi_endproc
 1599              	.LFE156:
 1600              		.size	CLOCK__Dispatch_250MS_Min, .-CLOCK__Dispatch_250MS_Min
 1601              		.section	.text.CLOCK__Dispatch_KRLP_Min,"ax",%progbits
 1602              		.align	2
 1603              		.thumb
 1604              		.thumb_func
 1605              		.type	CLOCK__Dispatch_KRLP_Min, %function
 1606              	CLOCK__Dispatch_KRLP_Min:
 1607              	.LFB155:
 363:source\asw/clock.c **** //    UART_LOG_PutString("\nIn KRLP_Min Dispatch.....\n");
 1608              		.loc 1 363 0
 1609              		.cfi_startproc
 1610              		@ args = 0, pretend = 0, frame = 136
 1611              		@ frame_needed = 0, uses_anonymous_args = 0
 1612 0000 70B5     		push	{r4, r5, r6, lr}
 1613              		.cfi_def_cfa_offset 16
 1614              		.cfi_offset 4, -16
 1615              		.cfi_offset 5, -12
 1616              		.cfi_offset 6, -8
 1617              		.cfi_offset 14, -4
 1618 0002 A2B0     		sub	sp, sp, #136
 1619              		.cfi_def_cfa_offset 152
 1620              	.LVL161:
 1621              	.LBB140:
 1622              	.LBB141:
 277:.\source\rte/sc_input.h **** }                                                                                                  
 1623              		.loc 3 277 0
 1624 0004 194C     		ldr	r4, .L117
 1625 0006 4425     		movs	r5, #68
 1626 0008 2A46     		mov	r2, r5
 1627 000a 2146     		mov	r1, r4
 1628 000c 0DEB0500 		add	r0, sp, r5
 1629 0010 FFF7FEFF 		bl	memcpy
ARM GAS  C:\Users\giris\AppData\Local\Temp\cceloVpD.s 			page 53


 1630              	.LVL162:
 1631              	.LBE141:
 1632              	.LBE140:
 368:source\asw/clock.c ****     
 1633              		.loc 1 368 0
 1634 0014 0423     		movs	r3, #4
 1635 0016 8DF87030 		strb	r3, [sp, #112]
 1636              	.LVL163:
 1637 001a 2A46     		mov	r2, r5
 1638 001c 0DEB0501 		add	r1, sp, r5
 1639 0020 6846     		mov	r0, sp
 1640 0022 FFF7FEFF 		bl	memcpy
 1641              	.LVL164:
 1642              	.LBB142:
 1643              	.LBB143:
 316:.\source\rte/sc_input.h ****    signal->value  = value;
 1644              		.loc 3 316 0
 1645 0026 E66C     		ldr	r6, [r4, #76]
 317:.\source\rte/sc_input.h ****    signal->age    = 0;
 1646              		.loc 3 317 0
 1647 0028 2A46     		mov	r2, r5
 1648 002a 6946     		mov	r1, sp
 1649 002c 2046     		mov	r0, r4
 1650 002e FFF7FEFF 		bl	memcpy
 1651              	.LVL165:
 318:.\source\rte/sc_input.h ****    signal->status = RTE_SIGNALSTATUS_VALID;
 1652              		.loc 3 318 0
 1653 0032 0023     		movs	r3, #0
 1654 0034 A364     		str	r3, [r4, #72]
 319:.\source\rte/sc_input.h ****    if (TRUE == signal->pSigCfg->resourceActive) ReleaseResource(signal->pSigCfg->resource);
 1655              		.loc 3 319 0
 1656 0036 0223     		movs	r3, #2
 1657 0038 84F84430 		strb	r3, [r4, #68]
 323:.\source\rte/sc_input.h **** 
 1658              		.loc 3 323 0
 1659 003c 7569     		ldr	r5, [r6, #20]
 1660              	.LVL166:
 325:.\source\rte/sc_input.h ****       for( taskNum=0 ; taskNum < signal->pSigCfg->onUpdateTaskCount ;taskNum++){
 1661              		.loc 3 325 0
 1662 003e B368     		ldr	r3, [r6, #8]
 1663 0040 73B1     		cbz	r3, .L112
 1664 0042 3DB9     		cbnz	r5, .L115
 1665 0044 0CE0     		b	.L112
 1666              	.LVL167:
 1667              	.L114:
 1668              	.LBB144:
 1669              		.loc 3 329 0
 1670 0046 9968     		ldr	r1, [r3, #8]
 1671 0048 55F82400 		ldr	r0, [r5, r4, lsl #2]
 1672 004c FFF7FEFF 		bl	EE_oo_SetEvent
 1673              	.LVL168:
 1674              	.LBE144:
 326:.\source\rte/sc_input.h **** 		  
 1675              		.loc 3 326 0
 1676 0050 0134     		adds	r4, r4, #1
 1677              	.LVL169:
 1678 0052 00E0     		b	.L113
ARM GAS  C:\Users\giris\AppData\Local\Temp\cceloVpD.s 			page 54


 1679              	.LVL170:
 1680              	.L115:
 325:.\source\rte/sc_input.h ****       for( taskNum=0 ; taskNum < signal->pSigCfg->onUpdateTaskCount ;taskNum++){
 1681              		.loc 3 325 0
 1682 0054 0024     		movs	r4, #0
 1683              	.LVL171:
 1684              	.L113:
 326:.\source\rte/sc_input.h **** 		  
 1685              		.loc 3 326 0
 1686 0056 054B     		ldr	r3, .L117
 1687 0058 DB6C     		ldr	r3, [r3, #76]
 1688 005a 1A69     		ldr	r2, [r3, #16]
 1689 005c 9442     		cmp	r4, r2
 1690 005e F2D3     		bcc	.L114
 1691              	.LVL172:
 1692              	.L112:
 1693              	.LBE143:
 1694              	.LBE142:
 372:source\asw/clock.c **** }
 1695              		.loc 1 372 0
 1696 0060 0121     		movs	r1, #1
 1697 0062 0320     		movs	r0, #3
 1698 0064 FFF7FEFF 		bl	CLOCK__Dispatch_Wrapper
 1699              	.LVL173:
 373:source\asw/clock.c **** 
 1700              		.loc 1 373 0
 1701 0068 22B0     		add	sp, sp, #136
 1702              		.cfi_def_cfa_offset 16
 1703              		@ sp needed
 1704 006a 70BD     		pop	{r4, r5, r6, pc}
 1705              	.L118:
 1706              		.align	2
 1707              	.L117:
 1708 006c 00000000 		.word	SO_INPUTEVENT_signal
 1709              		.cfi_endproc
 1710              	.LFE155:
 1711              		.size	CLOCK__Dispatch_KRLP_Min, .-CLOCK__Dispatch_KRLP_Min
 1712              		.section	.text.CLOCK__Dispatch_KR_Min,"ax",%progbits
 1713              		.align	2
 1714              		.thumb
 1715              		.thumb_func
 1716              		.type	CLOCK__Dispatch_KR_Min, %function
 1717              	CLOCK__Dispatch_KR_Min:
 1718              	.LFB154:
 356:source\asw/clock.c **** //    UART_LOG_PutString("\nIn KR_Min Dispatch.....\n");
 1719              		.loc 1 356 0
 1720              		.cfi_startproc
 1721              		@ args = 0, pretend = 0, frame = 0
 1722              		@ frame_needed = 0, uses_anonymous_args = 0
 1723 0000 08B5     		push	{r3, lr}
 1724              		.cfi_def_cfa_offset 8
 1725              		.cfi_offset 3, -8
 1726              		.cfi_offset 14, -4
 359:source\asw/clock.c **** }
 1727              		.loc 1 359 0
 1728 0002 0121     		movs	r1, #1
 1729 0004 0220     		movs	r0, #2
ARM GAS  C:\Users\giris\AppData\Local\Temp\cceloVpD.s 			page 55


 1730 0006 FFF7FEFF 		bl	CLOCK__Dispatch_Wrapper
 1731              	.LVL174:
 1732 000a 08BD     		pop	{r3, pc}
 1733              		.cfi_endproc
 1734              	.LFE154:
 1735              		.size	CLOCK__Dispatch_KR_Min, .-CLOCK__Dispatch_KR_Min
 1736              		.section	.text.CLOCK__Dispatch_KL_Min,"ax",%progbits
 1737              		.align	2
 1738              		.thumb
 1739              		.thumb_func
 1740              		.type	CLOCK__Dispatch_KL_Min, %function
 1741              	CLOCK__Dispatch_KL_Min:
 1742              	.LFB153:
 349:source\asw/clock.c **** //    UART_LOG_PutString("\nIn KL_Min Dispatch.....\n");
 1743              		.loc 1 349 0
 1744              		.cfi_startproc
 1745              		@ args = 0, pretend = 0, frame = 0
 1746              		@ frame_needed = 0, uses_anonymous_args = 0
 1747 0000 08B5     		push	{r3, lr}
 1748              		.cfi_def_cfa_offset 8
 1749              		.cfi_offset 3, -8
 1750              		.cfi_offset 14, -4
 352:source\asw/clock.c **** }
 1751              		.loc 1 352 0
 1752 0002 0121     		movs	r1, #1
 1753 0004 0846     		mov	r0, r1
 1754 0006 FFF7FEFF 		bl	CLOCK__Dispatch_Wrapper
 1755              	.LVL175:
 1756 000a 08BD     		pop	{r3, pc}
 1757              		.cfi_endproc
 1758              	.LFE153:
 1759              		.size	CLOCK__Dispatch_KL_Min, .-CLOCK__Dispatch_KL_Min
 1760              		.section	.text.statemachine_init,"ax",%progbits
 1761              		.align	2
 1762              		.global	statemachine_init
 1763              		.thumb
 1764              		.thumb_func
 1765              		.type	statemachine_init, %function
 1766              	statemachine_init:
 1767              	.LFB144:
 191:source\asw/clock.c **** //    char buffer[100];
 1768              		.loc 1 191 0
 1769              		.cfi_startproc
 1770              		@ args = 0, pretend = 0, frame = 48
 1771              		@ frame_needed = 0, uses_anonymous_args = 0
 1772 0000 F0B5     		push	{r4, r5, r6, r7, lr}
 1773              		.cfi_def_cfa_offset 20
 1774              		.cfi_offset 4, -20
 1775              		.cfi_offset 5, -16
 1776              		.cfi_offset 6, -12
 1777              		.cfi_offset 7, -8
 1778              		.cfi_offset 14, -4
 1779 0002 8DB0     		sub	sp, sp, #52
 1780              		.cfi_def_cfa_offset 72
 1781              	.LVL176:
 1782              	.LBB145:
 1783              	.LBB146:
ARM GAS  C:\Users\giris\AppData\Local\Temp\cceloVpD.s 			page 56


 277:.\source\rte/sc_control.h **** }                                                                                                  
 1784              		.loc 2 277 0
 1785 0004 274F     		ldr	r7, .L129
 1786 0006 06AD     		add	r5, sp, #24
 1787 0008 3C46     		mov	r4, r7
 1788 000a 0FCC     		ldmia	r4!, {r0, r1, r2, r3}
 1789 000c 0FC5     		stmia	r5!, {r0, r1, r2, r3}
 1790 000e 94E80300 		ldmia	r4, {r0, r1}
 1791 0012 85E80300 		stmia	r5, {r0, r1}
 1792              	.LVL177:
 1793              	.LBE146:
 1794              	.LBE145:
 198:source\asw/clock.c ****     fontstyle.minute.font_type.size   =   3;
 1795              		.loc 1 198 0
 1796 0016 0323     		movs	r3, #3
 1797 0018 8DF81A30 		strb	r3, [sp, #26]
 199:source\asw/clock.c ****     
 1798              		.loc 1 199 0
 1799 001c 8DF82630 		strb	r3, [sp, #38]
 201:source\asw/clock.c ****     fontstyle.hour.font_type.y_pos    =   60;
 1800              		.loc 1 201 0
 1801 0020 1422     		movs	r2, #20
 1802 0022 8DF82020 		strb	r2, [sp, #32]
 202:source\asw/clock.c ****     
 1803              		.loc 1 202 0
 1804 0026 3C23     		movs	r3, #60
 1805 0028 8DF82130 		strb	r3, [sp, #33]
 204:source\asw/clock.c ****     fontstyle.minute.font_type.y_pos  =   60;
 1806              		.loc 1 204 0
 1807 002c 8DF82C20 		strb	r2, [sp, #44]
 205:source\asw/clock.c ****     
 1808              		.loc 1 205 0
 1809 0030 8DF82D30 		strb	r3, [sp, #45]
 207:source\asw/clock.c ****     fontstyle.minute.font_type.bg_colour      =   BLACK;
 1810              		.loc 1 207 0
 1811 0034 4FF0000E 		mov	lr, #0
 1812 0038 ADF81CE0 		strh	lr, [sp, #28]	@ movhi
 208:source\asw/clock.c ****     
 1813              		.loc 1 208 0
 1814 003c ADF828E0 		strh	lr, [sp, #40]	@ movhi
 210:source\asw/clock.c ****     fontstyle.minute.font_type.widget_colour  =   WHITE;
 1815              		.loc 1 210 0
 1816 0040 4FF6FF73 		movw	r3, #65535
 1817 0044 ADF81E30 		strh	r3, [sp, #30]	@ movhi
 211:source\asw/clock.c ****     
 1818              		.loc 1 211 0
 1819 0048 ADF82A30 		strh	r3, [sp, #42]	@ movhi
 1820              	.LVL178:
 1821 004c 6D46     		mov	r5, sp
 1822 004e 06AE     		add	r6, sp, #24
 1823 0050 0FCE     		ldmia	r6!, {r0, r1, r2, r3}
 1824 0052 0FC5     		stmia	r5!, {r0, r1, r2, r3}
 1825 0054 96E80300 		ldmia	r6, {r0, r1}
 1826 0058 85E80300 		stmia	r5, {r0, r1}
 1827              	.LVL179:
 1828              	.LBB147:
 1829              	.LBB148:
ARM GAS  C:\Users\giris\AppData\Local\Temp\cceloVpD.s 			page 57


 316:.\source\rte/sc_control.h ****    signal->value  = value;
 1830              		.loc 2 316 0
 1831 005c D7F820C0 		ldr	ip, [r7, #32]
 317:.\source\rte/sc_control.h ****    signal->age    = 0;
 1832              		.loc 2 317 0
 1833 0060 3E46     		mov	r6, r7
 1834 0062 6D46     		mov	r5, sp
 1835 0064 0FCD     		ldmia	r5!, {r0, r1, r2, r3}
 1836 0066 0FC6     		stmia	r6!, {r0, r1, r2, r3}
 1837 0068 95E80300 		ldmia	r5, {r0, r1}
 1838 006c 84E80300 		stmia	r4, {r0, r1}
 318:.\source\rte/sc_control.h ****    signal->status = RTE_SIGNALSTATUS_VALID;
 1839              		.loc 2 318 0
 1840 0070 C7F81CE0 		str	lr, [r7, #28]
 319:.\source\rte/sc_control.h ****    if (TRUE == signal->pSigCfg->resourceActive) ReleaseResource(signal->pSigCfg->resource);
 1841              		.loc 2 319 0
 1842 0074 0223     		movs	r3, #2
 1843 0076 3B76     		strb	r3, [r7, #24]
 323:.\source\rte/sc_control.h **** 
 1844              		.loc 2 323 0
 1845 0078 DCF81450 		ldr	r5, [ip, #20]
 1846              	.LVL180:
 325:.\source\rte/sc_control.h ****       for( taskNum=0 ; taskNum < signal->pSigCfg->onUpdateTaskCount ;taskNum++){
 1847              		.loc 2 325 0
 1848 007c DCF80830 		ldr	r3, [ip, #8]
 1849 0080 73B1     		cbz	r3, .L123
 1850 0082 3DB9     		cbnz	r5, .L127
 1851 0084 0CE0     		b	.L123
 1852              	.LVL181:
 1853              	.L126:
 1854              	.LBB149:
 1855              		.loc 2 329 0
 1856 0086 9968     		ldr	r1, [r3, #8]
 1857 0088 55F82400 		ldr	r0, [r5, r4, lsl #2]
 1858 008c FFF7FEFF 		bl	EE_oo_SetEvent
 1859              	.LVL182:
 1860              	.LBE149:
 326:.\source\rte/sc_control.h **** 		  
 1861              		.loc 2 326 0
 1862 0090 0134     		adds	r4, r4, #1
 1863              	.LVL183:
 1864 0092 00E0     		b	.L125
 1865              	.LVL184:
 1866              	.L127:
 325:.\source\rte/sc_control.h ****       for( taskNum=0 ; taskNum < signal->pSigCfg->onUpdateTaskCount ;taskNum++){
 1867              		.loc 2 325 0
 1868 0094 0024     		movs	r4, #0
 1869              	.LVL185:
 1870              	.L125:
 326:.\source\rte/sc_control.h **** 		  
 1871              		.loc 2 326 0
 1872 0096 034B     		ldr	r3, .L129
 1873 0098 1B6A     		ldr	r3, [r3, #32]
 1874 009a 1A69     		ldr	r2, [r3, #16]
 1875 009c 9442     		cmp	r4, r2
 1876 009e F2D3     		bcc	.L126
 1877              	.LVL186:
ARM GAS  C:\Users\giris\AppData\Local\Temp\cceloVpD.s 			page 58


 1878              	.L123:
 1879              	.LBE148:
 1880              	.LBE147:
 219:source\asw/clock.c **** 
 1881              		.loc 1 219 0
 1882 00a0 0DB0     		add	sp, sp, #52
 1883              		.cfi_def_cfa_offset 20
 1884              		@ sp needed
 1885 00a2 F0BD     		pop	{r4, r5, r6, r7, pc}
 1886              	.LVL187:
 1887              	.L130:
 1888              		.align	2
 1889              	.L129:
 1890 00a4 00000000 		.word	SO_CONTROL_signal
 1891              		.cfi_endproc
 1892              	.LFE144:
 1893              		.size	statemachine_init, .-statemachine_init
 1894              		.section	.text.ProcessEvent,"ax",%progbits
 1895              		.align	2
 1896              		.global	ProcessEvent
 1897              		.thumb
 1898              		.thumb_func
 1899              		.type	ProcessEvent, %function
 1900              	ProcessEvent:
 1901              	.LFB145:
 222:source\asw/clock.c ****     STATE_event_t local_event = event;
 1902              		.loc 1 222 0
 1903              		.cfi_startproc
 1904              		@ args = 0, pretend = 0, frame = 0
 1905              		@ frame_needed = 0, uses_anonymous_args = 0
 1906              	.LVL188:
 1907 0000 10B5     		push	{r4, lr}
 1908              		.cfi_def_cfa_offset 8
 1909              		.cfi_offset 4, -8
 1910              		.cfi_offset 14, -4
 1911 0002 82B0     		sub	sp, sp, #8
 1912              		.cfi_def_cfa_offset 16
 1913              	.LVL189:
 230:source\asw/clock.c **** }
 1914              		.loc 1 230 0
 1915 0004 064C     		ldr	r4, .L133
 1916 0006 074B     		ldr	r3, .L133+4
 1917 0008 0193     		str	r3, [sp, #4]
 1918 000a 0090     		str	r0, [sp]
 1919 000c 0123     		movs	r3, #1
 1920 000e 04F14802 		add	r2, r4, #72
 1921 0012 0321     		movs	r1, #3
 1922 0014 04F15400 		add	r0, r4, #84
 1923              	.LVL190:
 1924 0018 FFF7FEFF 		bl	STATE_processEvent
 1925              	.LVL191:
 231:source\asw/clock.c **** 
 1926              		.loc 1 231 0
 1927 001c 02B0     		add	sp, sp, #8
 1928              		.cfi_def_cfa_offset 8
 1929              		@ sp needed
 1930 001e 10BD     		pop	{r4, pc}
ARM GAS  C:\Users\giris\AppData\Local\Temp\cceloVpD.s 			page 59


 1931              	.L134:
 1932              		.align	2
 1933              	.L133:
 1934 0020 00000000 		.word	.LANCHOR0
 1935 0024 00000000 		.word	.LANCHOR1
 1936              		.cfi_endproc
 1937              	.LFE145:
 1938              		.size	ProcessEvent, .-ProcessEvent
 1939              		.global	STATE_CLOCK_W_ISAUTOINCREMENT_Transitions
 1940              		.global	STATE_CLOCK_W_ISEDITING_Transitions
 1941              		.global	STATE_CLOCK_W_ISDISPLAYING_Transitions
 1942              		.global	STATE_CLOCK_C_ISEDITINGMINUTES_Transitions
 1943              		.global	STATE_CLOCK_C_ISEDITINGHOURS_Transitions
 1944              		.global	STATE_CLOCK_C_ISDISPLAYING_Transitions
 1945              		.global	init_state
 1946              		.section	.rodata
 1947              		.align	2
 1948              		.set	.LANCHOR0,. + 0
 1949              		.type	CLOCK_Widget_Actions, %object
 1950              		.size	CLOCK_Widget_Actions, 36
 1951              	CLOCK_Widget_Actions:
 1952 0000 03       		.byte	3
 1953 0001 000000   		.space	3
 1954 0004 00000000 		.word	CLOCK__updateDisplay
 1955 0008 00000000 		.word	0
 1956 000c 04       		.byte	4
 1957 000d 000000   		.space	3
 1958 0010 00000000 		.word	CLOCK__updateDisplay
 1959 0014 00000000 		.word	0
 1960 0018 05       		.byte	5
 1961 0019 000000   		.space	3
 1962 001c 00000000 		.word	CLOCK__updateDisplay
 1963 0020 00000000 		.word	0
 1964              		.type	CLOCK_Widget_Transitions, %object
 1965              		.size	CLOCK_Widget_Transitions, 36
 1966              	CLOCK_Widget_Transitions:
 1967 0024 03       		.byte	3
 1968 0025 000000   		.space	3
 1969 0028 00000000 		.word	STATE_CLOCK_W_ISDISPLAYING_Transitions
 1970 002c 0100     		.short	1
 1971 002e 0000     		.space	2
 1972 0030 04       		.byte	4
 1973 0031 000000   		.space	3
 1974 0034 00000000 		.word	STATE_CLOCK_W_ISEDITING_Transitions
 1975 0038 0300     		.short	3
 1976 003a 0000     		.space	2
 1977 003c 05       		.byte	5
 1978 003d 000000   		.space	3
 1979 0040 00000000 		.word	STATE_CLOCK_W_ISAUTOINCREMENT_Transitions
 1980 0044 0200     		.short	2
 1981 0046 0000     		.space	2
 1982              		.type	CLOCK_Container_Actions, %object
 1983              		.size	CLOCK_Container_Actions, 12
 1984              	CLOCK_Container_Actions:
 1985 0048 00       		.byte	0
 1986 0049 000000   		.space	3
 1987 004c 00000000 		.word	CLOCK__updateDisplay
ARM GAS  C:\Users\giris\AppData\Local\Temp\cceloVpD.s 			page 60


 1988 0050 00000000 		.word	0
 1989              		.type	CLOCK_Container_Transitions, %object
 1990              		.size	CLOCK_Container_Transitions, 36
 1991              	CLOCK_Container_Transitions:
 1992 0054 00       		.byte	0
 1993 0055 000000   		.space	3
 1994 0058 00000000 		.word	STATE_CLOCK_C_ISDISPLAYING_Transitions
 1995 005c 0200     		.short	2
 1996 005e 0000     		.space	2
 1997 0060 01       		.byte	1
 1998 0061 000000   		.space	3
 1999 0064 00000000 		.word	STATE_CLOCK_C_ISEDITINGHOURS_Transitions
 2000 0068 0400     		.short	4
 2001 006a 0000     		.space	2
 2002 006c 02       		.byte	2
 2003 006d 000000   		.space	3
 2004 0070 00000000 		.word	STATE_CLOCK_C_ISEDITINGMINUTES_Transitions
 2005 0074 0400     		.short	4
 2006 0076 0000     		.space	2
 2007              		.type	STATE_CLOCK_W_ISAUTOINCREMENT_Transitions, %object
 2008              		.size	STATE_CLOCK_W_ISAUTOINCREMENT_Transitions, 24
 2009              	STATE_CLOCK_W_ISAUTOINCREMENT_Transitions:
 2010 0078 02       		.byte	2
 2011 0079 04       		.byte	4
 2012 007a 0000     		.space	2
 2013 007c 00000000 		.word	0
 2014 0080 00000000 		.word	CLOCK__incrementWidget
 2015 0084 04       		.byte	4
 2016 0085 05       		.byte	5
 2017 0086 0000     		.space	2
 2018 0088 00000000 		.word	0
 2019 008c 00000000 		.word	CLOCK__incrementWidget
 2020              		.type	STATE_CLOCK_W_ISEDITING_Transitions, %object
 2021              		.size	STATE_CLOCK_W_ISEDITING_Transitions, 36
 2022              	STATE_CLOCK_W_ISEDITING_Transitions:
 2023 0090 02       		.byte	2
 2024 0091 04       		.byte	4
 2025 0092 0000     		.space	2
 2026 0094 00000000 		.word	0
 2027 0098 00000000 		.word	CLOCK__incrementWidget
 2028 009c 03       		.byte	3
 2029 009d 05       		.byte	5
 2030 009e 0000     		.space	2
 2031 00a0 00000000 		.word	0
 2032 00a4 00000000 		.word	0
 2033 00a8 01       		.byte	1
 2034 00a9 03       		.byte	3
 2035 00aa 0000     		.space	2
 2036 00ac 00000000 		.word	0
 2037 00b0 00000000 		.word	CLOCK__setDisplayFonts
 2038              		.type	STATE_CLOCK_W_ISDISPLAYING_Transitions, %object
 2039              		.size	STATE_CLOCK_W_ISDISPLAYING_Transitions, 12
 2040              	STATE_CLOCK_W_ISDISPLAYING_Transitions:
 2041 00b4 01       		.byte	1
 2042 00b5 04       		.byte	4
 2043 00b6 0000     		.space	2
 2044 00b8 00000000 		.word	0
ARM GAS  C:\Users\giris\AppData\Local\Temp\cceloVpD.s 			page 61


 2045 00bc 00000000 		.word	CLOCK__setEditFonts
 2046              		.type	STATE_CLOCK_C_ISEDITINGMINUTES_Transitions, %object
 2047              		.size	STATE_CLOCK_C_ISEDITINGMINUTES_Transitions, 48
 2048              	STATE_CLOCK_C_ISEDITINGMINUTES_Transitions:
 2049 00c0 01       		.byte	1
 2050 00c1 00       		.byte	0
 2051 00c2 0000     		.space	2
 2052 00c4 00000000 		.word	0
 2053 00c8 00000000 		.word	CLOCK__Dispatch_KL_Min
 2054 00cc 02       		.byte	2
 2055 00cd 02       		.byte	2
 2056 00ce 0000     		.space	2
 2057 00d0 00000000 		.word	0
 2058 00d4 00000000 		.word	CLOCK__Dispatch_KR_Min
 2059 00d8 03       		.byte	3
 2060 00d9 02       		.byte	2
 2061 00da 0000     		.space	2
 2062 00dc 00000000 		.word	0
 2063 00e0 00000000 		.word	CLOCK__Dispatch_KRLP_Min
 2064 00e4 04       		.byte	4
 2065 00e5 02       		.byte	2
 2066 00e6 0000     		.space	2
 2067 00e8 00000000 		.word	0
 2068 00ec 00000000 		.word	CLOCK__Dispatch_250MS_Min
 2069              		.type	STATE_CLOCK_C_ISEDITINGHOURS_Transitions, %object
 2070              		.size	STATE_CLOCK_C_ISEDITINGHOURS_Transitions, 48
 2071              	STATE_CLOCK_C_ISEDITINGHOURS_Transitions:
 2072 00f0 01       		.byte	1
 2073 00f1 02       		.byte	2
 2074 00f2 0000     		.space	2
 2075 00f4 00000000 		.word	0
 2076 00f8 00000000 		.word	CLOCK__Dispatch_KL_HoursMin
 2077 00fc 02       		.byte	2
 2078 00fd 01       		.byte	1
 2079 00fe 0000     		.space	2
 2080 0100 00000000 		.word	0
 2081 0104 00000000 		.word	CLOCK__Dispatch_KR_Hours
 2082 0108 03       		.byte	3
 2083 0109 01       		.byte	1
 2084 010a 0000     		.space	2
 2085 010c 00000000 		.word	0
 2086 0110 00000000 		.word	CLOCK__Dispatch_KRLP_Hours
 2087 0114 04       		.byte	4
 2088 0115 01       		.byte	1
 2089 0116 0000     		.space	2
 2090 0118 00000000 		.word	0
 2091 011c 00000000 		.word	CLOCK__Dispatch_250MS_Hours
 2092              		.type	STATE_CLOCK_C_ISDISPLAYING_Transitions, %object
 2093              		.size	STATE_CLOCK_C_ISDISPLAYING_Transitions, 24
 2094              	STATE_CLOCK_C_ISDISPLAYING_Transitions:
 2095 0120 01       		.byte	1
 2096 0121 01       		.byte	1
 2097 0122 0000     		.space	2
 2098 0124 00000000 		.word	0
 2099 0128 00000000 		.word	CLOCK__Dispatch_KL_Hours
 2100 012c 05       		.byte	5
 2101 012d 00       		.byte	0
ARM GAS  C:\Users\giris\AppData\Local\Temp\cceloVpD.s 			page 62


 2102 012e 0000     		.space	2
 2103 0130 00000000 		.word	0
 2104 0134 00000000 		.word	CLOCK__Increment1Minute
 2105              		.bss
 2106              		.set	.LANCHOR1,. + 0
 2107              		.type	init_state, %object
 2108              		.size	init_state, 1
 2109              	init_state:
 2110 0000 00       		.space	1
 2111              		.text
 2112              	.Letext0:
 2113              		.file 4 ".\\source\\bsw/global.h"
 2114              		.file 5 "c:\\program files (x86)\\cypress\\psoc creator\\4.4\\psoc creator\\import\\gnu\\arm\\5.4.
 2115              		.file 6 "c:\\program files (x86)\\cypress\\psoc creator\\4.4\\psoc creator\\import\\gnu\\arm\\5.4.
 2116              		.file 7 "c:\\program files (x86)\\cypress\\psoc creator\\4.4\\psoc creator\\import\\gnu\\arm\\5.4.
 2117              		.file 8 ".\\source\\bsw\\tft/tft.h"
 2118              		.file 9 "source\\asw\\clock_type.h"
 2119              		.file 10 "Generated_Source\\PSoC5/ErikaOS_common_ee_types.inc"
 2120              		.file 11 "Generated_Source\\PSoC5/ErikaOS_cortex_mx_ee_cpu.inc"
 2121              		.file 12 "Generated_Source\\PSoC5/ErikaOS_ee_oo_common.inc"
 2122              		.file 13 ".\\source\\rte/rte_types.h"
 2123              		.file 14 ".\\source\\rte/rte.h"
 2124              		.file 15 ".\\source\\asw/statemachine.h"
 2125              		.file 16 ".\\source\\rte/sc_input_type.h"
 2126              		.file 17 ".\\source\\rte/sc_control_type.h"
 2127              		.file 18 "Generated_Source\\PSoC5/ErikaOS_ee_oo_intfunc.inc"
 2128              		.file 19 "Generated_Source\\PSoC5/ErikaOS_cortex_mx_ee_context.inc"
 2129              		.file 20 "Generated_Source\\PSoC5/ErikaOS_common_ee_primitives.inc"
 2130              		.file 21 "Generated_Source\\PSoC5/core_cm3.h"
 2131              		.file 22 ".\\source\\rte/sp_common.h"
 2132              		.file 23 "Generated_Source\\PSoC5/ErikaOS_ee_oo_kernel.inc"