ARM GAS  C:\Users\giris\AppData\Local\Temp\cceloVpD.s 			page 1


   1              		.syntax unified
   2              		.cpu cortex-m3
   3              		.fpu softvfp
   4              		.eabi_attribute 20, 1
   5              		.eabi_attribute 21, 1
   6              		.eabi_attribute 23, 3
   7              		.eabi_attribute 24, 1
   8              		.eabi_attribute 25, 1
   9              		.eabi_attribute 26, 1
  10              		.eabi_attribute 30, 1
  11              		.eabi_attribute 34, 1
  12              		.eabi_attribute 18, 4
  13              		.thumb
  14              		.syntax unified
  15              		.file	"clock.c"
  16              		.text
  17              	.Ltext0:
  18              		.cfi_sections	.debug_frame
  19              		.section	.text.CLOCK__setDisplayFonts,"ax",%progbits
  20              		.align	2
  21              		.thumb
  22              		.thumb_func
  23              		.type	CLOCK__setDisplayFonts, %function
  24              	CLOCK__setDisplayFonts:
  25              	.LFB158:
  26              		.file 1 "source\\asw\\clock.c"
   1:source\asw/clock.c **** /**
   2:source\asw/clock.c **** * \file <filename>
   3:source\asw/clock.c **** * \author <author-name>
   4:source\asw/clock.c **** * \date <date>
   5:source\asw/clock.c **** *
   6:source\asw/clock.c **** * \brief <Symbolic File name>
   7:source\asw/clock.c **** *
   8:source\asw/clock.c **** * \copyright Copyright ©2016
   9:source\asw/clock.c **** * Department of electrical engineering and information technology, Hochschule Darmstadt - Universit
  10:source\asw/clock.c **** * Permission to use, copy, modify, and distribute this software and its documentation for education
  11:source\asw/clock.c **** * (unless permitted by h_da) and official h_da projects, is hereby granted for enrolled students of
  12:source\asw/clock.c **** * this paragraph and the following paragraph appear in all copies, modifications, and distributions
  13:source\asw/clock.c **** * Contact Prof.Dr.-Ing. Peter Fromm, peter.fromm@h-da.de, Birkenweg 8 64295 Darmstadt - GERMANY for
  14:source\asw/clock.c **** *
  15:source\asw/clock.c **** * \warning This software is a PROTOTYPE version and is not designed or intended for use in producti
  16:source\asw/clock.c **** * The user represents and warrants that it will NOT use or redistribute the Software for such purpo
  17:source\asw/clock.c **** * This prototype is for research purposes only. This software is provided "AS IS," without a warran
  18:source\asw/clock.c **** */
  19:source\asw/clock.c **** 
  20:source\asw/clock.c **** /*****************************************************************************/
  21:source\asw/clock.c **** /* Include files                                                             */
  22:source\asw/clock.c **** /*****************************************************************************/
  23:source\asw/clock.c **** #include "clock.h"
  24:source\asw/clock.c **** #include "sp_common.h"
  25:source\asw/clock.c **** 
  26:source\asw/clock.c **** #include "stdlib.h"
  27:source\asw/clock.c **** /*****************************************************************************/
  28:source\asw/clock.c **** /* Local pre-processor symbols/macros ('#define')                            */
  29:source\asw/clock.c **** /*****************************************************************************/
  30:source\asw/clock.c **** 
  31:source\asw/clock.c **** /*****************************************************************************/
ARM GAS  C:\Users\giris\AppData\Local\Temp\cceloVpD.s 			page 2


  32:source\asw/clock.c **** /* Global variable definitions (declared in header file with 'extern')       */
  33:source\asw/clock.c **** /*****************************************************************************/
  34:source\asw/clock.c **** 
  35:source\asw/clock.c **** /*****************************************************************************/
  36:source\asw/clock.c **** /* Local type definitions ('typedef')                                        */
  37:source\asw/clock.c **** /*****************************************************************************/
  38:source\asw/clock.c **** 
  39:source\asw/clock.c **** /*****************************************************************************/
  40:source\asw/clock.c **** /* Local variable definitions ('static')                                     */
  41:source\asw/clock.c **** /*****************************************************************************/
  42:source\asw/clock.c **** STATE_state_t init_state = CLOCK_C_ISDISPLAYING;
  43:source\asw/clock.c **** 
  44:source\asw/clock.c **** 
  45:source\asw/clock.c **** /*****************************************************************************/
  46:source\asw/clock.c **** /* Local function prototypes ('static')                                      */
  47:source\asw/clock.c **** /*****************************************************************************/
  48:source\asw/clock.c **** 
  49:source\asw/clock.c **** /** ---------------------------- Actions ---------------------------------- **/
  50:source\asw/clock.c **** 
  51:source\asw/clock.c **** static void CLOCK__Dispatch_Wrapper(EVENT_t ev, CLOCK_Active_Widget_t widget);
  52:source\asw/clock.c **** 
  53:source\asw/clock.c **** static void CLOCK__Dispatch_KL_Hours();
  54:source\asw/clock.c **** 
  55:source\asw/clock.c **** static void CLOCK__Increment1Minute();
  56:source\asw/clock.c **** 
  57:source\asw/clock.c **** static void CLOCK__Dispatch_KL_HoursMin();
  58:source\asw/clock.c **** 
  59:source\asw/clock.c **** static void CLOCK__Dispatch_KR_Hours();
  60:source\asw/clock.c **** 
  61:source\asw/clock.c **** static void CLOCK__Dispatch_KRLP_Hours();
  62:source\asw/clock.c **** 
  63:source\asw/clock.c **** static void CLOCK__Dispatch_250MS_Hours();
  64:source\asw/clock.c **** 
  65:source\asw/clock.c **** static void CLOCK__Dispatch_KL_Min();
  66:source\asw/clock.c **** 
  67:source\asw/clock.c **** static void CLOCK__Dispatch_KR_Min();
  68:source\asw/clock.c **** 
  69:source\asw/clock.c **** static void CLOCK__Dispatch_KRLP_Min();
  70:source\asw/clock.c **** 
  71:source\asw/clock.c **** static void CLOCK__Dispatch_250MS_Min();
  72:source\asw/clock.c **** 
  73:source\asw/clock.c **** static void CLOCK__setEditFonts();
  74:source\asw/clock.c **** 
  75:source\asw/clock.c **** static void CLOCK__incrementWidget();
  76:source\asw/clock.c **** 
  77:source\asw/clock.c **** static void CLOCK__setDisplayFonts();
  78:source\asw/clock.c **** 
  79:source\asw/clock.c **** //static void CLOCK__updateTimeandDisplay();
  80:source\asw/clock.c **** 
  81:source\asw/clock.c **** static void CLOCK__updateDisplay();
  82:source\asw/clock.c **** 
  83:source\asw/clock.c **** static void CLOCK__updateTime();
  84:source\asw/clock.c **** 
  85:source\asw/clock.c **** static void CLOCK__IncrementHourandDisplay();
  86:source\asw/clock.c **** 
  87:source\asw/clock.c **** static void CLOCK__IncrementMinuteandDisplay();
  88:source\asw/clock.c **** 
ARM GAS  C:\Users\giris\AppData\Local\Temp\cceloVpD.s 			page 3


  89:source\asw/clock.c **** 
  90:source\asw/clock.c **** /*****************************************************************************/
  91:source\asw/clock.c **** /* Function implementation - global ('extern') and local ('static')          */
  92:source\asw/clock.c **** /*****************************************************************************/
  93:source\asw/clock.c **** 
  94:source\asw/clock.c **** /** ------------------------------------- Transitions Table Start ---------------------------------
  95:source\asw/clock.c **** 
  96:source\asw/clock.c **** /**============================== Container ================================ **/
  97:source\asw/clock.c **** 
  98:source\asw/clock.c **** /** ========= CLOCK_C_ISDISPLAYING ========== **/
  99:source\asw/clock.c **** const STATE_stateInnerTransition_t STATE_CLOCK_C_ISDISPLAYING_Transitions[] = 
 100:source\asw/clock.c **** {
 101:source\asw/clock.c ****     /*  Event               ToState                         Guard           Action                 
 102:source\asw/clock.c ****     {   EV_KEYLEFT,         CLOCK_C_ISEDITINGHOURS,         0,              CLOCK__Dispatch_KL_Hour
 103:source\asw/clock.c ****     {   EV_1MIN,            CLOCK_C_ISDISPLAYING,           0,              CLOCK__Increment1Minute
 104:source\asw/clock.c **** };
 105:source\asw/clock.c **** 
 106:source\asw/clock.c **** /** ========= CLOCK_C_ISEDITINGHOURS ========== **/
 107:source\asw/clock.c **** const STATE_stateInnerTransition_t STATE_CLOCK_C_ISEDITINGHOURS_Transitions[] = 
 108:source\asw/clock.c **** {
 109:source\asw/clock.c ****     /*  Event                       ToState                           Guard           Action       
 110:source\asw/clock.c ****     {   EV_KEYLEFT,                 CLOCK_C_ISEDITINGMINUTES,         0,              CLOCK__Dispat
 111:source\asw/clock.c ****     {   EV_KEYRIGHT,                CLOCK_C_ISEDITINGHOURS,           0,              CLOCK__Dispat
 112:source\asw/clock.c ****     {   EV_KEYRIGHTLONGPRESS,       CLOCK_C_ISEDITINGHOURS,           0,              CLOCK__Dispat
 113:source\asw/clock.c ****     {   EV_250MS,                   CLOCK_C_ISEDITINGHOURS,           0,              CLOCK__Dispat
 114:source\asw/clock.c **** };
 115:source\asw/clock.c **** 
 116:source\asw/clock.c **** /** ========= CLOCK_C_ISEDITINGMINUTES ========== **/
 117:source\asw/clock.c **** const STATE_stateInnerTransition_t STATE_CLOCK_C_ISEDITINGMINUTES_Transitions[] = 
 118:source\asw/clock.c **** {
 119:source\asw/clock.c ****     /*  Event                       ToState                         Guard           Action         
 120:source\asw/clock.c ****     {   EV_KEYLEFT,                 CLOCK_C_ISDISPLAYING,           0,              CLOCK__Dispatch
 121:source\asw/clock.c ****     {   EV_KEYRIGHT,                CLOCK_C_ISEDITINGMINUTES,       0,              CLOCK__Dispatch
 122:source\asw/clock.c ****     {   EV_KEYRIGHTLONGPRESS,       CLOCK_C_ISEDITINGMINUTES,       0,              CLOCK__Dispatch
 123:source\asw/clock.c ****     {   EV_250MS,                   CLOCK_C_ISEDITINGMINUTES,       0,              CLOCK__Dispatch
 124:source\asw/clock.c **** };
 125:source\asw/clock.c **** 
 126:source\asw/clock.c **** static const STATE_stateOuterTransitionTable_t CLOCK_Container_Transitions = 
 127:source\asw/clock.c **** {
 128:source\asw/clock.c ****     /*  fromState                     Pointer to table                                        Size 
 129:source\asw/clock.c ****     {   CLOCK_C_ISDISPLAYING,         &STATE_CLOCK_C_ISDISPLAYING_Transitions,                sizeo
 130:source\asw/clock.c ****     {   CLOCK_C_ISEDITINGHOURS,       &STATE_CLOCK_C_ISEDITINGHOURS_Transitions,              sizeo
 131:source\asw/clock.c ****     {   CLOCK_C_ISEDITINGMINUTES,     &STATE_CLOCK_C_ISEDITINGMINUTES_Transitions,            sizeo
 132:source\asw/clock.c **** };
 133:source\asw/clock.c **** static const uint16_t CLOCK_Container_Transitions_size = sizeof(CLOCK_Container_Transitions)/sizeof
 134:source\asw/clock.c **** 
 135:source\asw/clock.c **** /** ============= Container Action ============== **/
 136:source\asw/clock.c **** static const STATE_stateActionTable_t CLOCK_Container_Actions = 
 137:source\asw/clock.c **** {
 138:source\asw/clock.c ****     /*  fromState                   actionEntry                   actionExit          */
 139:source\asw/clock.c ****     {   CLOCK_C_ISDISPLAYING,       CLOCK__updateDisplay,         0                   },
 140:source\asw/clock.c **** };
 141:source\asw/clock.c **** static const uint16_t CLOCK_Container_Actions_size = sizeof(CLOCK_Container_Actions)/sizeof(STATE_s
 142:source\asw/clock.c **** 
 143:source\asw/clock.c **** /**============================== WIDGET ================================ **/
 144:source\asw/clock.c **** 
 145:source\asw/clock.c **** /** ========= CLOCK_W_ISDISPLAYING =========== **/
ARM GAS  C:\Users\giris\AppData\Local\Temp\cceloVpD.s 			page 4


 146:source\asw/clock.c **** const STATE_stateInnerTransition_t STATE_CLOCK_W_ISDISPLAYING_Transitions[] = 
 147:source\asw/clock.c **** {
 148:source\asw/clock.c ****     /*  Event               ToState                    Guard           Action                  */
 149:source\asw/clock.c ****     {   EV_KEYLEFT,         CLOCK_W_ISEDITING,         0,              CLOCK__setEditFonts     },
 150:source\asw/clock.c **** };
 151:source\asw/clock.c **** 
 152:source\asw/clock.c **** /** ========= CLOCK_W_ISEDITING ============== **/
 153:source\asw/clock.c **** const STATE_stateInnerTransition_t STATE_CLOCK_W_ISEDITING_Transitions[] = 
 154:source\asw/clock.c **** {
 155:source\asw/clock.c ****     /*  Event                       ToState                         Guard           Action         
 156:source\asw/clock.c ****     {   EV_KEYRIGHT,                CLOCK_W_ISEDITING,              0,              CLOCK__incremen
 157:source\asw/clock.c ****     {   EV_KEYRIGHTLONGPRESS,       CLOCK_W_ISAUTOINCREMENT,        0,              0              
 158:source\asw/clock.c ****     {   EV_KEYLEFT,                 CLOCK_W_ISDISPLAYING,           0,              CLOCK__setDispl
 159:source\asw/clock.c **** };
 160:source\asw/clock.c **** 
 161:source\asw/clock.c **** /** ========= CLOCK_W_ISAUTOINCREMENT ========== **/
 162:source\asw/clock.c **** const STATE_stateInnerTransition_t STATE_CLOCK_W_ISAUTOINCREMENT_Transitions[] = 
 163:source\asw/clock.c **** {
 164:source\asw/clock.c ****     /*  Event                       ToState                         Guard           Action         
 165:source\asw/clock.c ****     {   EV_KEYRIGHT,                CLOCK_W_ISEDITING,              0,              CLOCK__incremen
 166:source\asw/clock.c ****     {   EV_250MS,                   CLOCK_W_ISAUTOINCREMENT,        0,              CLOCK__incremen
 167:source\asw/clock.c **** };
 168:source\asw/clock.c **** 
 169:source\asw/clock.c **** static const STATE_stateOuterTransitionTable_t CLOCK_Widget_Transitions = 
 170:source\asw/clock.c **** {
 171:source\asw/clock.c ****     /*  fromState                   Pointer to table                                Size of table [
 172:source\asw/clock.c ****     {   CLOCK_W_ISDISPLAYING,       &STATE_CLOCK_W_ISDISPLAYING_Transitions,        sizeof(STATE_CL
 173:source\asw/clock.c ****     {   CLOCK_W_ISEDITING,          &STATE_CLOCK_W_ISEDITING_Transitions,           sizeof(STATE_CL
 174:source\asw/clock.c ****     {   CLOCK_W_ISAUTOINCREMENT,    &STATE_CLOCK_W_ISAUTOINCREMENT_Transitions,     sizeof(STATE_CL
 175:source\asw/clock.c **** };
 176:source\asw/clock.c **** static const uint16_t CLOCK_Widget_Transitions_size = sizeof(CLOCK_Container_Transitions)/sizeof(ST
 177:source\asw/clock.c **** 
 178:source\asw/clock.c **** /** ============= Widget Action ============== **/
 179:source\asw/clock.c **** static const STATE_stateActionTable_t CLOCK_Widget_Actions = 
 180:source\asw/clock.c **** {
 181:source\asw/clock.c ****     /*  fromState                   actionEntry                  actionExit          */
 182:source\asw/clock.c ****     {   CLOCK_W_ISDISPLAYING,       CLOCK__updateDisplay,        0                   },
 183:source\asw/clock.c ****     {   CLOCK_W_ISEDITING,          CLOCK__updateDisplay,        0                   },
 184:source\asw/clock.c ****     {   CLOCK_W_ISAUTOINCREMENT,    CLOCK__updateDisplay,        0                   },
 185:source\asw/clock.c **** };
 186:source\asw/clock.c **** static const uint16_t CLOCK_Widget_Actions_size = sizeof(CLOCK_Widget_Actions)/sizeof(STATE_stateAc
 187:source\asw/clock.c **** 
 188:source\asw/clock.c **** /** ------------------------------------- Transitions Table End -----------------------------------
 189:source\asw/clock.c **** 
 190:source\asw/clock.c **** void statemachine_init()
 191:source\asw/clock.c **** {
 192:source\asw/clock.c **** //    char buffer[100];
 193:source\asw/clock.c **** 
 194:source\asw/clock.c ****     SC_CONTROL_data_t fontstyle     =   SC_CONTROL_INIT_DATA;
 195:source\asw/clock.c ****         
 196:source\asw/clock.c ****     fontstyle   =   RTE_SC_CONTROL_get(&SO_CONTROL_signal);
 197:source\asw/clock.c ****     
 198:source\asw/clock.c ****     fontstyle.hour.font_type.size     =   3;
 199:source\asw/clock.c ****     fontstyle.minute.font_type.size   =   3;
 200:source\asw/clock.c ****     
 201:source\asw/clock.c ****     fontstyle.hour.font_type.x_pos    =   20;
 202:source\asw/clock.c ****     fontstyle.hour.font_type.y_pos    =   60;
ARM GAS  C:\Users\giris\AppData\Local\Temp\cceloVpD.s 			page 5


 203:source\asw/clock.c ****     
 204:source\asw/clock.c ****     fontstyle.minute.font_type.x_pos  =   20;
 205:source\asw/clock.c ****     fontstyle.minute.font_type.y_pos  =   60;
 206:source\asw/clock.c ****     
 207:source\asw/clock.c ****     fontstyle.hour.font_type.bg_colour        =   BLACK;
 208:source\asw/clock.c ****     fontstyle.minute.font_type.bg_colour      =   BLACK;
 209:source\asw/clock.c ****     
 210:source\asw/clock.c ****     fontstyle.hour.font_type.widget_colour    =   WHITE;
 211:source\asw/clock.c ****     fontstyle.minute.font_type.widget_colour  =   WHITE;
 212:source\asw/clock.c ****     
 213:source\asw/clock.c **** //    itoa(fontstyle.minute.font_type.widget_colour, buffer, 10);
 214:source\asw/clock.c **** //    UART_LOG_PutString("X pos: ");
 215:source\asw/clock.c **** //    UART_LOG_PutString(buffer);
 216:source\asw/clock.c **** //    UART_LOG_PutString("\n");
 217:source\asw/clock.c ****     
 218:source\asw/clock.c ****     RTE_SC_CONTROL_set(&SO_CONTROL_signal, fontstyle);
 219:source\asw/clock.c **** }
 220:source\asw/clock.c **** 
 221:source\asw/clock.c **** void ProcessEvent(STATE_event_t event)
 222:source\asw/clock.c **** {
 223:source\asw/clock.c ****     STATE_event_t local_event = event;
 224:source\asw/clock.c ****    
 225:source\asw/clock.c **** //    char buffer[100];
 226:source\asw/clock.c **** //    UART_LOG_PutString("in process event function...\n");
 227:source\asw/clock.c **** //    itoa(local_event, buffer, 10);
 228:source\asw/clock.c **** //    UART_LOG_PutString(buffer);
 229:source\asw/clock.c ****     
 230:source\asw/clock.c ****     STATE_processEvent(CLOCK_Container_Transitions, CLOCK_Container_Transitions_size, CLOCK_Contain
 231:source\asw/clock.c **** }
 232:source\asw/clock.c **** 
 233:source\asw/clock.c **** void CLOCK__Dispatch_Wrapper(EVENT_t ev, CLOCK_Active_Widget_t widget)
 234:source\asw/clock.c **** {
 235:source\asw/clock.c ****     SC_INPUT_data_t clock = RTE_SC_INPUT_get(&SO_INPUTEVENT_signal);
 236:source\asw/clock.c ****     
 237:source\asw/clock.c ****     clock.m_ev = EV_NONE;
 238:source\asw/clock.c ****     
 239:source\asw/clock.c ****     clock.m_clock_data.m_activeWidget = widget;
 240:source\asw/clock.c ****     
 241:source\asw/clock.c ****     RTE_SC_INPUT_set(&SO_INPUTEVENT_signal, clock);
 242:source\asw/clock.c ****     
 243:source\asw/clock.c **** //    char buffer[100];
 244:source\asw/clock.c **** //    UART_LOG_PutString("in clock dispatch wrapper function...\n");
 245:source\asw/clock.c **** //    
 246:source\asw/clock.c **** //    itoa(clock.m_clock_data.m_activeWidget, buffer, 10);
 247:source\asw/clock.c **** //    UART_LOG_PutString(buffer);
 248:source\asw/clock.c **** //    UART_LOG_PutString("\n");
 249:source\asw/clock.c ****     
 250:source\asw/clock.c ****     if(widget == CLOCK_HOURWIDGET)
 251:source\asw/clock.c ****     {
 252:source\asw/clock.c ****         STATE_state_t localstate = clock.m_clock_data.m_hours.m_widgetState;
 253:source\asw/clock.c ****         
 254:source\asw/clock.c **** //        UART_LOG_PutString("Hour widget state: ");
 255:source\asw/clock.c **** //        itoa(localstate, buffer, 10);
 256:source\asw/clock.c **** //        UART_LOG_PutString(buffer);
 257:source\asw/clock.c **** //        UART_LOG_PutString("\n");
 258:source\asw/clock.c ****         
 259:source\asw/clock.c ****         STATE_processEvent(CLOCK_Widget_Transitions, CLOCK_Widget_Transitions_size, CLOCK_Widget_Ac
ARM GAS  C:\Users\giris\AppData\Local\Temp\cceloVpD.s 			page 6


 260:source\asw/clock.c ****         
 261:source\asw/clock.c ****         clock = RTE_SC_INPUT_get(&SO_INPUTEVENT_signal);
 262:source\asw/clock.c ****         
 263:source\asw/clock.c ****         clock.m_clock_data.m_hours.m_widgetState = localstate;
 264:source\asw/clock.c ****         
 265:source\asw/clock.c ****         RTE_SC_INPUT_set(&SO_INPUTEVENT_signal, clock);
 266:source\asw/clock.c ****     }
 267:source\asw/clock.c ****     else if(widget == CLOCK_MINWIDGET)
 268:source\asw/clock.c ****     {
 269:source\asw/clock.c ****         STATE_state_t localstate = clock.m_clock_data.m_minutes.m_widgetState;
 270:source\asw/clock.c ****         
 271:source\asw/clock.c **** //        UART_LOG_PutString("Minute widget state: ");
 272:source\asw/clock.c **** //        itoa(localstate, buffer, 10);
 273:source\asw/clock.c **** //        UART_LOG_PutString(buffer);
 274:source\asw/clock.c **** //        UART_LOG_PutString("\n");
 275:source\asw/clock.c ****         
 276:source\asw/clock.c ****         STATE_processEvent(CLOCK_Widget_Transitions, CLOCK_Widget_Transitions_size, CLOCK_Widget_Ac
 277:source\asw/clock.c ****         
 278:source\asw/clock.c ****         clock = RTE_SC_INPUT_get(&SO_INPUTEVENT_signal);
 279:source\asw/clock.c ****         
 280:source\asw/clock.c ****         clock.m_clock_data.m_minutes.m_widgetState = localstate;
 281:source\asw/clock.c ****         
 282:source\asw/clock.c ****         RTE_SC_INPUT_set(&SO_INPUTEVENT_signal, clock);
 283:source\asw/clock.c ****     }
 284:source\asw/clock.c **** }
 285:source\asw/clock.c **** 
 286:source\asw/clock.c **** void CLOCK__Dispatch_KL_Hours()
 287:source\asw/clock.c **** {
 288:source\asw/clock.c **** //    UART_LOG_PutString("\nIn KL hours Dispatch.....\n");
 289:source\asw/clock.c **** 
 290:source\asw/clock.c ****     SC_INPUT_data_t clock = RTE_SC_INPUT_get(&SO_INPUTEVENT_signal);
 291:source\asw/clock.c ****     
 292:source\asw/clock.c ****     clock.m_clock_data.m_hours.m_widgetState = CLOCK_W_ISDISPLAYING;
 293:source\asw/clock.c ****     
 294:source\asw/clock.c ****     RTE_SC_INPUT_set(&SO_INPUTEVENT_signal, clock);
 295:source\asw/clock.c ****     
 296:source\asw/clock.c ****     CLOCK__Dispatch_Wrapper(EV_KEYLEFT, CLOCK_HOURWIDGET);
 297:source\asw/clock.c **** }
 298:source\asw/clock.c **** 
 299:source\asw/clock.c **** void CLOCK__Increment1Minute()
 300:source\asw/clock.c **** {
 301:source\asw/clock.c **** //    UART_LOG_PutString("\nIn Increment1Minute Dispatch.....\n");
 302:source\asw/clock.c ****     
 303:source\asw/clock.c ****     CLOCK__updateTime();
 304:source\asw/clock.c **** }
 305:source\asw/clock.c **** 
 306:source\asw/clock.c **** void CLOCK__Dispatch_KL_HoursMin()
 307:source\asw/clock.c **** {
 308:source\asw/clock.c **** //    UART_LOG_PutString("\nIn KL_HoursMin Dispatch.....\n");
 309:source\asw/clock.c ****     
 310:source\asw/clock.c ****     SC_INPUT_data_t clock = RTE_SC_INPUT_get(&SO_INPUTEVENT_signal);
 311:source\asw/clock.c ****     
 312:source\asw/clock.c ****     clock.m_clock_data.m_hours.m_widgetState = CLOCK_W_ISEDITING;
 313:source\asw/clock.c ****     clock.m_clock_data.m_minutes.m_widgetState = CLOCK_W_ISDISPLAYING;
 314:source\asw/clock.c ****     
 315:source\asw/clock.c ****     RTE_SC_INPUT_set(&SO_INPUTEVENT_signal, clock);
 316:source\asw/clock.c ****     
ARM GAS  C:\Users\giris\AppData\Local\Temp\cceloVpD.s 			page 7


 317:source\asw/clock.c ****     CLOCK__Dispatch_Wrapper(EV_KEYLEFT, CLOCK_HOURWIDGET);
 318:source\asw/clock.c ****     CLOCK__Dispatch_Wrapper(EV_KEYLEFT, CLOCK_MINWIDGET);
 319:source\asw/clock.c **** }
 320:source\asw/clock.c **** 
 321:source\asw/clock.c **** void CLOCK__Dispatch_KR_Hours()
 322:source\asw/clock.c **** {
 323:source\asw/clock.c **** //    UART_LOG_PutString("\nIn KR_Hours Dispatch.....\n");
 324:source\asw/clock.c ****     
 325:source\asw/clock.c ****     CLOCK__Dispatch_Wrapper(EV_KEYRIGHT, CLOCK_HOURWIDGET);
 326:source\asw/clock.c **** }
 327:source\asw/clock.c **** 
 328:source\asw/clock.c **** void CLOCK__Dispatch_KRLP_Hours()
 329:source\asw/clock.c **** {
 330:source\asw/clock.c **** //    UART_LOG_PutString("\nIn KRLP_Hours Dispatch.....\n");
 331:source\asw/clock.c ****     
 332:source\asw/clock.c ****     SC_INPUT_data_t clock = RTE_SC_INPUT_get(&SO_INPUTEVENT_signal);
 333:source\asw/clock.c ****     
 334:source\asw/clock.c ****     clock.m_clock_data.m_hours.m_widgetState = CLOCK_W_ISEDITING;
 335:source\asw/clock.c ****     
 336:source\asw/clock.c ****     RTE_SC_INPUT_set(&SO_INPUTEVENT_signal, clock);
 337:source\asw/clock.c ****     
 338:source\asw/clock.c ****     CLOCK__Dispatch_Wrapper(EV_KEYRIGHTLONGPRESS, CLOCK_HOURWIDGET);
 339:source\asw/clock.c **** }
 340:source\asw/clock.c **** 
 341:source\asw/clock.c **** void CLOCK__Dispatch_250MS_Hours()
 342:source\asw/clock.c **** {
 343:source\asw/clock.c **** //    UART_LOG_PutString("\nIn 250MS_Hours Dispatch.....\n");
 344:source\asw/clock.c ****     
 345:source\asw/clock.c ****     CLOCK__Dispatch_Wrapper(EV_250MS, CLOCK_HOURWIDGET);
 346:source\asw/clock.c **** }
 347:source\asw/clock.c **** 
 348:source\asw/clock.c **** void CLOCK__Dispatch_KL_Min()
 349:source\asw/clock.c **** {
 350:source\asw/clock.c **** //    UART_LOG_PutString("\nIn KL_Min Dispatch.....\n");
 351:source\asw/clock.c ****     
 352:source\asw/clock.c ****     CLOCK__Dispatch_Wrapper(EV_KEYLEFT, CLOCK_MINWIDGET);
 353:source\asw/clock.c **** }
 354:source\asw/clock.c **** 
 355:source\asw/clock.c **** void CLOCK__Dispatch_KR_Min()
 356:source\asw/clock.c **** {
 357:source\asw/clock.c **** //    UART_LOG_PutString("\nIn KR_Min Dispatch.....\n");
 358:source\asw/clock.c ****     
 359:source\asw/clock.c ****     CLOCK__Dispatch_Wrapper(EV_KEYRIGHT, CLOCK_MINWIDGET);
 360:source\asw/clock.c **** }
 361:source\asw/clock.c **** 
 362:source\asw/clock.c **** void CLOCK__Dispatch_KRLP_Min()
 363:source\asw/clock.c **** {
 364:source\asw/clock.c **** //    UART_LOG_PutString("\nIn KRLP_Min Dispatch.....\n");
 365:source\asw/clock.c ****     
 366:source\asw/clock.c ****     SC_INPUT_data_t clock = RTE_SC_INPUT_get(&SO_INPUTEVENT_signal);
 367:source\asw/clock.c ****     
 368:source\asw/clock.c ****     clock.m_clock_data.m_minutes.m_widgetState = CLOCK_W_ISEDITING;
 369:source\asw/clock.c ****     
 370:source\asw/clock.c ****     RTE_SC_INPUT_set(&SO_INPUTEVENT_signal, clock);
 371:source\asw/clock.c ****     
 372:source\asw/clock.c ****     CLOCK__Dispatch_Wrapper(EV_KEYRIGHTLONGPRESS, CLOCK_MINWIDGET);
 373:source\asw/clock.c **** }
ARM GAS  C:\Users\giris\AppData\Local\Temp\cceloVpD.s 			page 8


 374:source\asw/clock.c **** 
 375:source\asw/clock.c **** void CLOCK__Dispatch_250MS_Min()
 376:source\asw/clock.c **** {
 377:source\asw/clock.c **** //    UART_LOG_PutString("\nIn 250MS_Min Dispatch.....\n");
 378:source\asw/clock.c ****     
 379:source\asw/clock.c ****     CLOCK__Dispatch_Wrapper(EV_250MS, CLOCK_MINWIDGET);
 380:source\asw/clock.c **** }
 381:source\asw/clock.c **** 
 382:source\asw/clock.c **** void CLOCK__incrementWidget()
 383:source\asw/clock.c **** {
 384:source\asw/clock.c **** //    UART_LOG_PutString("\nIn increment widget Dispatch.....\n");
 385:source\asw/clock.c ****     
 386:source\asw/clock.c ****     SC_INPUT_data_t clock = RTE_SC_INPUT_get(&SO_INPUTEVENT_signal);
 387:source\asw/clock.c ****     
 388:source\asw/clock.c ****     if(clock.m_clock_data.m_activeWidget == CLOCK_HOURWIDGET)
 389:source\asw/clock.c ****     {
 390:source\asw/clock.c **** //        UART_LOG_PutString("increment Hour and Display the time.....\n");
 391:source\asw/clock.c ****         CLOCK__IncrementHourandDisplay();
 392:source\asw/clock.c ****     }
 393:source\asw/clock.c ****     else if(clock.m_clock_data.m_activeWidget == CLOCK_MINWIDGET)
 394:source\asw/clock.c ****     {
 395:source\asw/clock.c **** //        UART_LOG_PutString("increment Minute and Display the time.....\n");
 396:source\asw/clock.c ****         CLOCK__IncrementMinuteandDisplay();
 397:source\asw/clock.c ****     }
 398:source\asw/clock.c ****     
 399:source\asw/clock.c **** }
 400:source\asw/clock.c **** 
 401:source\asw/clock.c **** void CLOCK__setDisplayFonts()
 402:source\asw/clock.c **** {
  27              		.loc 1 402 0
  28              		.cfi_startproc
  29              		@ args = 0, pretend = 0, frame = 48
  30              		@ frame_needed = 0, uses_anonymous_args = 0
  31 0000 F0B5     		push	{r4, r5, r6, r7, lr}
  32              		.cfi_def_cfa_offset 20
  33              		.cfi_offset 4, -20
  34              		.cfi_offset 5, -16
  35              		.cfi_offset 6, -12
  36              		.cfi_offset 7, -8
  37              		.cfi_offset 14, -4
  38 0002 8DB0     		sub	sp, sp, #52
  39              		.cfi_def_cfa_offset 72
  40              	.LVL0:
  41              	.LBB76:
  42              	.LBB77:
  43              		.file 2 ".\\source\\rte/sc_control.h"
   1:.\source\rte/sc_control.h **** 
   2:.\source\rte/sc_control.h **** 
   3:.\source\rte/sc_control.h **** /**
   4:.\source\rte/sc_control.h ****  *  file    SC_CONTROL_signal.h
   5:.\source\rte/sc_control.h ****  *
   6:.\source\rte/sc_control.h ****  *  brief   signal base class for signal sc_control
   7:.\source\rte/sc_control.h ****  *
   8:.\source\rte/sc_control.h ****  *  author  Autogenerated, Peter Fromm       <peter.fromm@h-da.de>
   9:.\source\rte/sc_control.h ****  *
  10:.\source\rte/sc_control.h ****  * description: Signalclass
  11:.\source\rte/sc_control.h ****  * name: sc_control
ARM GAS  C:\Users\giris\AppData\Local\Temp\cceloVpD.s 			page 9


  12:.\source\rte/sc_control.h ****  * shortname: control
  13:.\source\rte/sc_control.h ****  *
  14:.\source\rte/sc_control.h ****  */
  15:.\source\rte/sc_control.h **** 
  16:.\source\rte/sc_control.h **** 
  17:.\source\rte/sc_control.h **** 
  18:.\source\rte/sc_control.h **** #ifndef SC_CONTROL_SIGNAL_H_INCLUDED
  19:.\source\rte/sc_control.h **** #define SC_CONTROL_SIGNAL_H_INCLUDED
  20:.\source\rte/sc_control.h **** 
  21:.\source\rte/sc_control.h **** /*================================================[ public includes  ]=============================
  22:.\source\rte/sc_control.h **** #include "global.h"
  23:.\source\rte/sc_control.h **** #include "project.h"
  24:.\source\rte/sc_control.h **** #include "rte.h"
  25:.\source\rte/sc_control.h **** #include "rte_types.h"
  26:.\source\rte/sc_control.h **** 
  27:.\source\rte/sc_control.h **** #include "sc_control_type.h"
  28:.\source\rte/sc_control.h **** 
  29:.\source\rte/sc_control.h **** 
  30:.\source\rte/sc_control.h **** /**************************************************************************************************
  31:.\source\rte/sc_control.h **** /* The driver API block																						*/
  32:.\source\rte/sc_control.h **** /**************************************************************************************************
  33:.\source\rte/sc_control.h ****                                                                                                    
  34:.\source\rte/sc_control.h **** /**
  35:.\source\rte/sc_control.h ****  *  Definition of function types for driver interfaces.
  36:.\source\rte/sc_control.h ****  *  I-Port
  37:.\source\rte/sc_control.h ****  */
  38:.\source\rte/sc_control.h **** typedef RC_t (*SC_CONTROL_driverIn_t)(SC_CONTROL_data_t * const);
  39:.\source\rte/sc_control.h **** 
  40:.\source\rte/sc_control.h **** /**
  41:.\source\rte/sc_control.h ****  *  Definition of function types for driver interfaces.
  42:.\source\rte/sc_control.h ****  *  O-Port
  43:.\source\rte/sc_control.h ****  */
  44:.\source\rte/sc_control.h **** typedef RC_t (*SC_CONTROL_driverOut_t)( const SC_CONTROL_data_t * const);
  45:.\source\rte/sc_control.h **** 
  46:.\source\rte/sc_control.h **** 
  47:.\source\rte/sc_control.h **** /**************************************************************************************************
  48:.\source\rte/sc_control.h **** /* The signal configuration API block																				*/
  49:.\source\rte/sc_control.h **** /**************************************************************************************************
  50:.\source\rte/sc_control.h **** 
  51:.\source\rte/sc_control.h **** /**
  52:.\source\rte/sc_control.h ****  * Instances of the struct SC_CONTROL_cfg_t represent the signal object configuration.
  53:.\source\rte/sc_control.h ****  */
  54:.\source\rte/sc_control.h **** struct SC_CONTROL_cfg_s
  55:.\source\rte/sc_control.h **** {
  56:.\source\rte/sc_control.h ****     /**
  57:.\source\rte/sc_control.h ****      * Function pointer to the input driver
  58:.\source\rte/sc_control.h ****      */
  59:.\source\rte/sc_control.h ****     SC_CONTROL_driverIn_t const inDriver;
  60:.\source\rte/sc_control.h **** 
  61:.\source\rte/sc_control.h ****     /**
  62:.\source\rte/sc_control.h ****      * Function pointer to the output driver table
  63:.\source\rte/sc_control.h ****      */
  64:.\source\rte/sc_control.h ****    SC_CONTROL_driverOut_t const outDriver;
  65:.\source\rte/sc_control.h ****    
  66:.\source\rte/sc_control.h ****     /**
  67:.\source\rte/sc_control.h ****      * Event onUpdate
  68:.\source\rte/sc_control.h ****      */
ARM GAS  C:\Users\giris\AppData\Local\Temp\cceloVpD.s 			page 10


  69:.\source\rte/sc_control.h ****     EventMaskType const evOnUpdate;
  70:.\source\rte/sc_control.h ****     
  71:.\source\rte/sc_control.h ****     
  72:.\source\rte/sc_control.h ****     /**
  73:.\source\rte/sc_control.h ****      * Event onError
  74:.\source\rte/sc_control.h ****      */
  75:.\source\rte/sc_control.h ****     EventMaskType const evOnError;
  76:.\source\rte/sc_control.h ****     
  77:.\source\rte/sc_control.h ****     /**
  78:.\source\rte/sc_control.h ****      * Task Count onUpdate
  79:.\source\rte/sc_control.h ****      */
  80:.\source\rte/sc_control.h ****     size_t const onUpdateTaskCount;
  81:.\source\rte/sc_control.h **** 
  82:.\source\rte/sc_control.h ****     /**
  83:.\source\rte/sc_control.h ****      * Task List onUpdate
  84:.\source\rte/sc_control.h ****      */
  85:.\source\rte/sc_control.h ****     TaskTypeArray* const onUpdateTasks;
  86:.\source\rte/sc_control.h ****     
  87:.\source\rte/sc_control.h ****     /**
  88:.\source\rte/sc_control.h ****      * Task Count onError
  89:.\source\rte/sc_control.h ****      */
  90:.\source\rte/sc_control.h ****     size_t const onErrorTaskCount;
  91:.\source\rte/sc_control.h **** 
  92:.\source\rte/sc_control.h ****     /**
  93:.\source\rte/sc_control.h ****      * Task List onError
  94:.\source\rte/sc_control.h ****      */
  95:.\source\rte/sc_control.h ****     TaskTypeArray* const onErrorTasks;
  96:.\source\rte/sc_control.h **** 	
  97:.\source\rte/sc_control.h **** 	
  98:.\source\rte/sc_control.h **** 	/**
  99:.\source\rte/sc_control.h **** 	 * Ressourse is active? We need an additional boolean as a ressource value 0 is valid.
 100:.\source\rte/sc_control.h **** 	 */
 101:.\source\rte/sc_control.h **** 	 boolean_t const resourceActive;
 102:.\source\rte/sc_control.h **** 	 
 103:.\source\rte/sc_control.h **** 	/**
 104:.\source\rte/sc_control.h **** 	 * Ressourse 
 105:.\source\rte/sc_control.h **** 	 */
 106:.\source\rte/sc_control.h **** 	 ResourceType const resource;
 107:.\source\rte/sc_control.h **** 
 108:.\source\rte/sc_control.h **** };                                                                                                 
 109:.\source\rte/sc_control.h **** typedef const struct SC_CONTROL_cfg_s SC_CONTROL_cfg_t;
 110:.\source\rte/sc_control.h ****                               
 111:.\source\rte/sc_control.h **** /**************************************************************************************************
 112:.\source\rte/sc_control.h **** /* The data interface block																							*/
 113:.\source\rte/sc_control.h **** /**************************************************************************************************
 114:.\source\rte/sc_control.h **** 
 115:.\source\rte/sc_control.h ****                                                                                                    
 116:.\source\rte/sc_control.h **** 							  
 117:.\source\rte/sc_control.h **** /**
 118:.\source\rte/sc_control.h ****  * Instances of the struct SC_CONTROL_t represent the signal objects.
 119:.\source\rte/sc_control.h ****  * A signal object contains the current application value 'value' as well as relevant meta data.
 120:.\source\rte/sc_control.h ****  */
 121:.\source\rte/sc_control.h **** struct SC_CONTROL_s
 122:.\source\rte/sc_control.h **** {                                                                                                  
 123:.\source\rte/sc_control.h **** 
 124:.\source\rte/sc_control.h **** 	/**
 125:.\source\rte/sc_control.h **** 	 * Data buffer for the application value
ARM GAS  C:\Users\giris\AppData\Local\Temp\cceloVpD.s 			page 11


 126:.\source\rte/sc_control.h **** 	 */
 127:.\source\rte/sc_control.h ****     SC_CONTROL_data_t value;
 128:.\source\rte/sc_control.h **** 
 129:.\source\rte/sc_control.h ****     /**
 130:.\source\rte/sc_control.h ****      * Current signal status
 131:.\source\rte/sc_control.h ****      */
 132:.\source\rte/sc_control.h ****     RTE_signalStatus_t status;
 133:.\source\rte/sc_control.h **** 
 134:.\source\rte/sc_control.h ****     /**
 135:.\source\rte/sc_control.h ****      * Current age of the signal (in calling cycles)
 136:.\source\rte/sc_control.h ****      */
 137:.\source\rte/sc_control.h ****     uint32_t age;
 138:.\source\rte/sc_control.h **** 
 139:.\source\rte/sc_control.h ****     /**
 140:.\source\rte/sc_control.h ****      * Pointer to the signal configuration
 141:.\source\rte/sc_control.h ****      */
 142:.\source\rte/sc_control.h **** 	const SC_CONTROL_cfg_t * const    pSigCfg;
 143:.\source\rte/sc_control.h **** 
 144:.\source\rte/sc_control.h **** };                                                                                                 
 145:.\source\rte/sc_control.h **** typedef struct SC_CONTROL_s SC_CONTROL_t;
 146:.\source\rte/sc_control.h **** 
 147:.\source\rte/sc_control.h **** /**************************************************************************************************
 148:.\source\rte/sc_control.h **** /* Signal initialisation   																							*/
 149:.\source\rte/sc_control.h **** /**************************************************************************************************
 150:.\source\rte/sc_control.h **** 
 151:.\source\rte/sc_control.h **** /**
 152:.\source\rte/sc_control.h ****  * Initializes a signal instance with a passed init value.
 153:.\source\rte/sc_control.h ****  * Depending on the configured conversion or scaling function the raw_value will be calculated.
 154:.\source\rte/sc_control.h ****  * Signal status will change from RTE_SIGNALSTATUS_STARTUP to RTE_SIGNALSTATUS_INITIALIZED.
 155:.\source\rte/sc_control.h ****  *
 156:.\source\rte/sc_control.h ****  * @param  SC_CONTROL_t * const signal: Pointer to the signal object which will be initialised
 157:.\source\rte/sc_control.h ****  * @return RC_t: standard return code, currently only RC_SUCCESS
 158:.\source\rte/sc_control.h ****  *
 159:.\source\rte/sc_control.h ****  **/
 160:.\source\rte/sc_control.h **** inline RC_t RTE_SC_CONTROL_init( SC_CONTROL_t * const signal )
 161:.\source\rte/sc_control.h **** {                                                                                                  
 162:.\source\rte/sc_control.h **** 
 163:.\source\rte/sc_control.h ****    RC_t ret = RC_SUCCESS;
 164:.\source\rte/sc_control.h **** 
 165:.\source\rte/sc_control.h ****    //Set value and raw value
 166:.\source\rte/sc_control.h ****    signal->value  = SC_CONTROL_INIT_DATA;
 167:.\source\rte/sc_control.h ****    signal->age    = 0;
 168:.\source\rte/sc_control.h ****    signal->status = RTE_SIGNALSTATUS_INITIALIZED;
 169:.\source\rte/sc_control.h **** 
 170:.\source\rte/sc_control.h ****    return ret;
 171:.\source\rte/sc_control.h **** }
 172:.\source\rte/sc_control.h **** 
 173:.\source\rte/sc_control.h **** /**************************************************************************************************
 174:.\source\rte/sc_control.h **** /* Status and timeout control																						*/
 175:.\source\rte/sc_control.h **** /**************************************************************************************************
 176:.\source\rte/sc_control.h **** 
 177:.\source\rte/sc_control.h **** /**
 178:.\source\rte/sc_control.h ****  *  Returns the current signal status of the passed signal instance.
 179:.\source\rte/sc_control.h ****  *
 180:.\source\rte/sc_control.h ****  * @param  SC_CONTROL_t * const signal: Pointer to the signal object
 181:.\source\rte/sc_control.h ****  * @return  sig_status_t: The current signal status
 182:.\source\rte/sc_control.h ****  *
ARM GAS  C:\Users\giris\AppData\Local\Temp\cceloVpD.s 			page 12


 183:.\source\rte/sc_control.h ****  **/
 184:.\source\rte/sc_control.h **** inline RTE_signalStatus_t RTE_SC_CONTROL_getStatus( const SC_CONTROL_t * const signal )
 185:.\source\rte/sc_control.h **** {
 186:.\source\rte/sc_control.h ****    return signal->status;
 187:.\source\rte/sc_control.h **** }
 188:.\source\rte/sc_control.h **** 
 189:.\source\rte/sc_control.h **** 
 190:.\source\rte/sc_control.h **** /**
 191:.\source\rte/sc_control.h ****  *  Sets a new signal status of the passed signal instance by passing the new status.
 192:.\source\rte/sc_control.h ****  *
 193:.\source\rte/sc_control.h ****  * @param  SC_CONTROL_t * const signal: Pointer to the signal object
 194:.\source\rte/sc_control.h ****  * @param  const sig_status_t status: New signal status
 195:.\source\rte/sc_control.h ****  * @return RC_t: standard return code, currently only RC_SUCCESS
 196:.\source\rte/sc_control.h ****  *
 197:.\source\rte/sc_control.h ****  */
 198:.\source\rte/sc_control.h **** inline RC_t RTE_SC_CONTROL_setStatus( SC_CONTROL_t * const signal, const RTE_signalStatus_t status 
 199:.\source\rte/sc_control.h **** {
 200:.\source\rte/sc_control.h ****    signal->status = status;
 201:.\source\rte/sc_control.h ****    size_t taskNum=0;
 202:.\source\rte/sc_control.h ****    
 203:.\source\rte/sc_control.h ****    //Fire error events in case of invalid state
 204:.\source\rte/sc_control.h ****    if (signal->status == RTE_SIGNALSTATUS_INVALID)
 205:.\source\rte/sc_control.h ****    {
 206:.\source\rte/sc_control.h **** 	    //Pointer to the Taskarray, containing the tasks receiving the onUpdate events
 207:.\source\rte/sc_control.h **** 		TaskTypeArray* pTaskArray = signal->pSigCfg->onErrorTasks;
 208:.\source\rte/sc_control.h **** 
 209:.\source\rte/sc_control.h **** 		if (0 != signal->pSigCfg->evOnError && NULL != pTaskArray){
 210:.\source\rte/sc_control.h **** 			for( taskNum=0 ; taskNum < signal->pSigCfg->onErrorTaskCount ;taskNum++){
 211:.\source\rte/sc_control.h **** 				TaskType task = (*pTaskArray)[taskNum];
 212:.\source\rte/sc_control.h **** 				SetEvent( task, signal->pSigCfg->evOnError);
 213:.\source\rte/sc_control.h **** 			}
 214:.\source\rte/sc_control.h **** 		}
 215:.\source\rte/sc_control.h ****    }
 216:.\source\rte/sc_control.h ****    
 217:.\source\rte/sc_control.h ****    return RC_SUCCESS;
 218:.\source\rte/sc_control.h **** }
 219:.\source\rte/sc_control.h **** 
 220:.\source\rte/sc_control.h **** 
 221:.\source\rte/sc_control.h **** /**
 222:.\source\rte/sc_control.h ****  * Returns the count of refreshing trials (refresh, set or set_raw) that failed.
 223:.\source\rte/sc_control.h ****  * Prerquisite: The signal is refreshed cyclically
 224:.\source\rte/sc_control.h ****  *
 225:.\source\rte/sc_control.h ****  * @param  SC_CONTROL_t * const signal: Pointer to the signal object
 226:.\source\rte/sc_control.h ****  * @return uint32_t: Number of cycles since the signal has been updated for the last time
 227:.\source\rte/sc_control.h ****  */
 228:.\source\rte/sc_control.h **** inline uint32_t RTE_SC_CONTROL_getAge( const SC_CONTROL_t * const signal )
 229:.\source\rte/sc_control.h **** {
 230:.\source\rte/sc_control.h ****    return signal->age;
 231:.\source\rte/sc_control.h **** }
 232:.\source\rte/sc_control.h **** 
 233:.\source\rte/sc_control.h **** /**
 234:.\source\rte/sc_control.h ****  * Should be called by application or driver if no new value can be provided.
 235:.\source\rte/sc_control.h ****  * @param  SC_CONTROL_t * const signal: Pointer to the signal object
 236:.\source\rte/sc_control.h ****  * @param uint32_t increment: incrementvalue, typically in [ms]
 237:.\source\rte/sc_control.h ****  * @return void
 238:.\source\rte/sc_control.h ****  */
 239:.\source\rte/sc_control.h **** inline void RTE_SC_CONTROL_incAge(  SC_CONTROL_t * const signal , uint32_t increment)
ARM GAS  C:\Users\giris\AppData\Local\Temp\cceloVpD.s 			page 13


 240:.\source\rte/sc_control.h **** {
 241:.\source\rte/sc_control.h **** 	   //Hack....
 242:.\source\rte/sc_control.h **** 	   if ( 0xFFFF0000 > (signal->age + increment) )
 243:.\source\rte/sc_control.h **** 	   {
 244:.\source\rte/sc_control.h **** 	      signal->age += increment;
 245:.\source\rte/sc_control.h **** 	   }
 246:.\source\rte/sc_control.h **** }
 247:.\source\rte/sc_control.h **** 
 248:.\source\rte/sc_control.h **** 
 249:.\source\rte/sc_control.h **** /**************************************************************************************************
 250:.\source\rte/sc_control.h **** /* Application Data read/write Interface																			*/
 251:.\source\rte/sc_control.h **** /**************************************************************************************************
 252:.\source\rte/sc_control.h **** 
 253:.\source\rte/sc_control.h **** /**
 254:.\source\rte/sc_control.h ****  * Returns the current application value as pointer to the signal payload.
 255:.\source\rte/sc_control.h ****  * Careful: This is not threadsafe!!!
 256:.\source\rte/sc_control.h ****  *
 257:.\source\rte/sc_control.h ****  * @param  SC_CONTROL_t * const signal: Pointer to the signal object
 258:.\source\rte/sc_control.h ****  * @return sc_control_data_t*: pointer to the current value of the application data buffer
 259:.\source\rte/sc_control.h ****  *
 260:.\source\rte/sc_control.h ****  **/
 261:.\source\rte/sc_control.h **** inline SC_CONTROL_data_t* RTE_SC_CONTROL_getPtr( SC_CONTROL_t * const signal )
 262:.\source\rte/sc_control.h **** {               
 263:.\source\rte/sc_control.h ****    //Todo: Critical region cannot be protected using return values																						
 264:.\source\rte/sc_control.h ****    return &(signal->value);                                                                        
 265:.\source\rte/sc_control.h **** }
 266:.\source\rte/sc_control.h **** 
 267:.\source\rte/sc_control.h **** /**
 268:.\source\rte/sc_control.h ****  * Returns the current application value of the passed signal instance.
 269:.\source\rte/sc_control.h ****  *
 270:.\source\rte/sc_control.h ****  * @param  SC_CONTROL_t * const signal: Pointer to the signal object
 271:.\source\rte/sc_control.h ****  * @return sc_control_data_t: current value of the application data buffer
 272:.\source\rte/sc_control.h ****  *
 273:.\source\rte/sc_control.h ****  **/
 274:.\source\rte/sc_control.h **** inline SC_CONTROL_data_t RTE_SC_CONTROL_get( const SC_CONTROL_t * const signal )
 275:.\source\rte/sc_control.h **** {               
 276:.\source\rte/sc_control.h ****    //Todo: Critical region cannot be protected using return values																						
 277:.\source\rte/sc_control.h ****    return signal->value;                                                                           
  44              		.loc 2 277 0
  45 0004 204F     		ldr	r7, .L7
  46 0006 06AD     		add	r5, sp, #24
  47 0008 3C46     		mov	r4, r7
  48 000a 0FCC     		ldmia	r4!, {r0, r1, r2, r3}
  49 000c 0FC5     		stmia	r5!, {r0, r1, r2, r3}
  50 000e 94E80300 		ldmia	r4, {r0, r1}
  51 0012 85E80300 		stmia	r5, {r0, r1}
  52              	.LVL1:
  53              	.LBE77:
  54              	.LBE76:
 403:source\asw/clock.c **** //    UART_LOG_PutString("\nIn set display fonts Dispatch.....\n");
 404:source\asw/clock.c ****     char buffer[100];
 405:source\asw/clock.c ****     
 406:source\asw/clock.c ****     SC_CONTROL_data_t fontstyle =   RTE_SC_CONTROL_get(&SO_CONTROL_signal);;
 407:source\asw/clock.c ****     
 408:source\asw/clock.c ****     fontstyle.hour.font_type.bg_colour        =   BLACK;
  55              		.loc 1 408 0
  56 0016 4FF0000E 		mov	lr, #0
ARM GAS  C:\Users\giris\AppData\Local\Temp\cceloVpD.s 			page 14


  57 001a ADF81CE0 		strh	lr, [sp, #28]	@ movhi
 409:source\asw/clock.c ****     fontstyle.hour.font_type.widget_colour    =   WHITE;
  58              		.loc 1 409 0
  59 001e 4FF6FF73 		movw	r3, #65535
  60 0022 ADF81E30 		strh	r3, [sp, #30]	@ movhi
 410:source\asw/clock.c **** 
 411:source\asw/clock.c ****     fontstyle.minute.font_type.bg_colour      =   BLACK;
  61              		.loc 1 411 0
  62 0026 ADF828E0 		strh	lr, [sp, #40]	@ movhi
 412:source\asw/clock.c ****     fontstyle.minute.font_type.widget_colour  =   WHITE;
  63              		.loc 1 412 0
  64 002a ADF82A30 		strh	r3, [sp, #42]	@ movhi
  65              	.LVL2:
  66 002e 6D46     		mov	r5, sp
  67 0030 06AE     		add	r6, sp, #24
  68 0032 0FCE     		ldmia	r6!, {r0, r1, r2, r3}
  69 0034 0FC5     		stmia	r5!, {r0, r1, r2, r3}
  70 0036 96E80300 		ldmia	r6, {r0, r1}
  71 003a 85E80300 		stmia	r5, {r0, r1}
  72              	.LVL3:
  73              	.LBB78:
  74              	.LBB79:
 278:.\source\rte/sc_control.h **** }                                                                                                  
 279:.\source\rte/sc_control.h ****                                                                                                    
 280:.\source\rte/sc_control.h **** /**
 281:.\source\rte/sc_control.h ****  * Returns the current application value of the passed signal instance threadsafe.
 282:.\source\rte/sc_control.h ****  *
 283:.\source\rte/sc_control.h ****  * @param  SC_CONTROL_t * const signal: Pointer to the signal object
 284:.\source\rte/sc_control.h ****  * @param  SC_CONTROL_data_t* data: Pointer to the return data Pointer to the signal object
 285:.\source\rte/sc_control.h ****  * @return RC_SUCCESS
 286:.\source\rte/sc_control.h ****  *
 287:.\source\rte/sc_control.h ****  **/
 288:.\source\rte/sc_control.h **** inline RC_t RTE_SC_CONTROL_getThreadSafe( const SC_CONTROL_t * const signal, SC_CONTROL_data_t * co
 289:.\source\rte/sc_control.h **** {    
 290:.\source\rte/sc_control.h ****    if (TRUE == signal->pSigCfg->resourceActive) GetResource(signal->pSigCfg->resource);
 291:.\source\rte/sc_control.h ****    *data = signal->value;
 292:.\source\rte/sc_control.h ****    if (TRUE == signal->pSigCfg->resourceActive) ReleaseResource(signal->pSigCfg->resource);        
 293:.\source\rte/sc_control.h **** 
 294:.\source\rte/sc_control.h ****    return RC_SUCCESS;                                                                   
 295:.\source\rte/sc_control.h ****    
 296:.\source\rte/sc_control.h **** }                                                                                                  
 297:.\source\rte/sc_control.h ****                                                                                                    
 298:.\source\rte/sc_control.h **** /**
 299:.\source\rte/sc_control.h ****  * Sets a new application value to the passed signal instance by passing the new value.
 300:.\source\rte/sc_control.h ****  * The corresponding driver raw value will be calculated immediately by using the default conversio
 301:.\source\rte/sc_control.h ****  * signal specific scaling function.
 302:.\source\rte/sc_control.h ****  * The signal age will be set to 0 and the new status will be 'RTE_SIGNALSTATUS_VALID'.
 303:.\source\rte/sc_control.h ****  *
 304:.\source\rte/sc_control.h ****  * @param  SC_CONTROL_t * const signal: Pointer to the signal object
 305:.\source\rte/sc_control.h ****  * @param  sc_control_data_t const value: value for the application data buffer
 306:.\source\rte/sc_control.h ****  * @return RC_t: standard return code, currently only RC_SUCCESS
 307:.\source\rte/sc_control.h ****  *
 308:.\source\rte/sc_control.h ****  **/
 309:.\source\rte/sc_control.h **** inline RC_t RTE_SC_CONTROL_set(SC_CONTROL_t * const signal, const SC_CONTROL_data_t value  )
 310:.\source\rte/sc_control.h **** {
 311:.\source\rte/sc_control.h **** 
 312:.\source\rte/sc_control.h ****    RC_t ret = RC_SUCCESS;
ARM GAS  C:\Users\giris\AppData\Local\Temp\cceloVpD.s 			page 15


 313:.\source\rte/sc_control.h ****    size_t taskNum=0;
 314:.\source\rte/sc_control.h **** 
 315:.\source\rte/sc_control.h **** 
 316:.\source\rte/sc_control.h ****    if (TRUE == signal->pSigCfg->resourceActive) GetResource(signal->pSigCfg->resource);
  75              		.loc 2 316 0
  76 003e D7F820C0 		ldr	ip, [r7, #32]
 317:.\source\rte/sc_control.h ****    signal->value  = value;
  77              		.loc 2 317 0
  78 0042 3E46     		mov	r6, r7
  79 0044 6D46     		mov	r5, sp
  80 0046 0FCD     		ldmia	r5!, {r0, r1, r2, r3}
  81 0048 0FC6     		stmia	r6!, {r0, r1, r2, r3}
  82 004a 95E80300 		ldmia	r5, {r0, r1}
  83 004e 84E80300 		stmia	r4, {r0, r1}
 318:.\source\rte/sc_control.h ****    signal->age    = 0;
  84              		.loc 2 318 0
  85 0052 C7F81CE0 		str	lr, [r7, #28]
 319:.\source\rte/sc_control.h ****    signal->status = RTE_SIGNALSTATUS_VALID;
  86              		.loc 2 319 0
  87 0056 0223     		movs	r3, #2
  88 0058 3B76     		strb	r3, [r7, #24]
 320:.\source\rte/sc_control.h ****    if (TRUE == signal->pSigCfg->resourceActive) ReleaseResource(signal->pSigCfg->resource);
 321:.\source\rte/sc_control.h **** 
 322:.\source\rte/sc_control.h ****    //Pointer to the Taskarray, containing the tasks receiving the onUpdate events
 323:.\source\rte/sc_control.h ****    TaskTypeArray* pTaskArray = signal->pSigCfg->onUpdateTasks;
  89              		.loc 2 323 0
  90 005a DCF81450 		ldr	r5, [ip, #20]
  91              	.LVL4:
 324:.\source\rte/sc_control.h **** 
 325:.\source\rte/sc_control.h ****    if (0 != signal->pSigCfg->evOnUpdate && NULL != pTaskArray){
  92              		.loc 2 325 0
  93 005e DCF80830 		ldr	r3, [ip, #8]
  94 0062 73B1     		cbz	r3, .L1
  95 0064 3DB9     		cbnz	r5, .L5
  96 0066 0CE0     		b	.L1
  97              	.LVL5:
  98              	.L4:
  99              	.LBB80:
 326:.\source\rte/sc_control.h ****       for( taskNum=0 ; taskNum < signal->pSigCfg->onUpdateTaskCount ;taskNum++){
 327:.\source\rte/sc_control.h **** 		  
 328:.\source\rte/sc_control.h ****           TaskType task = (*pTaskArray)[taskNum];
 329:.\source\rte/sc_control.h **** 	      SetEvent( task, signal->pSigCfg->evOnUpdate);
 100              		.loc 2 329 0
 101 0068 9968     		ldr	r1, [r3, #8]
 102 006a 55F82400 		ldr	r0, [r5, r4, lsl #2]
 103 006e FFF7FEFF 		bl	EE_oo_SetEvent
 104              	.LVL6:
 105              	.LBE80:
 326:.\source\rte/sc_control.h ****       for( taskNum=0 ; taskNum < signal->pSigCfg->onUpdateTaskCount ;taskNum++){
 106              		.loc 2 326 0
 107 0072 0134     		adds	r4, r4, #1
 108              	.LVL7:
 109 0074 00E0     		b	.L3
 110              	.LVL8:
 111              	.L5:
 325:.\source\rte/sc_control.h ****       for( taskNum=0 ; taskNum < signal->pSigCfg->onUpdateTaskCount ;taskNum++){
 112              		.loc 2 325 0
ARM GAS  C:\Users\giris\AppData\Local\Temp\cceloVpD.s 			page 16


 113 0076 0024     		movs	r4, #0
 114              	.LVL9:
 115              	.L3:
 326:.\source\rte/sc_control.h ****       for( taskNum=0 ; taskNum < signal->pSigCfg->onUpdateTaskCount ;taskNum++){
 116              		.loc 2 326 0
 117 0078 034B     		ldr	r3, .L7
 118 007a 1B6A     		ldr	r3, [r3, #32]
 119 007c 1A69     		ldr	r2, [r3, #16]
 120 007e 9442     		cmp	r4, r2
 121 0080 F2D3     		bcc	.L4
 122              	.LVL10:
 123              	.L1:
 124              	.LBE79:
 125              	.LBE78:
 413:source\asw/clock.c ****     
 414:source\asw/clock.c ****     RTE_SC_CONTROL_set(&SO_CONTROL_signal, fontstyle);
 415:source\asw/clock.c **** }
 126              		.loc 1 415 0
 127 0082 0DB0     		add	sp, sp, #52
 128              		.cfi_def_cfa_offset 20
 129              		@ sp needed
 130 0084 F0BD     		pop	{r4, r5, r6, r7, pc}
 131              	.LVL11:
 132              	.L8:
 133 0086 00BF     		.align	2
 134              	.L7:
 135 0088 00000000 		.word	SO_CONTROL_signal
 136              		.cfi_endproc
 137              	.LFE158:
 138              		.size	CLOCK__setDisplayFonts, .-CLOCK__setDisplayFonts
 139              		.section	.text.CLOCK__setEditFonts,"ax",%progbits
 140              		.align	2
 141              		.thumb
 142              		.thumb_func
 143              		.type	CLOCK__setEditFonts, %function
 144              	CLOCK__setEditFonts:
 145              	.LFB159:
 416:source\asw/clock.c **** 
 417:source\asw/clock.c **** void CLOCK__setEditFonts()
 418:source\asw/clock.c **** {
 146              		.loc 1 418 0
 147              		.cfi_startproc
 148              		@ args = 0, pretend = 0, frame = 48
 149              		@ frame_needed = 0, uses_anonymous_args = 0
 150 0000 F0B5     		push	{r4, r5, r6, r7, lr}
 151              		.cfi_def_cfa_offset 20
 152              		.cfi_offset 4, -20
 153              		.cfi_offset 5, -16
 154              		.cfi_offset 6, -12
 155              		.cfi_offset 7, -8
 156              		.cfi_offset 14, -4
 157 0002 8DB0     		sub	sp, sp, #52
 158              		.cfi_def_cfa_offset 72
 159              	.LVL12:
 160              	.LBB81:
 161              	.LBB82:
 277:.\source\rte/sc_control.h **** }                                                                                                  
ARM GAS  C:\Users\giris\AppData\Local\Temp\cceloVpD.s 			page 17


 162              		.loc 2 277 0
 163 0004 06AC     		add	r4, sp, #24
 164 0006 274D     		ldr	r5, .L17
 165 0008 0FCD     		ldmia	r5!, {r0, r1, r2, r3}
 166 000a 0FC4     		stmia	r4!, {r0, r1, r2, r3}
 167 000c 95E80300 		ldmia	r5, {r0, r1}
 168 0010 84E80300 		stmia	r4, {r0, r1}
 169              	.LVL13:
 170              	.LBE82:
 171              	.LBE81:
 419:source\asw/clock.c **** //    UART_LOG_PutString("\nIn set edit fonts Dispatch.....\n");
 420:source\asw/clock.c **** //    char buffer[100];
 421:source\asw/clock.c ****     
 422:source\asw/clock.c ****     SC_CONTROL_data_t fontstyle =   RTE_SC_CONTROL_get(&SO_CONTROL_signal);
 423:source\asw/clock.c ****     
 424:source\asw/clock.c ****     if(fontstyle.hour.widget_type == CLOCK_HOURWIDGET)
 172              		.loc 1 424 0
 173 0014 9DF81830 		ldrb	r3, [sp, #24]	@ zero_extendqisi2
 174 0018 5BB9     		cbnz	r3, .L10
 425:source\asw/clock.c ****     {
 426:source\asw/clock.c **** //        UART_LOG_PutString("E: Hour widget state: ");
 427:source\asw/clock.c **** //        itoa(clock.m_clock_data.m_activeWidget, buffer, 10);
 428:source\asw/clock.c **** //        UART_LOG_PutString(buffer);
 429:source\asw/clock.c **** //        UART_LOG_PutString("\n");
 430:source\asw/clock.c ****         
 431:source\asw/clock.c ****         fontstyle.hour.font_type.bg_colour        =   WHITE;
 175              		.loc 1 431 0
 176 001a 4FF6FF73 		movw	r3, #65535
 177 001e ADF81C30 		strh	r3, [sp, #28]	@ movhi
 432:source\asw/clock.c ****         fontstyle.hour.font_type.widget_colour    =   BLACK;
 178              		.loc 1 432 0
 179 0022 0022     		movs	r2, #0
 180 0024 ADF81E20 		strh	r2, [sp, #30]	@ movhi
 433:source\asw/clock.c ****         
 434:source\asw/clock.c ****         fontstyle.minute.font_type.bg_colour      =   BLACK;
 181              		.loc 1 434 0
 182 0028 ADF82820 		strh	r2, [sp, #40]	@ movhi
 435:source\asw/clock.c ****         fontstyle.minute.font_type.widget_colour  =   WHITE;
 183              		.loc 1 435 0
 184 002c ADF82A30 		strh	r3, [sp, #42]	@ movhi
 185 0030 0EE0     		b	.L11
 186              	.L10:
 436:source\asw/clock.c ****     }
 437:source\asw/clock.c ****     else if(fontstyle.minute.widget_type == CLOCK_MINWIDGET)
 187              		.loc 1 437 0
 188 0032 9DF82430 		ldrb	r3, [sp, #36]	@ zero_extendqisi2
 189 0036 012B     		cmp	r3, #1
 190 0038 0AD1     		bne	.L11
 438:source\asw/clock.c ****     {
 439:source\asw/clock.c **** //        UART_LOG_PutString("E: Minute widget state: ");
 440:source\asw/clock.c **** //        itoa(clock.m_clock_data.m_activeWidget, buffer, 10);
 441:source\asw/clock.c **** //        UART_LOG_PutString(buffer);
 442:source\asw/clock.c **** //        UART_LOG_PutString("\n");
 443:source\asw/clock.c ****         
 444:source\asw/clock.c ****         fontstyle.hour.font_type.bg_colour        =   BLACK;
 191              		.loc 1 444 0
 192 003a 0023     		movs	r3, #0
ARM GAS  C:\Users\giris\AppData\Local\Temp\cceloVpD.s 			page 18


 193 003c ADF81C30 		strh	r3, [sp, #28]	@ movhi
 445:source\asw/clock.c ****         fontstyle.hour.font_type.widget_colour    =   WHITE;
 194              		.loc 1 445 0
 195 0040 4FF6FF72 		movw	r2, #65535
 196 0044 ADF81E20 		strh	r2, [sp, #30]	@ movhi
 446:source\asw/clock.c ****         
 447:source\asw/clock.c ****         fontstyle.minute.font_type.bg_colour      =   WHITE;
 197              		.loc 1 447 0
 198 0048 ADF82820 		strh	r2, [sp, #40]	@ movhi
 448:source\asw/clock.c ****         fontstyle.minute.font_type.widget_colour  =   BLACK;
 199              		.loc 1 448 0
 200 004c ADF82A30 		strh	r3, [sp, #42]	@ movhi
 201              	.L11:
 202              	.LVL14:
 203 0050 6C46     		mov	r4, sp
 204 0052 06AD     		add	r5, sp, #24
 205 0054 0FCD     		ldmia	r5!, {r0, r1, r2, r3}
 206 0056 0FC4     		stmia	r4!, {r0, r1, r2, r3}
 207 0058 95E80300 		ldmia	r5, {r0, r1}
 208 005c 84E80300 		stmia	r4, {r0, r1}
 209              	.LVL15:
 210              	.LBB83:
 211              	.LBB84:
 316:.\source\rte/sc_control.h ****    signal->value  = value;
 212              		.loc 2 316 0
 213 0060 104E     		ldr	r6, .L17
 214 0062 376A     		ldr	r7, [r6, #32]
 317:.\source\rte/sc_control.h ****    signal->age    = 0;
 215              		.loc 2 317 0
 216 0064 3446     		mov	r4, r6
 217 0066 6D46     		mov	r5, sp
 218 0068 0FCD     		ldmia	r5!, {r0, r1, r2, r3}
 219 006a 0FC4     		stmia	r4!, {r0, r1, r2, r3}
 220 006c 95E80300 		ldmia	r5, {r0, r1}
 221 0070 84E80300 		stmia	r4, {r0, r1}
 318:.\source\rte/sc_control.h ****    signal->status = RTE_SIGNALSTATUS_VALID;
 222              		.loc 2 318 0
 223 0074 0023     		movs	r3, #0
 224 0076 F361     		str	r3, [r6, #28]
 319:.\source\rte/sc_control.h ****    if (TRUE == signal->pSigCfg->resourceActive) ReleaseResource(signal->pSigCfg->resource);
 225              		.loc 2 319 0
 226 0078 0223     		movs	r3, #2
 227 007a 3376     		strb	r3, [r6, #24]
 323:.\source\rte/sc_control.h **** 
 228              		.loc 2 323 0
 229 007c 7D69     		ldr	r5, [r7, #20]
 230              	.LVL16:
 325:.\source\rte/sc_control.h ****       for( taskNum=0 ; taskNum < signal->pSigCfg->onUpdateTaskCount ;taskNum++){
 231              		.loc 2 325 0
 232 007e BB68     		ldr	r3, [r7, #8]
 233 0080 73B1     		cbz	r3, .L9
 234 0082 3DB9     		cbnz	r5, .L15
 235 0084 0CE0     		b	.L9
 236              	.LVL17:
 237              	.L14:
 238              	.LBB85:
 239              		.loc 2 329 0
ARM GAS  C:\Users\giris\AppData\Local\Temp\cceloVpD.s 			page 19


 240 0086 9968     		ldr	r1, [r3, #8]
 241 0088 55F82400 		ldr	r0, [r5, r4, lsl #2]
 242 008c FFF7FEFF 		bl	EE_oo_SetEvent
 243              	.LVL18:
 244              	.LBE85:
 326:.\source\rte/sc_control.h **** 		  
 245              		.loc 2 326 0
 246 0090 0134     		adds	r4, r4, #1
 247              	.LVL19:
 248 0092 00E0     		b	.L13
 249              	.LVL20:
 250              	.L15:
 325:.\source\rte/sc_control.h ****       for( taskNum=0 ; taskNum < signal->pSigCfg->onUpdateTaskCount ;taskNum++){
 251              		.loc 2 325 0
 252 0094 0024     		movs	r4, #0
 253              	.LVL21:
 254              	.L13:
 326:.\source\rte/sc_control.h **** 		  
 255              		.loc 2 326 0
 256 0096 034B     		ldr	r3, .L17
 257 0098 1B6A     		ldr	r3, [r3, #32]
 258 009a 1A69     		ldr	r2, [r3, #16]
 259 009c 9442     		cmp	r4, r2
 260 009e F2D3     		bcc	.L14
 261              	.LVL22:
 262              	.L9:
 263              	.LBE84:
 264              	.LBE83:
 449:source\asw/clock.c ****     }
 450:source\asw/clock.c ****     
 451:source\asw/clock.c ****     RTE_SC_CONTROL_set(&SO_CONTROL_signal, fontstyle);
 452:source\asw/clock.c **** }
 265              		.loc 1 452 0
 266 00a0 0DB0     		add	sp, sp, #52
 267              		.cfi_def_cfa_offset 20
 268              		@ sp needed
 269 00a2 F0BD     		pop	{r4, r5, r6, r7, pc}
 270              	.LVL23:
 271              	.L18:
 272              		.align	2
 273              	.L17:
 274 00a4 00000000 		.word	SO_CONTROL_signal
 275              		.cfi_endproc
 276              	.LFE159:
 277              		.size	CLOCK__setEditFonts, .-CLOCK__setEditFonts
 278              		.section	.text.CLOCK__updateDisplay,"ax",%progbits
 279              		.align	2
 280              		.thumb
 281              		.thumb_func
 282              		.type	CLOCK__updateDisplay, %function
 283              	CLOCK__updateDisplay:
 284              	.LFB160:
 453:source\asw/clock.c **** 
 454:source\asw/clock.c **** void CLOCK__updateDisplay()
 455:source\asw/clock.c **** {
 285              		.loc 1 455 0
 286              		.cfi_startproc
ARM GAS  C:\Users\giris\AppData\Local\Temp\cceloVpD.s 			page 20


 287              		@ args = 0, pretend = 0, frame = 48
 288              		@ frame_needed = 0, uses_anonymous_args = 0
 289 0000 F0B5     		push	{r4, r5, r6, r7, lr}
 290              		.cfi_def_cfa_offset 20
 291              		.cfi_offset 4, -20
 292              		.cfi_offset 5, -16
 293              		.cfi_offset 6, -12
 294              		.cfi_offset 7, -8
 295              		.cfi_offset 14, -4
 296 0002 8DB0     		sub	sp, sp, #52
 297              		.cfi_def_cfa_offset 72
 298              	.LVL24:
 299              	.LBB86:
 300              	.LBB87:
 277:.\source\rte/sc_control.h **** }                                                                                                  
 301              		.loc 2 277 0
 302 0004 184F     		ldr	r7, .L25
 303 0006 06AD     		add	r5, sp, #24
 304 0008 3C46     		mov	r4, r7
 305 000a 0FCC     		ldmia	r4!, {r0, r1, r2, r3}
 306 000c 0FC5     		stmia	r5!, {r0, r1, r2, r3}
 307 000e 94E80300 		ldmia	r4, {r0, r1}
 308 0012 85E80300 		stmia	r5, {r0, r1}
 309              	.LVL25:
 310 0016 6D46     		mov	r5, sp
 311 0018 06AE     		add	r6, sp, #24
 312 001a 0FCE     		ldmia	r6!, {r0, r1, r2, r3}
 313 001c 0FC5     		stmia	r5!, {r0, r1, r2, r3}
 314 001e 96E80300 		ldmia	r6, {r0, r1}
 315 0022 85E80300 		stmia	r5, {r0, r1}
 316              	.LVL26:
 317              	.LBE87:
 318              	.LBE86:
 319              	.LBB88:
 320              	.LBB89:
 316:.\source\rte/sc_control.h ****    signal->value  = value;
 321              		.loc 2 316 0
 322 0026 D7F820E0 		ldr	lr, [r7, #32]
 317:.\source\rte/sc_control.h ****    signal->age    = 0;
 323              		.loc 2 317 0
 324 002a 3E46     		mov	r6, r7
 325 002c 6D46     		mov	r5, sp
 326 002e 0FCD     		ldmia	r5!, {r0, r1, r2, r3}
 327 0030 0FC6     		stmia	r6!, {r0, r1, r2, r3}
 318:.\source\rte/sc_control.h ****    signal->status = RTE_SIGNALSTATUS_VALID;
 328              		.loc 2 318 0
 329 0032 0023     		movs	r3, #0
 330 0034 FB61     		str	r3, [r7, #28]
 319:.\source\rte/sc_control.h ****    if (TRUE == signal->pSigCfg->resourceActive) ReleaseResource(signal->pSigCfg->resource);
 331              		.loc 2 319 0
 332 0036 0223     		movs	r3, #2
 333 0038 3B76     		strb	r3, [r7, #24]
 323:.\source\rte/sc_control.h **** 
 334              		.loc 2 323 0
 335 003a DEF81450 		ldr	r5, [lr, #20]
 336              	.LVL27:
 325:.\source\rte/sc_control.h ****       for( taskNum=0 ; taskNum < signal->pSigCfg->onUpdateTaskCount ;taskNum++){
ARM GAS  C:\Users\giris\AppData\Local\Temp\cceloVpD.s 			page 21


 337              		.loc 2 325 0
 338 003e DEF80830 		ldr	r3, [lr, #8]
 339 0042 73B1     		cbz	r3, .L19
 340 0044 3DB9     		cbnz	r5, .L23
 341 0046 0CE0     		b	.L19
 342              	.LVL28:
 343              	.L22:
 344              	.LBB90:
 345              		.loc 2 329 0
 346 0048 9968     		ldr	r1, [r3, #8]
 347 004a 55F82400 		ldr	r0, [r5, r4, lsl #2]
 348 004e FFF7FEFF 		bl	EE_oo_SetEvent
 349              	.LVL29:
 350              	.LBE90:
 326:.\source\rte/sc_control.h **** 		  
 351              		.loc 2 326 0
 352 0052 0134     		adds	r4, r4, #1
 353              	.LVL30:
 354 0054 00E0     		b	.L21
 355              	.LVL31:
 356              	.L23:
 325:.\source\rte/sc_control.h ****       for( taskNum=0 ; taskNum < signal->pSigCfg->onUpdateTaskCount ;taskNum++){
 357              		.loc 2 325 0
 358 0056 0024     		movs	r4, #0
 359              	.LVL32:
 360              	.L21:
 326:.\source\rte/sc_control.h **** 		  
 361              		.loc 2 326 0
 362 0058 034B     		ldr	r3, .L25
 363 005a 1B6A     		ldr	r3, [r3, #32]
 364 005c 1A69     		ldr	r2, [r3, #16]
 365 005e 9442     		cmp	r4, r2
 366 0060 F2D3     		bcc	.L22
 367              	.LVL33:
 368              	.L19:
 369              	.LBE89:
 370              	.LBE88:
 456:source\asw/clock.c **** //    UART_LOG_PutString("\nNeed to Display Time.....\n");
 457:source\asw/clock.c ****     
 458:source\asw/clock.c ****     SC_CONTROL_data_t clock_values  =   RTE_SC_CONTROL_get(&SO_CONTROL_signal);
 459:source\asw/clock.c ****     
 460:source\asw/clock.c ****     RTE_SC_CONTROL_set(&SO_CONTROL_signal, clock_values);
 461:source\asw/clock.c ****     
 462:source\asw/clock.c **** }
 371              		.loc 1 462 0
 372 0062 0DB0     		add	sp, sp, #52
 373              		.cfi_def_cfa_offset 20
 374              		@ sp needed
 375 0064 F0BD     		pop	{r4, r5, r6, r7, pc}
 376              	.LVL34:
 377              	.L26:
 378 0066 00BF     		.align	2
 379              	.L25:
 380 0068 00000000 		.word	SO_CONTROL_signal
 381              		.cfi_endproc
 382              	.LFE160:
 383              		.size	CLOCK__updateDisplay, .-CLOCK__updateDisplay
ARM GAS  C:\Users\giris\AppData\Local\Temp\cceloVpD.s 			page 22


 384              		.section	.text.CLOCK__updateTime,"ax",%progbits
 385              		.align	2
 386              		.thumb
 387              		.thumb_func
 388              		.type	CLOCK__updateTime, %function
 389              	CLOCK__updateTime:
 390              	.LFB161:
 463:source\asw/clock.c **** 
 464:source\asw/clock.c **** void CLOCK__updateTime()
 465:source\asw/clock.c **** {
 391              		.loc 1 465 0
 392              		.cfi_startproc
 393              		@ args = 0, pretend = 0, frame = 48
 394              		@ frame_needed = 0, uses_anonymous_args = 0
 395 0000 F0B5     		push	{r4, r5, r6, r7, lr}
 396              		.cfi_def_cfa_offset 20
 397              		.cfi_offset 4, -20
 398              		.cfi_offset 5, -16
 399              		.cfi_offset 6, -12
 400              		.cfi_offset 7, -8
 401              		.cfi_offset 14, -4
 402 0002 8DB0     		sub	sp, sp, #52
 403              		.cfi_def_cfa_offset 72
 404              	.LVL35:
 405              	.LBB91:
 406              	.LBB92:
 277:.\source\rte/sc_control.h **** }                                                                                                  
 407              		.loc 2 277 0
 408 0004 06AC     		add	r4, sp, #24
 409 0006 2C4D     		ldr	r5, .L35
 410 0008 0FCD     		ldmia	r5!, {r0, r1, r2, r3}
 411 000a 0FC4     		stmia	r4!, {r0, r1, r2, r3}
 412 000c 95E80300 		ldmia	r5, {r0, r1}
 413 0010 84E80300 		stmia	r4, {r0, r1}
 414              	.LVL36:
 415              	.LBE92:
 416              	.LBE91:
 466:source\asw/clock.c **** //    UART_LOG_PutString("\nNeed to Update Time in minutes.....\n");
 467:source\asw/clock.c ****     
 468:source\asw/clock.c ****     SC_CONTROL_data_t   time  =   RTE_SC_CONTROL_get(&SO_CONTROL_signal);
 469:source\asw/clock.c ****     
 470:source\asw/clock.c ****     time.minute.value++;
 417              		.loc 1 470 0
 418 0014 9DF82E30 		ldrb	r3, [sp, #46]	@ zero_extendqisi2
 419 0018 0133     		adds	r3, r3, #1
 420 001a DBB2     		uxtb	r3, r3
 421 001c 8DF82E30 		strb	r3, [sp, #46]
 471:source\asw/clock.c ****     if(time.minute.value%60 == 0)
 422              		.loc 1 471 0
 423 0020 264A     		ldr	r2, .L35+4
 424 0022 A2FB0312 		umull	r1, r2, r2, r3
 425 0026 5209     		lsrs	r2, r2, #5
 426 0028 C2EB0212 		rsb	r2, r2, r2, lsl #4
 427 002c 9100     		lsls	r1, r2, #2
 428 002e 5B1A     		subs	r3, r3, r1
 429 0030 13F0FF0F 		tst	r3, #255
 430 0034 16D1     		bne	.L28
ARM GAS  C:\Users\giris\AppData\Local\Temp\cceloVpD.s 			page 23


 472:source\asw/clock.c ****     {
 473:source\asw/clock.c ****         time.hour.value++;
 431              		.loc 1 473 0
 432 0036 9DF82230 		ldrb	r3, [sp, #34]	@ zero_extendqisi2
 433 003a 0133     		adds	r3, r3, #1
 434 003c DBB2     		uxtb	r3, r3
 435 003e 8DF82230 		strb	r3, [sp, #34]
 474:source\asw/clock.c ****         if(time.hour.value%24 == 0)
 436              		.loc 1 474 0
 437 0042 1F4A     		ldr	r2, .L35+8
 438 0044 A2FB0312 		umull	r1, r2, r2, r3
 439 0048 1209     		lsrs	r2, r2, #4
 440 004a 02EB4202 		add	r2, r2, r2, lsl #1
 441 004e D100     		lsls	r1, r2, #3
 442 0050 5B1A     		subs	r3, r3, r1
 443 0052 13F0FF0F 		tst	r3, #255
 444 0056 02D1     		bne	.L29
 475:source\asw/clock.c ****         {
 476:source\asw/clock.c ****             time.hour.value = 0;
 445              		.loc 1 476 0
 446 0058 0023     		movs	r3, #0
 447 005a 8DF82230 		strb	r3, [sp, #34]
 448              	.L29:
 477:source\asw/clock.c ****         }
 478:source\asw/clock.c ****         time.minute.value = 0;
 449              		.loc 1 478 0
 450 005e 0023     		movs	r3, #0
 451 0060 8DF82E30 		strb	r3, [sp, #46]
 452              	.L28:
 453              	.LVL37:
 454 0064 6C46     		mov	r4, sp
 455 0066 06AD     		add	r5, sp, #24
 456 0068 0FCD     		ldmia	r5!, {r0, r1, r2, r3}
 457 006a 0FC4     		stmia	r4!, {r0, r1, r2, r3}
 458 006c 95E80300 		ldmia	r5, {r0, r1}
 459 0070 84E80300 		stmia	r4, {r0, r1}
 460              	.LVL38:
 461              	.LBB93:
 462              	.LBB94:
 316:.\source\rte/sc_control.h ****    signal->value  = value;
 463              		.loc 2 316 0
 464 0074 104E     		ldr	r6, .L35
 465 0076 376A     		ldr	r7, [r6, #32]
 317:.\source\rte/sc_control.h ****    signal->age    = 0;
 466              		.loc 2 317 0
 467 0078 3446     		mov	r4, r6
 468 007a 6D46     		mov	r5, sp
 469 007c 0FCD     		ldmia	r5!, {r0, r1, r2, r3}
 470 007e 0FC4     		stmia	r4!, {r0, r1, r2, r3}
 471 0080 95E80300 		ldmia	r5, {r0, r1}
 472 0084 84E80300 		stmia	r4, {r0, r1}
 318:.\source\rte/sc_control.h ****    signal->status = RTE_SIGNALSTATUS_VALID;
 473              		.loc 2 318 0
 474 0088 0023     		movs	r3, #0
 475 008a F361     		str	r3, [r6, #28]
 319:.\source\rte/sc_control.h ****    if (TRUE == signal->pSigCfg->resourceActive) ReleaseResource(signal->pSigCfg->resource);
 476              		.loc 2 319 0
ARM GAS  C:\Users\giris\AppData\Local\Temp\cceloVpD.s 			page 24


 477 008c 0223     		movs	r3, #2
 478 008e 3376     		strb	r3, [r6, #24]
 323:.\source\rte/sc_control.h **** 
 479              		.loc 2 323 0
 480 0090 7D69     		ldr	r5, [r7, #20]
 481              	.LVL39:
 325:.\source\rte/sc_control.h ****       for( taskNum=0 ; taskNum < signal->pSigCfg->onUpdateTaskCount ;taskNum++){
 482              		.loc 2 325 0
 483 0092 BB68     		ldr	r3, [r7, #8]
 484 0094 73B1     		cbz	r3, .L27
 485 0096 3DB9     		cbnz	r5, .L33
 486 0098 0CE0     		b	.L27
 487              	.LVL40:
 488              	.L32:
 489              	.LBB95:
 490              		.loc 2 329 0
 491 009a 9968     		ldr	r1, [r3, #8]
 492 009c 55F82400 		ldr	r0, [r5, r4, lsl #2]
 493 00a0 FFF7FEFF 		bl	EE_oo_SetEvent
 494              	.LVL41:
 495              	.LBE95:
 326:.\source\rte/sc_control.h **** 		  
 496              		.loc 2 326 0
 497 00a4 0134     		adds	r4, r4, #1
 498              	.LVL42:
 499 00a6 00E0     		b	.L31
 500              	.LVL43:
 501              	.L33:
 325:.\source\rte/sc_control.h ****       for( taskNum=0 ; taskNum < signal->pSigCfg->onUpdateTaskCount ;taskNum++){
 502              		.loc 2 325 0
 503 00a8 0024     		movs	r4, #0
 504              	.LVL44:
 505              	.L31:
 326:.\source\rte/sc_control.h **** 		  
 506              		.loc 2 326 0
 507 00aa 034B     		ldr	r3, .L35
 508 00ac 1B6A     		ldr	r3, [r3, #32]
 509 00ae 1A69     		ldr	r2, [r3, #16]
 510 00b0 9442     		cmp	r4, r2
 511 00b2 F2D3     		bcc	.L32
 512              	.LVL45:
 513              	.L27:
 514              	.LBE94:
 515              	.LBE93:
 479:source\asw/clock.c ****     }
 480:source\asw/clock.c ****     RTE_SC_CONTROL_set(&SO_CONTROL_signal, time);
 481:source\asw/clock.c **** }
 516              		.loc 1 481 0
 517 00b4 0DB0     		add	sp, sp, #52
 518              		.cfi_def_cfa_offset 20
 519              		@ sp needed
 520 00b6 F0BD     		pop	{r4, r5, r6, r7, pc}
 521              	.LVL46:
 522              	.L36:
 523              		.align	2
 524              	.L35:
 525 00b8 00000000 		.word	SO_CONTROL_signal
ARM GAS  C:\Users\giris\AppData\Local\Temp\cceloVpD.s 			page 25


 526 00bc 89888888 		.word	-2004318071
 527 00c0 ABAAAAAA 		.word	-1431655765
 528              		.cfi_endproc
 529              	.LFE161:
 530              		.size	CLOCK__updateTime, .-CLOCK__updateTime
 531              		.section	.text.CLOCK__Increment1Minute,"ax",%progbits
 532              		.align	2
 533              		.thumb
 534              		.thumb_func
 535              		.type	CLOCK__Increment1Minute, %function
 536              	CLOCK__Increment1Minute:
 537              	.LFB148:
 300:source\asw/clock.c **** //    UART_LOG_PutString("\nIn Increment1Minute Dispatch.....\n");
 538              		.loc 1 300 0
 539              		.cfi_startproc
 540              		@ args = 0, pretend = 0, frame = 0
 541              		@ frame_needed = 0, uses_anonymous_args = 0
 542 0000 08B5     		push	{r3, lr}
 543              		.cfi_def_cfa_offset 8
 544              		.cfi_offset 3, -8
 545              		.cfi_offset 14, -4
 303:source\asw/clock.c **** }
 546              		.loc 1 303 0
 547 0002 FFF7FEFF 		bl	CLOCK__updateTime
 548              	.LVL47:
 549 0006 08BD     		pop	{r3, pc}
 550              		.cfi_endproc
 551              	.LFE148:
 552              		.size	CLOCK__Increment1Minute, .-CLOCK__Increment1Minute
 553              		.section	.text.CLOCK__IncrementHourandDisplay,"ax",%progbits
 554              		.align	2
 555              		.thumb
 556              		.thumb_func
 557              		.type	CLOCK__IncrementHourandDisplay, %function
 558              	CLOCK__IncrementHourandDisplay:
 559              	.LFB162:
 482:source\asw/clock.c **** 
 483:source\asw/clock.c **** void CLOCK__IncrementHourandDisplay()
 484:source\asw/clock.c **** {
 560              		.loc 1 484 0
 561              		.cfi_startproc
 562              		@ args = 0, pretend = 0, frame = 48
 563              		@ frame_needed = 0, uses_anonymous_args = 0
 564 0000 F0B5     		push	{r4, r5, r6, r7, lr}
 565              		.cfi_def_cfa_offset 20
 566              		.cfi_offset 4, -20
 567              		.cfi_offset 5, -16
 568              		.cfi_offset 6, -12
 569              		.cfi_offset 7, -8
 570              		.cfi_offset 14, -4
 571 0002 8DB0     		sub	sp, sp, #52
 572              		.cfi_def_cfa_offset 72
 573              	.LVL48:
 574              	.LBB96:
 575              	.LBB97:
 277:.\source\rte/sc_control.h **** }                                                                                                  
 576              		.loc 2 277 0
ARM GAS  C:\Users\giris\AppData\Local\Temp\cceloVpD.s 			page 26


 577 0004 06AC     		add	r4, sp, #24
 578 0006 234D     		ldr	r5, .L46
 579 0008 0FCD     		ldmia	r5!, {r0, r1, r2, r3}
 580 000a 0FC4     		stmia	r4!, {r0, r1, r2, r3}
 581 000c 95E80300 		ldmia	r5, {r0, r1}
 582 0010 84E80300 		stmia	r4, {r0, r1}
 583              	.LVL49:
 584              	.LBE97:
 585              	.LBE96:
 485:source\asw/clock.c ****     SC_CONTROL_data_t   clock_hour  =   RTE_SC_CONTROL_get(&SO_CONTROL_signal);
 486:source\asw/clock.c ****     
 487:source\asw/clock.c ****     clock_hour.hour.value++;
 586              		.loc 1 487 0
 587 0014 9DF82230 		ldrb	r3, [sp, #34]	@ zero_extendqisi2
 588 0018 0133     		adds	r3, r3, #1
 589 001a DBB2     		uxtb	r3, r3
 590 001c 8DF82230 		strb	r3, [sp, #34]
 488:source\asw/clock.c ****     
 489:source\asw/clock.c ****     if(clock_hour.hour.value%24 == 0)
 591              		.loc 1 489 0
 592 0020 1D4A     		ldr	r2, .L46+4
 593 0022 A2FB0312 		umull	r1, r2, r2, r3
 594 0026 1209     		lsrs	r2, r2, #4
 595 0028 02EB4202 		add	r2, r2, r2, lsl #1
 596 002c D100     		lsls	r1, r2, #3
 597 002e 5B1A     		subs	r3, r3, r1
 598 0030 13F0FF0F 		tst	r3, #255
 599 0034 02D1     		bne	.L40
 490:source\asw/clock.c ****     {
 491:source\asw/clock.c ****         clock_hour.hour.value = 0;
 600              		.loc 1 491 0
 601 0036 0023     		movs	r3, #0
 602 0038 8DF82230 		strb	r3, [sp, #34]
 603              	.L40:
 492:source\asw/clock.c ****     }
 493:source\asw/clock.c ****     
 494:source\asw/clock.c **** //    char buffer[100];
 495:source\asw/clock.c **** //    itoa(clock_hour.hour.value, buffer, 10);
 496:source\asw/clock.c **** //    UART_LOG_PutString("Hour value: ");
 497:source\asw/clock.c **** //    UART_LOG_PutString(buffer);
 498:source\asw/clock.c **** //    UART_LOG_PutString("\n");
 499:source\asw/clock.c ****     
 500:source\asw/clock.c ****     CLOCK__updateDisplay();
 604              		.loc 1 500 0
 605 003c FFF7FEFF 		bl	CLOCK__updateDisplay
 606              	.LVL50:
 607 0040 6C46     		mov	r4, sp
 608 0042 06AD     		add	r5, sp, #24
 609 0044 0FCD     		ldmia	r5!, {r0, r1, r2, r3}
 610 0046 0FC4     		stmia	r4!, {r0, r1, r2, r3}
 611 0048 95E80300 		ldmia	r5, {r0, r1}
 612 004c 84E80300 		stmia	r4, {r0, r1}
 613              	.LVL51:
 614              	.LBB98:
 615              	.LBB99:
 316:.\source\rte/sc_control.h ****    signal->value  = value;
 616              		.loc 2 316 0
ARM GAS  C:\Users\giris\AppData\Local\Temp\cceloVpD.s 			page 27


 617 0050 104E     		ldr	r6, .L46
 618 0052 376A     		ldr	r7, [r6, #32]
 317:.\source\rte/sc_control.h ****    signal->age    = 0;
 619              		.loc 2 317 0
 620 0054 3446     		mov	r4, r6
 621 0056 6D46     		mov	r5, sp
 622 0058 0FCD     		ldmia	r5!, {r0, r1, r2, r3}
 623 005a 0FC4     		stmia	r4!, {r0, r1, r2, r3}
 624 005c 95E80300 		ldmia	r5, {r0, r1}
 625 0060 84E80300 		stmia	r4, {r0, r1}
 318:.\source\rte/sc_control.h ****    signal->status = RTE_SIGNALSTATUS_VALID;
 626              		.loc 2 318 0
 627 0064 0023     		movs	r3, #0
 628 0066 F361     		str	r3, [r6, #28]
 319:.\source\rte/sc_control.h ****    if (TRUE == signal->pSigCfg->resourceActive) ReleaseResource(signal->pSigCfg->resource);
 629              		.loc 2 319 0
 630 0068 0223     		movs	r3, #2
 631 006a 3376     		strb	r3, [r6, #24]
 323:.\source\rte/sc_control.h **** 
 632              		.loc 2 323 0
 633 006c 7D69     		ldr	r5, [r7, #20]
 634              	.LVL52:
 325:.\source\rte/sc_control.h ****       for( taskNum=0 ; taskNum < signal->pSigCfg->onUpdateTaskCount ;taskNum++){
 635              		.loc 2 325 0
 636 006e BB68     		ldr	r3, [r7, #8]
 637 0070 73B1     		cbz	r3, .L39
 638 0072 3DB9     		cbnz	r5, .L44
 639 0074 0CE0     		b	.L39
 640              	.LVL53:
 641              	.L43:
 642              	.LBB100:
 643              		.loc 2 329 0
 644 0076 9968     		ldr	r1, [r3, #8]
 645 0078 55F82400 		ldr	r0, [r5, r4, lsl #2]
 646 007c FFF7FEFF 		bl	EE_oo_SetEvent
 647              	.LVL54:
 648              	.LBE100:
 326:.\source\rte/sc_control.h **** 		  
 649              		.loc 2 326 0
 650 0080 0134     		adds	r4, r4, #1
 651              	.LVL55:
 652 0082 00E0     		b	.L42
 653              	.LVL56:
 654              	.L44:
 325:.\source\rte/sc_control.h ****       for( taskNum=0 ; taskNum < signal->pSigCfg->onUpdateTaskCount ;taskNum++){
 655              		.loc 2 325 0
 656 0084 0024     		movs	r4, #0
 657              	.LVL57:
 658              	.L42:
 326:.\source\rte/sc_control.h **** 		  
 659              		.loc 2 326 0
 660 0086 034B     		ldr	r3, .L46
 661 0088 1B6A     		ldr	r3, [r3, #32]
 662 008a 1A69     		ldr	r2, [r3, #16]
 663 008c 9442     		cmp	r4, r2
 664 008e F2D3     		bcc	.L43
 665              	.LVL58:
ARM GAS  C:\Users\giris\AppData\Local\Temp\cceloVpD.s 			page 28


 666              	.L39:
 667              	.LBE99:
 668              	.LBE98:
 501:source\asw/clock.c ****     
 502:source\asw/clock.c ****     RTE_SC_CONTROL_set(&SO_CONTROL_signal, clock_hour);
 503:source\asw/clock.c **** }
 669              		.loc 1 503 0
 670 0090 0DB0     		add	sp, sp, #52
 671              		.cfi_def_cfa_offset 20
 672              		@ sp needed
 673 0092 F0BD     		pop	{r4, r5, r6, r7, pc}
 674              	.LVL59:
 675              	.L47:
 676              		.align	2
 677              	.L46:
 678 0094 00000000 		.word	SO_CONTROL_signal
 679 0098 ABAAAAAA 		.word	-1431655765
 680              		.cfi_endproc
 681              	.LFE162:
 682              		.size	CLOCK__IncrementHourandDisplay, .-CLOCK__IncrementHourandDisplay
 683              		.section	.text.CLOCK__IncrementMinuteandDisplay,"ax",%progbits
 684              		.align	2
 685              		.thumb
 686              		.thumb_func
 687              		.type	CLOCK__IncrementMinuteandDisplay, %function
 688              	CLOCK__IncrementMinuteandDisplay:
 689              	.LFB163:
 504:source\asw/clock.c **** 
 505:source\asw/clock.c **** void CLOCK__IncrementMinuteandDisplay()
 506:source\asw/clock.c **** {
 690              		.loc 1 506 0
 691              		.cfi_startproc
 692              		@ args = 0, pretend = 0, frame = 48
 693              		@ frame_needed = 0, uses_anonymous_args = 0
 694 0000 F0B5     		push	{r4, r5, r6, r7, lr}
 695              		.cfi_def_cfa_offset 20
 696              		.cfi_offset 4, -20
 697              		.cfi_offset 5, -16
 698              		.cfi_offset 6, -12
 699              		.cfi_offset 7, -8
 700              		.cfi_offset 14, -4
 701 0002 8DB0     		sub	sp, sp, #52
 702              		.cfi_def_cfa_offset 72
 703              	.LVL60:
 704              	.LBB101:
 705              	.LBB102:
 277:.\source\rte/sc_control.h **** }                                                                                                  
 706              		.loc 2 277 0
 707 0004 06AC     		add	r4, sp, #24
 708 0006 244D     		ldr	r5, .L55
 709 0008 0FCD     		ldmia	r5!, {r0, r1, r2, r3}
 710 000a 0FC4     		stmia	r4!, {r0, r1, r2, r3}
 711 000c 95E80300 		ldmia	r5, {r0, r1}
 712 0010 84E80300 		stmia	r4, {r0, r1}
 713              	.LVL61:
 714              	.LBE102:
 715              	.LBE101:
ARM GAS  C:\Users\giris\AppData\Local\Temp\cceloVpD.s 			page 29


 507:source\asw/clock.c ****     SC_CONTROL_data_t   clock_minute  =   RTE_SC_CONTROL_get(&SO_CONTROL_signal);
 508:source\asw/clock.c ****         
 509:source\asw/clock.c ****     clock_minute.minute.value++;
 716              		.loc 1 509 0
 717 0014 9DF82E30 		ldrb	r3, [sp, #46]	@ zero_extendqisi2
 718 0018 0133     		adds	r3, r3, #1
 719 001a DBB2     		uxtb	r3, r3
 720 001c 8DF82E30 		strb	r3, [sp, #46]
 510:source\asw/clock.c ****     
 511:source\asw/clock.c ****     if(clock_minute.minute.value%60 == 0)
 721              		.loc 1 511 0
 722 0020 1E4A     		ldr	r2, .L55+4
 723 0022 A2FB0312 		umull	r1, r2, r2, r3
 724 0026 5209     		lsrs	r2, r2, #5
 725 0028 C2EB0212 		rsb	r2, r2, r2, lsl #4
 726 002c 9100     		lsls	r1, r2, #2
 727 002e 5B1A     		subs	r3, r3, r1
 728 0030 13F0FF0F 		tst	r3, #255
 729 0034 04D1     		bne	.L49
 512:source\asw/clock.c ****     {
 513:source\asw/clock.c ****         clock_minute.minute.value = 0;
 730              		.loc 1 513 0
 731 0036 0023     		movs	r3, #0
 732 0038 8DF82E30 		strb	r3, [sp, #46]
 514:source\asw/clock.c ****         CLOCK__IncrementHourandDisplay();
 733              		.loc 1 514 0
 734 003c FFF7FEFF 		bl	CLOCK__IncrementHourandDisplay
 735              	.LVL62:
 736              	.L49:
 515:source\asw/clock.c ****     }
 516:source\asw/clock.c ****     
 517:source\asw/clock.c **** //    char buffer[100];
 518:source\asw/clock.c **** //    itoa(clock_minute.minute.value, buffer, 10);
 519:source\asw/clock.c **** //    UART_LOG_PutString("Minute value: ");
 520:source\asw/clock.c **** //    UART_LOG_PutString(buffer);
 521:source\asw/clock.c **** //    UART_LOG_PutString("\n");
 522:source\asw/clock.c ****     
 523:source\asw/clock.c ****     CLOCK__updateDisplay();
 737              		.loc 1 523 0
 738 0040 FFF7FEFF 		bl	CLOCK__updateDisplay
 739              	.LVL63:
 740 0044 6C46     		mov	r4, sp
 741 0046 06AD     		add	r5, sp, #24
 742 0048 0FCD     		ldmia	r5!, {r0, r1, r2, r3}
 743 004a 0FC4     		stmia	r4!, {r0, r1, r2, r3}
 744 004c 95E80300 		ldmia	r5, {r0, r1}
 745 0050 84E80300 		stmia	r4, {r0, r1}
 746              	.LVL64:
 747              	.LBB103:
 748              	.LBB104:
 316:.\source\rte/sc_control.h ****    signal->value  = value;
 749              		.loc 2 316 0
 750 0054 104E     		ldr	r6, .L55
 751 0056 376A     		ldr	r7, [r6, #32]
 317:.\source\rte/sc_control.h ****    signal->age    = 0;
 752              		.loc 2 317 0
 753 0058 3446     		mov	r4, r6
ARM GAS  C:\Users\giris\AppData\Local\Temp\cceloVpD.s 			page 30


 754 005a 6D46     		mov	r5, sp
 755 005c 0FCD     		ldmia	r5!, {r0, r1, r2, r3}
 756 005e 0FC4     		stmia	r4!, {r0, r1, r2, r3}
 757 0060 95E80300 		ldmia	r5, {r0, r1}
 758 0064 84E80300 		stmia	r4, {r0, r1}
 318:.\source\rte/sc_control.h ****    signal->status = RTE_SIGNALSTATUS_VALID;
 759              		.loc 2 318 0
 760 0068 0023     		movs	r3, #0
 761 006a F361     		str	r3, [r6, #28]
 319:.\source\rte/sc_control.h ****    if (TRUE == signal->pSigCfg->resourceActive) ReleaseResource(signal->pSigCfg->resource);
 762              		.loc 2 319 0
 763 006c 0223     		movs	r3, #2
 764 006e 3376     		strb	r3, [r6, #24]
 323:.\source\rte/sc_control.h **** 
 765              		.loc 2 323 0
 766 0070 7D69     		ldr	r5, [r7, #20]
 767              	.LVL65:
 325:.\source\rte/sc_control.h ****       for( taskNum=0 ; taskNum < signal->pSigCfg->onUpdateTaskCount ;taskNum++){
 768              		.loc 2 325 0
 769 0072 BB68     		ldr	r3, [r7, #8]
 770 0074 73B1     		cbz	r3, .L48
 771 0076 3DB9     		cbnz	r5, .L53
 772 0078 0CE0     		b	.L48
 773              	.LVL66:
 774              	.L52:
 775              	.LBB105:
 776              		.loc 2 329 0
 777 007a 9968     		ldr	r1, [r3, #8]
 778 007c 55F82400 		ldr	r0, [r5, r4, lsl #2]
 779 0080 FFF7FEFF 		bl	EE_oo_SetEvent
 780              	.LVL67:
 781              	.LBE105:
 326:.\source\rte/sc_control.h **** 		  
 782              		.loc 2 326 0
 783 0084 0134     		adds	r4, r4, #1
 784              	.LVL68:
 785 0086 00E0     		b	.L51
 786              	.LVL69:
 787              	.L53:
 325:.\source\rte/sc_control.h ****       for( taskNum=0 ; taskNum < signal->pSigCfg->onUpdateTaskCount ;taskNum++){
 788              		.loc 2 325 0
 789 0088 0024     		movs	r4, #0
 790              	.LVL70:
 791              	.L51:
 326:.\source\rte/sc_control.h **** 		  
 792              		.loc 2 326 0
 793 008a 034B     		ldr	r3, .L55
 794 008c 1B6A     		ldr	r3, [r3, #32]
 795 008e 1A69     		ldr	r2, [r3, #16]
 796 0090 9442     		cmp	r4, r2
 797 0092 F2D3     		bcc	.L52
 798              	.LVL71:
 799              	.L48:
 800              	.LBE104:
 801              	.LBE103:
 524:source\asw/clock.c ****     
 525:source\asw/clock.c ****     RTE_SC_CONTROL_set(&SO_CONTROL_signal, clock_minute);
ARM GAS  C:\Users\giris\AppData\Local\Temp\cceloVpD.s 			page 31


 526:source\asw/clock.c **** }
 802              		.loc 1 526 0
 803 0094 0DB0     		add	sp, sp, #52
 804              		.cfi_def_cfa_offset 20
 805              		@ sp needed
 806 0096 F0BD     		pop	{r4, r5, r6, r7, pc}
 807              	.LVL72:
 808              	.L56:
 809              		.align	2
 810              	.L55:
 811 0098 00000000 		.word	SO_CONTROL_signal
 812 009c 89888888 		.word	-2004318071
 813              		.cfi_endproc
 814              	.LFE163:
 815              		.size	CLOCK__IncrementMinuteandDisplay, .-CLOCK__IncrementMinuteandDisplay
 816              		.section	.text.CLOCK__incrementWidget,"ax",%progbits
 817              		.align	2
 818              		.thumb
 819              		.thumb_func
 820              		.type	CLOCK__incrementWidget, %function
 821              	CLOCK__incrementWidget:
 822              	.LFB157:
 383:source\asw/clock.c **** //    UART_LOG_PutString("\nIn increment widget Dispatch.....\n");
 823              		.loc 1 383 0
 824              		.cfi_startproc
 825              		@ args = 0, pretend = 0, frame = 72
 826              		@ frame_needed = 0, uses_anonymous_args = 0
 827 0000 00B5     		push	{lr}
 828              		.cfi_def_cfa_offset 4
 829              		.cfi_offset 14, -4
 830 0002 93B0     		sub	sp, sp, #76
 831              		.cfi_def_cfa_offset 80
 832              	.LVL73:
 833              	.LBB106:
 834              	.LBB107:
 835              		.file 3 ".\\source\\rte/sc_input.h"
   1:.\source\rte/sc_input.h **** 
   2:.\source\rte/sc_input.h **** 
   3:.\source\rte/sc_input.h **** /**
   4:.\source\rte/sc_input.h ****  *  file    SC_INPUT_signal.h
   5:.\source\rte/sc_input.h ****  *
   6:.\source\rte/sc_input.h ****  *  brief   signal base class for signal sc_input
   7:.\source\rte/sc_input.h ****  *
   8:.\source\rte/sc_input.h ****  *  author  Autogenerated, Peter Fromm       <peter.fromm@h-da.de>
   9:.\source\rte/sc_input.h ****  *
  10:.\source\rte/sc_input.h ****  * description: Signalclass
  11:.\source\rte/sc_input.h ****  * name: sc_input
  12:.\source\rte/sc_input.h ****  * shortname: input
  13:.\source\rte/sc_input.h ****  *
  14:.\source\rte/sc_input.h ****  */
  15:.\source\rte/sc_input.h **** 
  16:.\source\rte/sc_input.h **** 
  17:.\source\rte/sc_input.h **** 
  18:.\source\rte/sc_input.h **** #ifndef SC_INPUT_SIGNAL_H_INCLUDED
  19:.\source\rte/sc_input.h **** #define SC_INPUT_SIGNAL_H_INCLUDED
  20:.\source\rte/sc_input.h **** 
  21:.\source\rte/sc_input.h **** /*================================================[ public includes  ]=============================
ARM GAS  C:\Users\giris\AppData\Local\Temp\cceloVpD.s 			page 32


  22:.\source\rte/sc_input.h **** #include "global.h"
  23:.\source\rte/sc_input.h **** #include "project.h"
  24:.\source\rte/sc_input.h **** #include "rte.h"
  25:.\source\rte/sc_input.h **** #include "rte_types.h"
  26:.\source\rte/sc_input.h **** 
  27:.\source\rte/sc_input.h **** #include "sc_input_type.h"
  28:.\source\rte/sc_input.h **** 
  29:.\source\rte/sc_input.h **** 
  30:.\source\rte/sc_input.h **** /**************************************************************************************************
  31:.\source\rte/sc_input.h **** /* The driver API block																						*/
  32:.\source\rte/sc_input.h **** /**************************************************************************************************
  33:.\source\rte/sc_input.h ****                                                                                                    
  34:.\source\rte/sc_input.h **** /**
  35:.\source\rte/sc_input.h ****  *  Definition of function types for driver interfaces.
  36:.\source\rte/sc_input.h ****  *  I-Port
  37:.\source\rte/sc_input.h ****  */
  38:.\source\rte/sc_input.h **** typedef RC_t (*SC_INPUT_driverIn_t)(SC_INPUT_data_t * const);
  39:.\source\rte/sc_input.h **** 
  40:.\source\rte/sc_input.h **** /**
  41:.\source\rte/sc_input.h ****  *  Definition of function types for driver interfaces.
  42:.\source\rte/sc_input.h ****  *  O-Port
  43:.\source\rte/sc_input.h ****  */
  44:.\source\rte/sc_input.h **** typedef RC_t (*SC_INPUT_driverOut_t)( const SC_INPUT_data_t * const);
  45:.\source\rte/sc_input.h **** 
  46:.\source\rte/sc_input.h **** 
  47:.\source\rte/sc_input.h **** /**************************************************************************************************
  48:.\source\rte/sc_input.h **** /* The signal configuration API block																				*/
  49:.\source\rte/sc_input.h **** /**************************************************************************************************
  50:.\source\rte/sc_input.h **** 
  51:.\source\rte/sc_input.h **** /**
  52:.\source\rte/sc_input.h ****  * Instances of the struct SC_INPUT_cfg_t represent the signal object configuration.
  53:.\source\rte/sc_input.h ****  */
  54:.\source\rte/sc_input.h **** struct SC_INPUT_cfg_s
  55:.\source\rte/sc_input.h **** {
  56:.\source\rte/sc_input.h ****     /**
  57:.\source\rte/sc_input.h ****      * Function pointer to the input driver
  58:.\source\rte/sc_input.h ****      */
  59:.\source\rte/sc_input.h ****     SC_INPUT_driverIn_t const inDriver;
  60:.\source\rte/sc_input.h **** 
  61:.\source\rte/sc_input.h ****     /**
  62:.\source\rte/sc_input.h ****      * Function pointer to the output driver table
  63:.\source\rte/sc_input.h ****      */
  64:.\source\rte/sc_input.h ****    SC_INPUT_driverOut_t const outDriver;
  65:.\source\rte/sc_input.h ****    
  66:.\source\rte/sc_input.h ****     /**
  67:.\source\rte/sc_input.h ****      * Event onUpdate
  68:.\source\rte/sc_input.h ****      */
  69:.\source\rte/sc_input.h ****     EventMaskType const evOnUpdate;
  70:.\source\rte/sc_input.h ****     
  71:.\source\rte/sc_input.h ****     
  72:.\source\rte/sc_input.h ****     /**
  73:.\source\rte/sc_input.h ****      * Event onError
  74:.\source\rte/sc_input.h ****      */
  75:.\source\rte/sc_input.h ****     EventMaskType const evOnError;
  76:.\source\rte/sc_input.h ****     
  77:.\source\rte/sc_input.h ****     /**
  78:.\source\rte/sc_input.h ****      * Task Count onUpdate
ARM GAS  C:\Users\giris\AppData\Local\Temp\cceloVpD.s 			page 33


  79:.\source\rte/sc_input.h ****      */
  80:.\source\rte/sc_input.h ****     size_t const onUpdateTaskCount;
  81:.\source\rte/sc_input.h **** 
  82:.\source\rte/sc_input.h ****     /**
  83:.\source\rte/sc_input.h ****      * Task List onUpdate
  84:.\source\rte/sc_input.h ****      */
  85:.\source\rte/sc_input.h ****     TaskTypeArray* const onUpdateTasks;
  86:.\source\rte/sc_input.h ****     
  87:.\source\rte/sc_input.h ****     /**
  88:.\source\rte/sc_input.h ****      * Task Count onError
  89:.\source\rte/sc_input.h ****      */
  90:.\source\rte/sc_input.h ****     size_t const onErrorTaskCount;
  91:.\source\rte/sc_input.h **** 
  92:.\source\rte/sc_input.h ****     /**
  93:.\source\rte/sc_input.h ****      * Task List onError
  94:.\source\rte/sc_input.h ****      */
  95:.\source\rte/sc_input.h ****     TaskTypeArray* const onErrorTasks;
  96:.\source\rte/sc_input.h **** 	
  97:.\source\rte/sc_input.h **** 	
  98:.\source\rte/sc_input.h **** 	/**
  99:.\source\rte/sc_input.h **** 	 * Ressourse is active? We need an additional boolean as a ressource value 0 is valid.
 100:.\source\rte/sc_input.h **** 	 */
 101:.\source\rte/sc_input.h **** 	 boolean_t const resourceActive;
 102:.\source\rte/sc_input.h **** 	 
 103:.\source\rte/sc_input.h **** 	/**
 104:.\source\rte/sc_input.h **** 	 * Ressourse 
 105:.\source\rte/sc_input.h **** 	 */
 106:.\source\rte/sc_input.h **** 	 ResourceType const resource;
 107:.\source\rte/sc_input.h **** 
 108:.\source\rte/sc_input.h **** };                                                                                                 
 109:.\source\rte/sc_input.h **** typedef const struct SC_INPUT_cfg_s SC_INPUT_cfg_t;
 110:.\source\rte/sc_input.h ****                               
 111:.\source\rte/sc_input.h **** /**************************************************************************************************
 112:.\source\rte/sc_input.h **** /* The data interface block																							*/
 113:.\source\rte/sc_input.h **** /**************************************************************************************************
 114:.\source\rte/sc_input.h **** 
 115:.\source\rte/sc_input.h ****                                                                                                    
 116:.\source\rte/sc_input.h **** 							  
 117:.\source\rte/sc_input.h **** /**
 118:.\source\rte/sc_input.h ****  * Instances of the struct SC_INPUT_t represent the signal objects.
 119:.\source\rte/sc_input.h ****  * A signal object contains the current application value 'value' as well as relevant meta data.
 120:.\source\rte/sc_input.h ****  */
 121:.\source\rte/sc_input.h **** struct SC_INPUT_s
 122:.\source\rte/sc_input.h **** {                                                                                                  
 123:.\source\rte/sc_input.h **** 
 124:.\source\rte/sc_input.h **** 	/**
 125:.\source\rte/sc_input.h **** 	 * Data buffer for the application value
 126:.\source\rte/sc_input.h **** 	 */
 127:.\source\rte/sc_input.h ****     SC_INPUT_data_t value;
 128:.\source\rte/sc_input.h **** 
 129:.\source\rte/sc_input.h ****     /**
 130:.\source\rte/sc_input.h ****      * Current signal status
 131:.\source\rte/sc_input.h ****      */
 132:.\source\rte/sc_input.h ****     RTE_signalStatus_t status;
 133:.\source\rte/sc_input.h **** 
 134:.\source\rte/sc_input.h ****     /**
 135:.\source\rte/sc_input.h ****      * Current age of the signal (in calling cycles)
ARM GAS  C:\Users\giris\AppData\Local\Temp\cceloVpD.s 			page 34


 136:.\source\rte/sc_input.h ****      */
 137:.\source\rte/sc_input.h ****     uint32_t age;
 138:.\source\rte/sc_input.h **** 
 139:.\source\rte/sc_input.h ****     /**
 140:.\source\rte/sc_input.h ****      * Pointer to the signal configuration
 141:.\source\rte/sc_input.h ****      */
 142:.\source\rte/sc_input.h **** 	const SC_INPUT_cfg_t * const    pSigCfg;
 143:.\source\rte/sc_input.h **** 
 144:.\source\rte/sc_input.h **** };                                                                                                 
 145:.\source\rte/sc_input.h **** typedef struct SC_INPUT_s SC_INPUT_t;
 146:.\source\rte/sc_input.h **** 
 147:.\source\rte/sc_input.h **** /**************************************************************************************************
 148:.\source\rte/sc_input.h **** /* Signal initialisation   																							*/
 149:.\source\rte/sc_input.h **** /**************************************************************************************************
 150:.\source\rte/sc_input.h **** 
 151:.\source\rte/sc_input.h **** /**
 152:.\source\rte/sc_input.h ****  * Initializes a signal instance with a passed init value.
 153:.\source\rte/sc_input.h ****  * Depending on the configured conversion or scaling function the raw_value will be calculated.
 154:.\source\rte/sc_input.h ****  * Signal status will change from RTE_SIGNALSTATUS_STARTUP to RTE_SIGNALSTATUS_INITIALIZED.
 155:.\source\rte/sc_input.h ****  *
 156:.\source\rte/sc_input.h ****  * @param  SC_INPUT_t * const signal: Pointer to the signal object which will be initialised
 157:.\source\rte/sc_input.h ****  * @return RC_t: standard return code, currently only RC_SUCCESS
 158:.\source\rte/sc_input.h ****  *
 159:.\source\rte/sc_input.h ****  **/
 160:.\source\rte/sc_input.h **** inline RC_t RTE_SC_INPUT_init( SC_INPUT_t * const signal )
 161:.\source\rte/sc_input.h **** {                                                                                                  
 162:.\source\rte/sc_input.h **** 
 163:.\source\rte/sc_input.h ****    RC_t ret = RC_SUCCESS;
 164:.\source\rte/sc_input.h **** 
 165:.\source\rte/sc_input.h ****    //Set value and raw value
 166:.\source\rte/sc_input.h ****    signal->value  = SC_INPUT_INIT_DATA;
 167:.\source\rte/sc_input.h ****    signal->age    = 0;
 168:.\source\rte/sc_input.h ****    signal->status = RTE_SIGNALSTATUS_INITIALIZED;
 169:.\source\rte/sc_input.h **** 
 170:.\source\rte/sc_input.h ****    return ret;
 171:.\source\rte/sc_input.h **** }
 172:.\source\rte/sc_input.h **** 
 173:.\source\rte/sc_input.h **** /**************************************************************************************************
 174:.\source\rte/sc_input.h **** /* Status and timeout control																						*/
 175:.\source\rte/sc_input.h **** /**************************************************************************************************
 176:.\source\rte/sc_input.h **** 
 177:.\source\rte/sc_input.h **** /**
 178:.\source\rte/sc_input.h ****  *  Returns the current signal status of the passed signal instance.
 179:.\source\rte/sc_input.h ****  *
 180:.\source\rte/sc_input.h ****  * @param  SC_INPUT_t * const signal: Pointer to the signal object
 181:.\source\rte/sc_input.h ****  * @return  sig_status_t: The current signal status
 182:.\source\rte/sc_input.h ****  *
 183:.\source\rte/sc_input.h ****  **/
 184:.\source\rte/sc_input.h **** inline RTE_signalStatus_t RTE_SC_INPUT_getStatus( const SC_INPUT_t * const signal )
 185:.\source\rte/sc_input.h **** {
 186:.\source\rte/sc_input.h ****    return signal->status;
 187:.\source\rte/sc_input.h **** }
 188:.\source\rte/sc_input.h **** 
 189:.\source\rte/sc_input.h **** 
 190:.\source\rte/sc_input.h **** /**
 191:.\source\rte/sc_input.h ****  *  Sets a new signal status of the passed signal instance by passing the new status.
 192:.\source\rte/sc_input.h ****  *
ARM GAS  C:\Users\giris\AppData\Local\Temp\cceloVpD.s 			page 35


 193:.\source\rte/sc_input.h ****  * @param  SC_INPUT_t * const signal: Pointer to the signal object
 194:.\source\rte/sc_input.h ****  * @param  const sig_status_t status: New signal status
 195:.\source\rte/sc_input.h ****  * @return RC_t: standard return code, currently only RC_SUCCESS
 196:.\source\rte/sc_input.h ****  *
 197:.\source\rte/sc_input.h ****  */
 198:.\source\rte/sc_input.h **** inline RC_t RTE_SC_INPUT_setStatus( SC_INPUT_t * const signal, const RTE_signalStatus_t status )
 199:.\source\rte/sc_input.h **** {
 200:.\source\rte/sc_input.h ****    signal->status = status;
 201:.\source\rte/sc_input.h ****    size_t taskNum=0;
 202:.\source\rte/sc_input.h ****    
 203:.\source\rte/sc_input.h ****    //Fire error events in case of invalid state
 204:.\source\rte/sc_input.h ****    if (signal->status == RTE_SIGNALSTATUS_INVALID)
 205:.\source\rte/sc_input.h ****    {
 206:.\source\rte/sc_input.h **** 	    //Pointer to the Taskarray, containing the tasks receiving the onUpdate events
 207:.\source\rte/sc_input.h **** 		TaskTypeArray* pTaskArray = signal->pSigCfg->onErrorTasks;
 208:.\source\rte/sc_input.h **** 
 209:.\source\rte/sc_input.h **** 		if (0 != signal->pSigCfg->evOnError && NULL != pTaskArray){
 210:.\source\rte/sc_input.h **** 			for( taskNum=0 ; taskNum < signal->pSigCfg->onErrorTaskCount ;taskNum++){
 211:.\source\rte/sc_input.h **** 				TaskType task = (*pTaskArray)[taskNum];
 212:.\source\rte/sc_input.h **** 				SetEvent( task, signal->pSigCfg->evOnError);
 213:.\source\rte/sc_input.h **** 			}
 214:.\source\rte/sc_input.h **** 		}
 215:.\source\rte/sc_input.h ****    }
 216:.\source\rte/sc_input.h ****    
 217:.\source\rte/sc_input.h ****    return RC_SUCCESS;
 218:.\source\rte/sc_input.h **** }
 219:.\source\rte/sc_input.h **** 
 220:.\source\rte/sc_input.h **** 
 221:.\source\rte/sc_input.h **** /**
 222:.\source\rte/sc_input.h ****  * Returns the count of refreshing trials (refresh, set or set_raw) that failed.
 223:.\source\rte/sc_input.h ****  * Prerquisite: The signal is refreshed cyclically
 224:.\source\rte/sc_input.h ****  *
 225:.\source\rte/sc_input.h ****  * @param  SC_INPUT_t * const signal: Pointer to the signal object
 226:.\source\rte/sc_input.h ****  * @return uint32_t: Number of cycles since the signal has been updated for the last time
 227:.\source\rte/sc_input.h ****  */
 228:.\source\rte/sc_input.h **** inline uint32_t RTE_SC_INPUT_getAge( const SC_INPUT_t * const signal )
 229:.\source\rte/sc_input.h **** {
 230:.\source\rte/sc_input.h ****    return signal->age;
 231:.\source\rte/sc_input.h **** }
 232:.\source\rte/sc_input.h **** 
 233:.\source\rte/sc_input.h **** /**
 234:.\source\rte/sc_input.h ****  * Should be called by application or driver if no new value can be provided.
 235:.\source\rte/sc_input.h ****  * @param  SC_INPUT_t * const signal: Pointer to the signal object
 236:.\source\rte/sc_input.h ****  * @param uint32_t increment: incrementvalue, typically in [ms]
 237:.\source\rte/sc_input.h ****  * @return void
 238:.\source\rte/sc_input.h ****  */
 239:.\source\rte/sc_input.h **** inline void RTE_SC_INPUT_incAge(  SC_INPUT_t * const signal , uint32_t increment)
 240:.\source\rte/sc_input.h **** {
 241:.\source\rte/sc_input.h **** 	   //Hack....
 242:.\source\rte/sc_input.h **** 	   if ( 0xFFFF0000 > (signal->age + increment) )
 243:.\source\rte/sc_input.h **** 	   {
 244:.\source\rte/sc_input.h **** 	      signal->age += increment;
 245:.\source\rte/sc_input.h **** 	   }
 246:.\source\rte/sc_input.h **** }
 247:.\source\rte/sc_input.h **** 
 248:.\source\rte/sc_input.h **** 
 249:.\source\rte/sc_input.h **** /**************************************************************************************************
ARM GAS  C:\Users\giris\AppData\Local\Temp\cceloVpD.s 			page 36


 250:.\source\rte/sc_input.h **** /* Application Data read/write Interface																			*/
 251:.\source\rte/sc_input.h **** /**************************************************************************************************
 252:.\source\rte/sc_input.h **** 
 253:.\source\rte/sc_input.h **** /**
 254:.\source\rte/sc_input.h ****  * Returns the current application value as pointer to the signal payload.
 255:.\source\rte/sc_input.h ****  * Careful: This is not threadsafe!!!
 256:.\source\rte/sc_input.h ****  *
 257:.\source\rte/sc_input.h ****  * @param  SC_INPUT_t * const signal: Pointer to the signal object
 258:.\source\rte/sc_input.h ****  * @return sc_input_data_t*: pointer to the current value of the application data buffer
 259:.\source\rte/sc_input.h ****  *
 260:.\source\rte/sc_input.h ****  **/
 261:.\source\rte/sc_input.h **** inline SC_INPUT_data_t* RTE_SC_INPUT_getPtr( SC_INPUT_t * const signal )
 262:.\source\rte/sc_input.h **** {               
 263:.\source\rte/sc_input.h ****    //Todo: Critical region cannot be protected using return values																						
 264:.\source\rte/sc_input.h ****    return &(signal->value);                                                                        
 265:.\source\rte/sc_input.h **** }
 266:.\source\rte/sc_input.h **** 
 267:.\source\rte/sc_input.h **** /**
 268:.\source\rte/sc_input.h ****  * Returns the current application value of the passed signal instance.
 269:.\source\rte/sc_input.h ****  *
 270:.\source\rte/sc_input.h ****  * @param  SC_INPUT_t * const signal: Pointer to the signal object
 271:.\source\rte/sc_input.h ****  * @return sc_input_data_t: current value of the application data buffer
 272:.\source\rte/sc_input.h ****  *
 273:.\source\rte/sc_input.h ****  **/
 274:.\source\rte/sc_input.h **** inline SC_INPUT_data_t RTE_SC_INPUT_get( const SC_INPUT_t * const signal )
 275:.\source\rte/sc_input.h **** {               
 276:.\source\rte/sc_input.h ****    //Todo: Critical region cannot be protected using return values																						
 277:.\source\rte/sc_input.h ****    return signal->value;                                                                           
 836              		.loc 3 277 0
 837 0004 4422     		movs	r2, #68
 838 0006 0849     		ldr	r1, .L61
 839 0008 01A8     		add	r0, sp, #4
 840 000a FFF7FEFF 		bl	memcpy
 841              	.LVL74:
 842              	.LBE107:
 843              	.LBE106:
 388:source\asw/clock.c ****     {
 844              		.loc 1 388 0
 845 000e 9DF81430 		ldrb	r3, [sp, #20]	@ zero_extendqisi2
 846 0012 13B9     		cbnz	r3, .L58
 391:source\asw/clock.c ****     }
 847              		.loc 1 391 0
 848 0014 FFF7FEFF 		bl	CLOCK__IncrementHourandDisplay
 849              	.LVL75:
 850 0018 03E0     		b	.L57
 851              	.L58:
 393:source\asw/clock.c ****     {
 852              		.loc 1 393 0
 853 001a 012B     		cmp	r3, #1
 854 001c 01D1     		bne	.L57
 396:source\asw/clock.c ****     }
 855              		.loc 1 396 0
 856 001e FFF7FEFF 		bl	CLOCK__IncrementMinuteandDisplay
 857              	.LVL76:
 858              	.L57:
 399:source\asw/clock.c **** 
 859              		.loc 1 399 0
ARM GAS  C:\Users\giris\AppData\Local\Temp\cceloVpD.s 			page 37


 860 0022 13B0     		add	sp, sp, #76
 861              		.cfi_def_cfa_offset 4
 862              		@ sp needed
 863 0024 5DF804FB 		ldr	pc, [sp], #4
 864              	.L62:
 865              		.align	2
 866              	.L61:
 867 0028 00000000 		.word	SO_INPUTEVENT_signal
 868              		.cfi_endproc
 869              	.LFE157:
 870              		.size	CLOCK__incrementWidget, .-CLOCK__incrementWidget
 871              		.section	.text.CLOCK__Dispatch_Wrapper,"ax",%progbits
 872              		.align	2
 873              		.thumb
 874              		.thumb_func
 875              		.type	CLOCK__Dispatch_Wrapper, %function
 876              	CLOCK__Dispatch_Wrapper:
 877              	.LFB146:
 234:source\asw/clock.c ****     SC_INPUT_data_t clock = RTE_SC_INPUT_get(&SO_INPUTEVENT_signal);
 878              		.loc 1 234 0
 879              		.cfi_startproc
 880              		@ args = 0, pretend = 0, frame = 408
 881              		@ frame_needed = 0, uses_anonymous_args = 0
 882              	.LVL77:
 883 0000 2DE9F043 		push	{r4, r5, r6, r7, r8, r9, lr}
 884              		.cfi_def_cfa_offset 28
 885              		.cfi_offset 4, -28
 886              		.cfi_offset 5, -24
 887              		.cfi_offset 6, -20
 888              		.cfi_offset 7, -16
 889              		.cfi_offset 8, -12
 890              		.cfi_offset 9, -8
 891              		.cfi_offset 14, -4
 892 0004 E9B0     		sub	sp, sp, #420
 893              		.cfi_def_cfa_offset 448
 894 0006 0746     		mov	r7, r0
 895 0008 0E46     		mov	r6, r1
 896              	.LVL78:
 897              	.LBB108:
 898              	.LBB109:
 899              		.loc 3 277 0
 900 000a 5D4C     		ldr	r4, .L79
 901 000c 4425     		movs	r5, #68
 902 000e 2A46     		mov	r2, r5
 903 0010 2146     		mov	r1, r4
 904              	.LVL79:
 905 0012 57A8     		add	r0, sp, #348
 906              	.LVL80:
 907 0014 FFF7FEFF 		bl	memcpy
 908              	.LVL81:
 909              	.LBE109:
 910              	.LBE108:
 237:source\asw/clock.c ****     
 911              		.loc 1 237 0
 912 0018 4FF00009 		mov	r9, #0
 913 001c 8DF85E91 		strb	r9, [sp, #350]
 239:source\asw/clock.c ****     
ARM GAS  C:\Users\giris\AppData\Local\Temp\cceloVpD.s 			page 38


 914              		.loc 1 239 0
 915 0020 8DF86C61 		strb	r6, [sp, #364]
 916              	.LVL82:
 917 0024 2A46     		mov	r2, r5
 918 0026 57A9     		add	r1, sp, #348
 919 0028 02A8     		add	r0, sp, #8
 920 002a FFF7FEFF 		bl	memcpy
 921              	.LVL83:
 922              	.LBB110:
 923              	.LBB111:
 278:.\source\rte/sc_input.h **** }                                                                                                  
 279:.\source\rte/sc_input.h ****                                                                                                    
 280:.\source\rte/sc_input.h **** /**
 281:.\source\rte/sc_input.h ****  * Returns the current application value of the passed signal instance threadsafe.
 282:.\source\rte/sc_input.h ****  *
 283:.\source\rte/sc_input.h ****  * @param  SC_INPUT_t * const signal: Pointer to the signal object
 284:.\source\rte/sc_input.h ****  * @param  SC_INPUT_data_t* data: Pointer to the return data Pointer to the signal object
 285:.\source\rte/sc_input.h ****  * @return RC_SUCCESS
 286:.\source\rte/sc_input.h ****  *
 287:.\source\rte/sc_input.h ****  **/
 288:.\source\rte/sc_input.h **** inline RC_t RTE_SC_INPUT_getThreadSafe( const SC_INPUT_t * const signal, SC_INPUT_data_t * const da
 289:.\source\rte/sc_input.h **** {    
 290:.\source\rte/sc_input.h ****    if (TRUE == signal->pSigCfg->resourceActive) GetResource(signal->pSigCfg->resource);
 291:.\source\rte/sc_input.h ****    *data = signal->value;
 292:.\source\rte/sc_input.h ****    if (TRUE == signal->pSigCfg->resourceActive) ReleaseResource(signal->pSigCfg->resource);        
 293:.\source\rte/sc_input.h **** 
 294:.\source\rte/sc_input.h ****    return RC_SUCCESS;                                                                   
 295:.\source\rte/sc_input.h ****    
 296:.\source\rte/sc_input.h **** }                                                                                                  
 297:.\source\rte/sc_input.h ****                                                                                                    
 298:.\source\rte/sc_input.h **** /**
 299:.\source\rte/sc_input.h ****  * Sets a new application value to the passed signal instance by passing the new value.
 300:.\source\rte/sc_input.h ****  * The corresponding driver raw value will be calculated immediately by using the default conversio
 301:.\source\rte/sc_input.h ****  * signal specific scaling function.
 302:.\source\rte/sc_input.h ****  * The signal age will be set to 0 and the new status will be 'RTE_SIGNALSTATUS_VALID'.
 303:.\source\rte/sc_input.h ****  *
 304:.\source\rte/sc_input.h ****  * @param  SC_INPUT_t * const signal: Pointer to the signal object
 305:.\source\rte/sc_input.h ****  * @param  sc_input_data_t const value: value for the application data buffer
 306:.\source\rte/sc_input.h ****  * @return RC_t: standard return code, currently only RC_SUCCESS
 307:.\source\rte/sc_input.h ****  *
 308:.\source\rte/sc_input.h ****  **/
 309:.\source\rte/sc_input.h **** inline RC_t RTE_SC_INPUT_set(SC_INPUT_t * const signal, const SC_INPUT_data_t value  )
 310:.\source\rte/sc_input.h **** {
 311:.\source\rte/sc_input.h **** 
 312:.\source\rte/sc_input.h ****    RC_t ret = RC_SUCCESS;
 313:.\source\rte/sc_input.h ****    size_t taskNum=0;
 314:.\source\rte/sc_input.h **** 
 315:.\source\rte/sc_input.h **** 
 316:.\source\rte/sc_input.h ****    if (TRUE == signal->pSigCfg->resourceActive) GetResource(signal->pSigCfg->resource);
 924              		.loc 3 316 0
 925 002e D4F84C80 		ldr	r8, [r4, #76]
 317:.\source\rte/sc_input.h ****    signal->value  = value;
 926              		.loc 3 317 0
 927 0032 2A46     		mov	r2, r5
 928 0034 02A9     		add	r1, sp, #8
 929 0036 2046     		mov	r0, r4
 930 0038 FFF7FEFF 		bl	memcpy
ARM GAS  C:\Users\giris\AppData\Local\Temp\cceloVpD.s 			page 39


 931              	.LVL84:
 318:.\source\rte/sc_input.h ****    signal->age    = 0;
 932              		.loc 3 318 0
 933 003c C4F84890 		str	r9, [r4, #72]
 319:.\source\rte/sc_input.h ****    signal->status = RTE_SIGNALSTATUS_VALID;
 934              		.loc 3 319 0
 935 0040 0223     		movs	r3, #2
 936 0042 84F84430 		strb	r3, [r4, #68]
 320:.\source\rte/sc_input.h ****    if (TRUE == signal->pSigCfg->resourceActive) ReleaseResource(signal->pSigCfg->resource);
 321:.\source\rte/sc_input.h **** 
 322:.\source\rte/sc_input.h ****    //Pointer to the Taskarray, containing the tasks receiving the onUpdate events
 323:.\source\rte/sc_input.h ****    TaskTypeArray* pTaskArray = signal->pSigCfg->onUpdateTasks;
 937              		.loc 3 323 0
 938 0046 D8F81450 		ldr	r5, [r8, #20]
 939              	.LVL85:
 324:.\source\rte/sc_input.h **** 
 325:.\source\rte/sc_input.h ****    if (0 != signal->pSigCfg->evOnUpdate && NULL != pTaskArray){
 940              		.loc 3 325 0
 941 004a D8F80830 		ldr	r3, [r8, #8]
 942 004e 73B1     		cbz	r3, .L64
 943 0050 3DB9     		cbnz	r5, .L75
 944 0052 0CE0     		b	.L64
 945              	.LVL86:
 946              	.L66:
 947              	.LBB112:
 326:.\source\rte/sc_input.h ****       for( taskNum=0 ; taskNum < signal->pSigCfg->onUpdateTaskCount ;taskNum++){
 327:.\source\rte/sc_input.h **** 		  
 328:.\source\rte/sc_input.h ****           TaskType task = (*pTaskArray)[taskNum];
 329:.\source\rte/sc_input.h **** 	      SetEvent( task, signal->pSigCfg->evOnUpdate);
 948              		.loc 3 329 0
 949 0054 9968     		ldr	r1, [r3, #8]
 950 0056 55F82400 		ldr	r0, [r5, r4, lsl #2]
 951 005a FFF7FEFF 		bl	EE_oo_SetEvent
 952              	.LVL87:
 953              	.LBE112:
 326:.\source\rte/sc_input.h ****       for( taskNum=0 ; taskNum < signal->pSigCfg->onUpdateTaskCount ;taskNum++){
 954              		.loc 3 326 0
 955 005e 0134     		adds	r4, r4, #1
 956              	.LVL88:
 957 0060 00E0     		b	.L65
 958              	.LVL89:
 959              	.L75:
 325:.\source\rte/sc_input.h ****       for( taskNum=0 ; taskNum < signal->pSigCfg->onUpdateTaskCount ;taskNum++){
 960              		.loc 3 325 0
 961 0062 0024     		movs	r4, #0
 962              	.LVL90:
 963              	.L65:
 326:.\source\rte/sc_input.h ****       for( taskNum=0 ; taskNum < signal->pSigCfg->onUpdateTaskCount ;taskNum++){
 964              		.loc 3 326 0
 965 0064 464B     		ldr	r3, .L79
 966 0066 DB6C     		ldr	r3, [r3, #76]
 967 0068 1A69     		ldr	r2, [r3, #16]
 968 006a 9442     		cmp	r4, r2
 969 006c F2D3     		bcc	.L66
 970              	.LVL91:
 971              	.L64:
 972              	.LBE111:
ARM GAS  C:\Users\giris\AppData\Local\Temp\cceloVpD.s 			page 40


 973              	.LBE110:
 250:source\asw/clock.c ****     {
 974              		.loc 1 250 0
 975 006e 002E     		cmp	r6, #0
 976 0070 41D1     		bne	.L67
 977              	.LBB113:
 252:source\asw/clock.c ****         
 978              		.loc 1 252 0
 979 0072 9DF87021 		ldrb	r2, [sp, #368]	@ zero_extendqisi2
 980 0076 68AB     		add	r3, sp, #416
 981 0078 03F8882D 		strb	r2, [r3, #-136]!
 259:source\asw/clock.c ****         
 982              		.loc 1 259 0
 983 007c 4148     		ldr	r0, .L79+4
 984 007e 0193     		str	r3, [sp, #4]
 985 0080 0097     		str	r7, [sp]
 986 0082 0323     		movs	r3, #3
 987 0084 0246     		mov	r2, r0
 988 0086 1946     		mov	r1, r3
 989 0088 2430     		adds	r0, r0, #36
 990 008a FFF7FEFF 		bl	STATE_processEvent
 991              	.LVL92:
 992              	.LBB114:
 993              	.LBB115:
 277:.\source\rte/sc_input.h **** }                                                                                                  
 994              		.loc 3 277 0
 995 008e 3C4C     		ldr	r4, .L79
 996 0090 4425     		movs	r5, #68
 997 0092 2A46     		mov	r2, r5
 998 0094 2146     		mov	r1, r4
 999 0096 24A8     		add	r0, sp, #144
 1000 0098 FFF7FEFF 		bl	memcpy
 1001              	.LVL93:
 1002              	.LBE115:
 1003              	.LBE114:
 261:source\asw/clock.c ****         
 1004              		.loc 1 261 0
 1005 009c 2A46     		mov	r2, r5
 1006 009e 24A9     		add	r1, sp, #144
 1007 00a0 57A8     		add	r0, sp, #348
 1008 00a2 FFF7FEFF 		bl	memcpy
 1009              	.LVL94:
 263:source\asw/clock.c ****         
 1010              		.loc 1 263 0
 1011 00a6 9DF81831 		ldrb	r3, [sp, #280]	@ zero_extendqisi2
 1012 00aa 8DF87031 		strb	r3, [sp, #368]
 1013              	.LVL95:
 1014 00ae 2A46     		mov	r2, r5
 1015 00b0 57A9     		add	r1, sp, #348
 1016 00b2 13A8     		add	r0, sp, #76
 1017 00b4 FFF7FEFF 		bl	memcpy
 1018              	.LVL96:
 1019              	.LBB116:
 1020              	.LBB117:
 316:.\source\rte/sc_input.h ****    signal->value  = value;
 1021              		.loc 3 316 0
 1022 00b8 E66C     		ldr	r6, [r4, #76]
ARM GAS  C:\Users\giris\AppData\Local\Temp\cceloVpD.s 			page 41


 317:.\source\rte/sc_input.h ****    signal->age    = 0;
 1023              		.loc 3 317 0
 1024 00ba 2A46     		mov	r2, r5
 1025 00bc 13A9     		add	r1, sp, #76
 1026 00be 2046     		mov	r0, r4
 1027 00c0 FFF7FEFF 		bl	memcpy
 1028              	.LVL97:
 318:.\source\rte/sc_input.h ****    signal->status = RTE_SIGNALSTATUS_VALID;
 1029              		.loc 3 318 0
 1030 00c4 0023     		movs	r3, #0
 1031 00c6 A364     		str	r3, [r4, #72]
 319:.\source\rte/sc_input.h ****    if (TRUE == signal->pSigCfg->resourceActive) ReleaseResource(signal->pSigCfg->resource);
 1032              		.loc 3 319 0
 1033 00c8 0223     		movs	r3, #2
 1034 00ca 84F84430 		strb	r3, [r4, #68]
 323:.\source\rte/sc_input.h **** 
 1035              		.loc 3 323 0
 1036 00ce 7569     		ldr	r5, [r6, #20]
 1037              	.LVL98:
 325:.\source\rte/sc_input.h ****       for( taskNum=0 ; taskNum < signal->pSigCfg->onUpdateTaskCount ;taskNum++){
 1038              		.loc 3 325 0
 1039 00d0 B368     		ldr	r3, [r6, #8]
 1040 00d2 002B     		cmp	r3, #0
 1041 00d4 50D0     		beq	.L63
 1042 00d6 3DB9     		cbnz	r5, .L76
 1043 00d8 4EE0     		b	.L63
 1044              	.LVL99:
 1045              	.L70:
 1046              	.LBB118:
 1047              		.loc 3 329 0
 1048 00da 9968     		ldr	r1, [r3, #8]
 1049 00dc 55F82400 		ldr	r0, [r5, r4, lsl #2]
 1050 00e0 FFF7FEFF 		bl	EE_oo_SetEvent
 1051              	.LVL100:
 1052              	.LBE118:
 326:.\source\rte/sc_input.h **** 		  
 1053              		.loc 3 326 0
 1054 00e4 0134     		adds	r4, r4, #1
 1055              	.LVL101:
 1056 00e6 00E0     		b	.L69
 1057              	.LVL102:
 1058              	.L76:
 325:.\source\rte/sc_input.h ****       for( taskNum=0 ; taskNum < signal->pSigCfg->onUpdateTaskCount ;taskNum++){
 1059              		.loc 3 325 0
 1060 00e8 0024     		movs	r4, #0
 1061              	.LVL103:
 1062              	.L69:
 326:.\source\rte/sc_input.h **** 		  
 1063              		.loc 3 326 0
 1064 00ea 254B     		ldr	r3, .L79
 1065 00ec DB6C     		ldr	r3, [r3, #76]
 1066 00ee 1A69     		ldr	r2, [r3, #16]
 1067 00f0 9442     		cmp	r4, r2
 1068 00f2 F2D3     		bcc	.L70
 1069 00f4 40E0     		b	.L63
 1070              	.LVL104:
 1071              	.L67:
ARM GAS  C:\Users\giris\AppData\Local\Temp\cceloVpD.s 			page 42


 1072              	.LBE117:
 1073              	.LBE116:
 1074              	.LBE113:
 267:source\asw/clock.c ****     {
 1075              		.loc 1 267 0
 1076 00f6 012E     		cmp	r6, #1
 1077 00f8 3ED1     		bne	.L63
 1078              	.LBB119:
 269:source\asw/clock.c ****         
 1079              		.loc 1 269 0 discriminator 2
 1080 00fa 9DF88831 		ldrb	r3, [sp, #392]	@ zero_extendqisi2
 1081 00fe 24AE     		add	r6, sp, #144
 1082 0100 8DF89030 		strb	r3, [sp, #144]
 276:source\asw/clock.c ****         
 1083              		.loc 1 276 0 discriminator 2
 1084 0104 1F48     		ldr	r0, .L79+4
 1085 0106 0196     		str	r6, [sp, #4]
 1086 0108 0097     		str	r7, [sp]
 1087 010a 0323     		movs	r3, #3
 1088 010c 0246     		mov	r2, r0
 1089 010e 1946     		mov	r1, r3
 1090 0110 2430     		adds	r0, r0, #36
 1091 0112 FFF7FEFF 		bl	STATE_processEvent
 1092              	.LVL105:
 1093              	.LBB120:
 1094              	.LBB121:
 277:.\source\rte/sc_input.h **** }                                                                                                  
 1095              		.loc 3 277 0 discriminator 2
 1096 0116 1A4C     		ldr	r4, .L79
 1097 0118 4425     		movs	r5, #68
 1098 011a 2A46     		mov	r2, r5
 1099 011c 2146     		mov	r1, r4
 1100 011e 46A8     		add	r0, sp, #280
 1101 0120 FFF7FEFF 		bl	memcpy
 1102              	.LVL106:
 1103              	.LBE121:
 1104              	.LBE120:
 278:source\asw/clock.c ****         
 1105              		.loc 1 278 0 discriminator 2
 1106 0124 2A46     		mov	r2, r5
 1107 0126 46A9     		add	r1, sp, #280
 1108 0128 57A8     		add	r0, sp, #348
 1109 012a FFF7FEFF 		bl	memcpy
 1110              	.LVL107:
 280:source\asw/clock.c ****         
 1111              		.loc 1 280 0 discriminator 2
 1112 012e 3378     		ldrb	r3, [r6]	@ zero_extendqisi2
 1113 0130 8DF88831 		strb	r3, [sp, #392]
 1114              	.LVL108:
 1115 0134 2A46     		mov	r2, r5
 1116 0136 57A9     		add	r1, sp, #348
 1117 0138 35A8     		add	r0, sp, #212
 1118 013a FFF7FEFF 		bl	memcpy
 1119              	.LVL109:
 1120              	.LBB122:
 1121              	.LBB123:
 316:.\source\rte/sc_input.h ****    signal->value  = value;
ARM GAS  C:\Users\giris\AppData\Local\Temp\cceloVpD.s 			page 43


 1122              		.loc 3 316 0 discriminator 2
 1123 013e E66C     		ldr	r6, [r4, #76]
 317:.\source\rte/sc_input.h ****    signal->age    = 0;
 1124              		.loc 3 317 0 discriminator 2
 1125 0140 2A46     		mov	r2, r5
 1126 0142 35A9     		add	r1, sp, #212
 1127 0144 2046     		mov	r0, r4
 1128 0146 FFF7FEFF 		bl	memcpy
 1129              	.LVL110:
 318:.\source\rte/sc_input.h ****    signal->status = RTE_SIGNALSTATUS_VALID;
 1130              		.loc 3 318 0 discriminator 2
 1131 014a 0023     		movs	r3, #0
 1132 014c A364     		str	r3, [r4, #72]
 319:.\source\rte/sc_input.h ****    if (TRUE == signal->pSigCfg->resourceActive) ReleaseResource(signal->pSigCfg->resource);
 1133              		.loc 3 319 0 discriminator 2
 1134 014e 0223     		movs	r3, #2
 1135 0150 84F84430 		strb	r3, [r4, #68]
 323:.\source\rte/sc_input.h **** 
 1136              		.loc 3 323 0 discriminator 2
 1137 0154 7569     		ldr	r5, [r6, #20]
 1138              	.LVL111:
 325:.\source\rte/sc_input.h ****       for( taskNum=0 ; taskNum < signal->pSigCfg->onUpdateTaskCount ;taskNum++){
 1139              		.loc 3 325 0 discriminator 2
 1140 0156 B368     		ldr	r3, [r6, #8]
 1141 0158 73B1     		cbz	r3, .L63
 325:.\source\rte/sc_input.h ****       for( taskNum=0 ; taskNum < signal->pSigCfg->onUpdateTaskCount ;taskNum++){
 1142              		.loc 3 325 0 is_stmt 0
 1143 015a 3DB9     		cbnz	r5, .L77
 1144 015c 0CE0     		b	.L63
 1145              	.LVL112:
 1146              	.L74:
 1147              	.LBB124:
 1148              		.loc 3 329 0 is_stmt 1
 1149 015e 9968     		ldr	r1, [r3, #8]
 1150 0160 55F82400 		ldr	r0, [r5, r4, lsl #2]
 1151 0164 FFF7FEFF 		bl	EE_oo_SetEvent
 1152              	.LVL113:
 1153              	.LBE124:
 326:.\source\rte/sc_input.h **** 		  
 1154              		.loc 3 326 0
 1155 0168 0134     		adds	r4, r4, #1
 1156              	.LVL114:
 1157 016a 00E0     		b	.L73
 1158              	.LVL115:
 1159              	.L77:
 325:.\source\rte/sc_input.h ****       for( taskNum=0 ; taskNum < signal->pSigCfg->onUpdateTaskCount ;taskNum++){
 1160              		.loc 3 325 0
 1161 016c 0024     		movs	r4, #0
 1162              	.LVL116:
 1163              	.L73:
 326:.\source\rte/sc_input.h **** 		  
 1164              		.loc 3 326 0
 1165 016e 044B     		ldr	r3, .L79
 1166 0170 DB6C     		ldr	r3, [r3, #76]
 1167 0172 1A69     		ldr	r2, [r3, #16]
 1168 0174 9442     		cmp	r4, r2
 1169 0176 F2D3     		bcc	.L74
ARM GAS  C:\Users\giris\AppData\Local\Temp\cceloVpD.s 			page 44


 1170              	.LVL117:
 1171              	.L63:
 1172              	.LBE123:
 1173              	.LBE122:
 1174              	.LBE119:
 284:source\asw/clock.c **** 
 1175              		.loc 1 284 0
 1176 0178 69B0     		add	sp, sp, #420
 1177              		.cfi_def_cfa_offset 28
 1178              		@ sp needed
 1179 017a BDE8F083 		pop	{r4, r5, r6, r7, r8, r9, pc}
 1180              	.L80:
 1181 017e 00BF     		.align	2
 1182              	.L79:
 1183 0180 00000000 		.word	SO_INPUTEVENT_signal
 1184 0184 00000000 		.word	.LANCHOR0
 1185              		.cfi_endproc
 1186              	.LFE146:
 1187              		.size	CLOCK__Dispatch_Wrapper, .-CLOCK__Dispatch_Wrapper
 1188              		.section	.text.CLOCK__Dispatch_KL_Hours,"ax",%progbits
 1189              		.align	2
 1190              		.thumb
 1191              		.thumb_func
 1192              		.type	CLOCK__Dispatch_KL_Hours, %function
 1193              	CLOCK__Dispatch_KL_Hours:
 1194              	.LFB147:
 287:source\asw/clock.c **** //    UART_LOG_PutString("\nIn KL hours Dispatch.....\n");
 1195              		.loc 1 287 0
 1196              		.cfi_startproc
 1197              		@ args = 0, pretend = 0, frame = 136
 1198              		@ frame_needed = 0, uses_anonymous_args = 0
 1199 0000 70B5     		push	{r4, r5, r6, lr}
 1200              		.cfi_def_cfa_offset 16
 1201              		.cfi_offset 4, -16
 1202              		.cfi_offset 5, -12
 1203              		.cfi_offset 6, -8
 1204              		.cfi_offset 14, -4
 1205 0002 A2B0     		sub	sp, sp, #136
 1206              		.cfi_def_cfa_offset 152
 1207              	.LVL118:
 1208              	.LBB125:
 1209              	.LBB126:
 277:.\source\rte/sc_input.h **** }                                                                                                  
 1210              		.loc 3 277 0
 1211 0004 194C     		ldr	r4, .L87
 1212 0006 4425     		movs	r5, #68
 1213 0008 2A46     		mov	r2, r5
 1214 000a 2146     		mov	r1, r4
 1215 000c 0DEB0500 		add	r0, sp, r5
 1216 0010 FFF7FEFF 		bl	memcpy
 1217              	.LVL119:
 1218              	.LBE126:
 1219              	.LBE125:
 292:source\asw/clock.c ****     
 1220              		.loc 1 292 0
 1221 0014 0323     		movs	r3, #3
 1222 0016 8DF85830 		strb	r3, [sp, #88]
ARM GAS  C:\Users\giris\AppData\Local\Temp\cceloVpD.s 			page 45


 1223              	.LVL120:
 1224 001a 2A46     		mov	r2, r5
 1225 001c 0DEB0501 		add	r1, sp, r5
 1226 0020 6846     		mov	r0, sp
 1227 0022 FFF7FEFF 		bl	memcpy
 1228              	.LVL121:
 1229              	.LBB127:
 1230              	.LBB128:
 316:.\source\rte/sc_input.h ****    signal->value  = value;
 1231              		.loc 3 316 0
 1232 0026 E66C     		ldr	r6, [r4, #76]
 317:.\source\rte/sc_input.h ****    signal->age    = 0;
 1233              		.loc 3 317 0
 1234 0028 2A46     		mov	r2, r5
 1235 002a 6946     		mov	r1, sp
 1236 002c 2046     		mov	r0, r4
 1237 002e FFF7FEFF 		bl	memcpy
 1238              	.LVL122:
 318:.\source\rte/sc_input.h ****    signal->status = RTE_SIGNALSTATUS_VALID;
 1239              		.loc 3 318 0
 1240 0032 0023     		movs	r3, #0
 1241 0034 A364     		str	r3, [r4, #72]
 319:.\source\rte/sc_input.h ****    if (TRUE == signal->pSigCfg->resourceActive) ReleaseResource(signal->pSigCfg->resource);
 1242              		.loc 3 319 0
 1243 0036 0223     		movs	r3, #2
 1244 0038 84F84430 		strb	r3, [r4, #68]
 323:.\source\rte/sc_input.h **** 
 1245              		.loc 3 323 0
 1246 003c 7569     		ldr	r5, [r6, #20]
 1247              	.LVL123:
 325:.\source\rte/sc_input.h ****       for( taskNum=0 ; taskNum < signal->pSigCfg->onUpdateTaskCount ;taskNum++){
 1248              		.loc 3 325 0
 1249 003e B368     		ldr	r3, [r6, #8]
 1250 0040 73B1     		cbz	r3, .L82
 1251 0042 3DB9     		cbnz	r5, .L85
 1252 0044 0CE0     		b	.L82
 1253              	.LVL124:
 1254              	.L84:
 1255              	.LBB129:
 1256              		.loc 3 329 0
 1257 0046 9968     		ldr	r1, [r3, #8]
 1258 0048 55F82400 		ldr	r0, [r5, r4, lsl #2]
 1259 004c FFF7FEFF 		bl	EE_oo_SetEvent
 1260              	.LVL125:
 1261              	.LBE129:
 326:.\source\rte/sc_input.h **** 		  
 1262              		.loc 3 326 0
 1263 0050 0134     		adds	r4, r4, #1
 1264              	.LVL126:
 1265 0052 00E0     		b	.L83
 1266              	.LVL127:
 1267              	.L85:
 325:.\source\rte/sc_input.h ****       for( taskNum=0 ; taskNum < signal->pSigCfg->onUpdateTaskCount ;taskNum++){
 1268              		.loc 3 325 0
 1269 0054 0024     		movs	r4, #0
 1270              	.LVL128:
 1271              	.L83:
ARM GAS  C:\Users\giris\AppData\Local\Temp\cceloVpD.s 			page 46


 326:.\source\rte/sc_input.h **** 		  
 1272              		.loc 3 326 0
 1273 0056 054B     		ldr	r3, .L87
 1274 0058 DB6C     		ldr	r3, [r3, #76]
 1275 005a 1A69     		ldr	r2, [r3, #16]
 1276 005c 9442     		cmp	r4, r2
 1277 005e F2D3     		bcc	.L84
 1278              	.LVL129:
 1279              	.L82:
 1280              	.LBE128:
 1281              	.LBE127:
 296:source\asw/clock.c **** }
 1282              		.loc 1 296 0
 1283 0060 0021     		movs	r1, #0
 1284 0062 0120     		movs	r0, #1
 1285 0064 FFF7FEFF 		bl	CLOCK__Dispatch_Wrapper
 1286              	.LVL130:
 297:source\asw/clock.c **** 
 1287              		.loc 1 297 0
 1288 0068 22B0     		add	sp, sp, #136
 1289              		.cfi_def_cfa_offset 16
 1290              		@ sp needed
 1291 006a 70BD     		pop	{r4, r5, r6, pc}
 1292              	.L88:
 1293              		.align	2
 1294              	.L87:
 1295 006c 00000000 		.word	SO_INPUTEVENT_signal
 1296              		.cfi_endproc
 1297              	.LFE147:
 1298              		.size	CLOCK__Dispatch_KL_Hours, .-CLOCK__Dispatch_KL_Hours
 1299              		.section	.text.CLOCK__Dispatch_250MS_Hours,"ax",%progbits
 1300              		.align	2
 1301              		.thumb
 1302              		.thumb_func
 1303              		.type	CLOCK__Dispatch_250MS_Hours, %function
 1304              	CLOCK__Dispatch_250MS_Hours:
 1305              	.LFB152:
 342:source\asw/clock.c **** //    UART_LOG_PutString("\nIn 250MS_Hours Dispatch.....\n");
 1306              		.loc 1 342 0
 1307              		.cfi_startproc
 1308              		@ args = 0, pretend = 0, frame = 0
 1309              		@ frame_needed = 0, uses_anonymous_args = 0
 1310 0000 08B5     		push	{r3, lr}
 1311              		.cfi_def_cfa_offset 8
 1312              		.cfi_offset 3, -8
 1313              		.cfi_offset 14, -4
 345:source\asw/clock.c **** }
 1314              		.loc 1 345 0
 1315 0002 0021     		movs	r1, #0
 1316 0004 0420     		movs	r0, #4
 1317 0006 FFF7FEFF 		bl	CLOCK__Dispatch_Wrapper
 1318              	.LVL131:
 1319 000a 08BD     		pop	{r3, pc}
 1320              		.cfi_endproc
 1321              	.LFE152:
 1322              		.size	CLOCK__Dispatch_250MS_Hours, .-CLOCK__Dispatch_250MS_Hours
 1323              		.section	.text.CLOCK__Dispatch_KRLP_Hours,"ax",%progbits
ARM GAS  C:\Users\giris\AppData\Local\Temp\cceloVpD.s 			page 47


 1324              		.align	2
 1325              		.thumb
 1326              		.thumb_func
 1327              		.type	CLOCK__Dispatch_KRLP_Hours, %function
 1328              	CLOCK__Dispatch_KRLP_Hours:
 1329              	.LFB151:
 329:source\asw/clock.c **** //    UART_LOG_PutString("\nIn KRLP_Hours Dispatch.....\n");
 1330              		.loc 1 329 0
 1331              		.cfi_startproc
 1332              		@ args = 0, pretend = 0, frame = 136
 1333              		@ frame_needed = 0, uses_anonymous_args = 0
 1334 0000 70B5     		push	{r4, r5, r6, lr}
 1335              		.cfi_def_cfa_offset 16
 1336              		.cfi_offset 4, -16
 1337              		.cfi_offset 5, -12
 1338              		.cfi_offset 6, -8
 1339              		.cfi_offset 14, -4
 1340 0002 A2B0     		sub	sp, sp, #136
 1341              		.cfi_def_cfa_offset 152
 1342              	.LVL132:
 1343              	.LBB130:
 1344              	.LBB131:
 277:.\source\rte/sc_input.h **** }                                                                                                  
 1345              		.loc 3 277 0
 1346 0004 194C     		ldr	r4, .L97
 1347 0006 4425     		movs	r5, #68
 1348 0008 2A46     		mov	r2, r5
 1349 000a 2146     		mov	r1, r4
 1350 000c 0DEB0500 		add	r0, sp, r5
 1351 0010 FFF7FEFF 		bl	memcpy
 1352              	.LVL133:
 1353              	.LBE131:
 1354              	.LBE130:
 334:source\asw/clock.c ****     
 1355              		.loc 1 334 0
 1356 0014 0423     		movs	r3, #4
 1357 0016 8DF85830 		strb	r3, [sp, #88]
 1358              	.LVL134:
 1359 001a 2A46     		mov	r2, r5
 1360 001c 0DEB0501 		add	r1, sp, r5
 1361 0020 6846     		mov	r0, sp
 1362 0022 FFF7FEFF 		bl	memcpy
 1363              	.LVL135:
 1364              	.LBB132:
 1365              	.LBB133:
 316:.\source\rte/sc_input.h ****    signal->value  = value;
 1366              		.loc 3 316 0
 1367 0026 E66C     		ldr	r6, [r4, #76]
 317:.\source\rte/sc_input.h ****    signal->age    = 0;
 1368              		.loc 3 317 0
 1369 0028 2A46     		mov	r2, r5
 1370 002a 6946     		mov	r1, sp
 1371 002c 2046     		mov	r0, r4
 1372 002e FFF7FEFF 		bl	memcpy
 1373              	.LVL136:
 318:.\source\rte/sc_input.h ****    signal->status = RTE_SIGNALSTATUS_VALID;
 1374              		.loc 3 318 0
ARM GAS  C:\Users\giris\AppData\Local\Temp\cceloVpD.s 			page 48


 1375 0032 0023     		movs	r3, #0
 1376 0034 A364     		str	r3, [r4, #72]
 319:.\source\rte/sc_input.h ****    if (TRUE == signal->pSigCfg->resourceActive) ReleaseResource(signal->pSigCfg->resource);
 1377              		.loc 3 319 0
 1378 0036 0223     		movs	r3, #2
 1379 0038 84F84430 		strb	r3, [r4, #68]
 323:.\source\rte/sc_input.h **** 
 1380              		.loc 3 323 0
 1381 003c 7569     		ldr	r5, [r6, #20]
 1382              	.LVL137:
 325:.\source\rte/sc_input.h ****       for( taskNum=0 ; taskNum < signal->pSigCfg->onUpdateTaskCount ;taskNum++){
 1383              		.loc 3 325 0
 1384 003e B368     		ldr	r3, [r6, #8]
 1385 0040 73B1     		cbz	r3, .L92
 1386 0042 3DB9     		cbnz	r5, .L95
 1387 0044 0CE0     		b	.L92
 1388              	.LVL138:
 1389              	.L94:
 1390              	.LBB134:
 1391              		.loc 3 329 0
 1392 0046 9968     		ldr	r1, [r3, #8]
 1393 0048 55F82400 		ldr	r0, [r5, r4, lsl #2]
 1394 004c FFF7FEFF 		bl	EE_oo_SetEvent
 1395              	.LVL139:
 1396              	.LBE134:
 326:.\source\rte/sc_input.h **** 		  
 1397              		.loc 3 326 0
 1398 0050 0134     		adds	r4, r4, #1
 1399              	.LVL140:
 1400 0052 00E0     		b	.L93
 1401              	.LVL141:
 1402              	.L95:
 325:.\source\rte/sc_input.h ****       for( taskNum=0 ; taskNum < signal->pSigCfg->onUpdateTaskCount ;taskNum++){
 1403              		.loc 3 325 0
 1404 0054 0024     		movs	r4, #0
 1405              	.LVL142:
 1406              	.L93:
 326:.\source\rte/sc_input.h **** 		  
 1407              		.loc 3 326 0
 1408 0056 054B     		ldr	r3, .L97
 1409 0058 DB6C     		ldr	r3, [r3, #76]
 1410 005a 1A69     		ldr	r2, [r3, #16]
 1411 005c 9442     		cmp	r4, r2
 1412 005e F2D3     		bcc	.L94
 1413              	.LVL143:
 1414              	.L92:
 1415              	.LBE133:
 1416              	.LBE132:
 338:source\asw/clock.c **** }
 1417              		.loc 1 338 0
 1418 0060 0021     		movs	r1, #0
 1419 0062 0320     		movs	r0, #3
 1420 0064 FFF7FEFF 		bl	CLOCK__Dispatch_Wrapper
 1421              	.LVL144:
 339:source\asw/clock.c **** 
 1422              		.loc 1 339 0
 1423 0068 22B0     		add	sp, sp, #136
ARM GAS  C:\Users\giris\AppData\Local\Temp\cceloVpD.s 			page 49


 1424              		.cfi_def_cfa_offset 16
 1425              		@ sp needed
 1426 006a 70BD     		pop	{r4, r5, r6, pc}
 1427              	.L98:
 1428              		.align	2
 1429              	.L97:
 1430 006c 00000000 		.word	SO_INPUTEVENT_signal
 1431              		.cfi_endproc
 1432              	.LFE151:
 1433              		.size	CLOCK__Dispatch_KRLP_Hours, .-CLOCK__Dispatch_KRLP_Hours
 1434              		.section	.text.CLOCK__Dispatch_KR_Hours,"ax",%progbits
 1435              		.align	2
 1436              		.thumb
 1437              		.thumb_func
 1438              		.type	CLOCK__Dispatch_KR_Hours, %function
 1439              	CLOCK__Dispatch_KR_Hours:
 1440              	.LFB150:
 322:source\asw/clock.c **** //    UART_LOG_PutString("\nIn KR_Hours Dispatch.....\n");
 1441              		.loc 1 322 0
 1442              		.cfi_startproc
 1443              		@ args = 0, pretend = 0, frame = 0
 1444              		@ frame_needed = 0, uses_anonymous_args = 0
 1445 0000 08B5     		push	{r3, lr}
 1446              		.cfi_def_cfa_offset 8
 1447              		.cfi_offset 3, -8
 1448              		.cfi_offset 14, -4
 325:source\asw/clock.c **** }
 1449              		.loc 1 325 0
 1450 0002 0021     		movs	r1, #0
 1451 0004 0220     		movs	r0, #2
 1452 0006 FFF7FEFF 		bl	CLOCK__Dispatch_Wrapper
 1453              	.LVL145:
 1454 000a 08BD     		pop	{r3, pc}
 1455              		.cfi_endproc
 1456              	.LFE150:
 1457              		.size	CLOCK__Dispatch_KR_Hours, .-CLOCK__Dispatch_KR_Hours
 1458              		.section	.text.CLOCK__Dispatch_KL_HoursMin,"ax",%progbits
 1459              		.align	2
 1460              		.thumb
 1461              		.thumb_func
 1462              		.type	CLOCK__Dispatch_KL_HoursMin, %function
 1463              	CLOCK__Dispatch_KL_HoursMin:
 1464              	.LFB149:
 307:source\asw/clock.c **** //    UART_LOG_PutString("\nIn KL_HoursMin Dispatch.....\n");
 1465              		.loc 1 307 0
 1466              		.cfi_startproc
 1467              		@ args = 0, pretend = 0, frame = 136
 1468              		@ frame_needed = 0, uses_anonymous_args = 0
 1469 0000 70B5     		push	{r4, r5, r6, lr}
 1470              		.cfi_def_cfa_offset 16
 1471              		.cfi_offset 4, -16
 1472              		.cfi_offset 5, -12
 1473              		.cfi_offset 6, -8
 1474              		.cfi_offset 14, -4
 1475 0002 A2B0     		sub	sp, sp, #136
 1476              		.cfi_def_cfa_offset 152
 1477              	.LVL146:
ARM GAS  C:\Users\giris\AppData\Local\Temp\cceloVpD.s 			page 50


 1478              	.LBB135:
 1479              	.LBB136:
 277:.\source\rte/sc_input.h **** }                                                                                                  
 1480              		.loc 3 277 0
 1481 0004 1D4C     		ldr	r4, .L107
 1482 0006 4425     		movs	r5, #68
 1483 0008 2A46     		mov	r2, r5
 1484 000a 2146     		mov	r1, r4
 1485 000c 0DEB0500 		add	r0, sp, r5
 1486 0010 FFF7FEFF 		bl	memcpy
 1487              	.LVL147:
 1488              	.LBE136:
 1489              	.LBE135:
 312:source\asw/clock.c ****     clock.m_clock_data.m_minutes.m_widgetState = CLOCK_W_ISDISPLAYING;
 1490              		.loc 1 312 0
 1491 0014 0423     		movs	r3, #4
 1492 0016 8DF85830 		strb	r3, [sp, #88]
 313:source\asw/clock.c ****     
 1493              		.loc 1 313 0
 1494 001a 0323     		movs	r3, #3
 1495 001c 8DF87030 		strb	r3, [sp, #112]
 1496              	.LVL148:
 1497 0020 2A46     		mov	r2, r5
 1498 0022 0DEB0501 		add	r1, sp, r5
 1499 0026 6846     		mov	r0, sp
 1500 0028 FFF7FEFF 		bl	memcpy
 1501              	.LVL149:
 1502              	.LBB137:
 1503              	.LBB138:
 316:.\source\rte/sc_input.h ****    signal->value  = value;
 1504              		.loc 3 316 0
 1505 002c E66C     		ldr	r6, [r4, #76]
 317:.\source\rte/sc_input.h ****    signal->age    = 0;
 1506              		.loc 3 317 0
 1507 002e 2A46     		mov	r2, r5
 1508 0030 6946     		mov	r1, sp
 1509 0032 2046     		mov	r0, r4
 1510 0034 FFF7FEFF 		bl	memcpy
 1511              	.LVL150:
 318:.\source\rte/sc_input.h ****    signal->status = RTE_SIGNALSTATUS_VALID;
 1512              		.loc 3 318 0
 1513 0038 0023     		movs	r3, #0
 1514 003a A364     		str	r3, [r4, #72]
 319:.\source\rte/sc_input.h ****    if (TRUE == signal->pSigCfg->resourceActive) ReleaseResource(signal->pSigCfg->resource);
 1515              		.loc 3 319 0
 1516 003c 0223     		movs	r3, #2
 1517 003e 84F84430 		strb	r3, [r4, #68]
 323:.\source\rte/sc_input.h **** 
 1518              		.loc 3 323 0
 1519 0042 7569     		ldr	r5, [r6, #20]
 1520              	.LVL151:
 325:.\source\rte/sc_input.h ****       for( taskNum=0 ; taskNum < signal->pSigCfg->onUpdateTaskCount ;taskNum++){
 1521              		.loc 3 325 0
 1522 0044 B368     		ldr	r3, [r6, #8]
 1523 0046 73B1     		cbz	r3, .L102
 1524 0048 3DB9     		cbnz	r5, .L105
 1525 004a 0CE0     		b	.L102
ARM GAS  C:\Users\giris\AppData\Local\Temp\cceloVpD.s 			page 51


 1526              	.LVL152:
 1527              	.L104:
 1528              	.LBB139:
 1529              		.loc 3 329 0
 1530 004c 9968     		ldr	r1, [r3, #8]
 1531 004e 55F82400 		ldr	r0, [r5, r4, lsl #2]
 1532 0052 FFF7FEFF 		bl	EE_oo_SetEvent
 1533              	.LVL153:
 1534              	.LBE139:
 326:.\source\rte/sc_input.h **** 		  
 1535              		.loc 3 326 0
 1536 0056 0134     		adds	r4, r4, #1
 1537              	.LVL154:
 1538 0058 00E0     		b	.L103
 1539              	.LVL155:
 1540              	.L105:
 325:.\source\rte/sc_input.h ****       for( taskNum=0 ; taskNum < signal->pSigCfg->onUpdateTaskCount ;taskNum++){
 1541              		.loc 3 325 0
 1542 005a 0024     		movs	r4, #0
 1543              	.LVL156:
 1544              	.L103:
 326:.\source\rte/sc_input.h **** 		  
 1545              		.loc 3 326 0
 1546 005c 074B     		ldr	r3, .L107
 1547 005e DB6C     		ldr	r3, [r3, #76]
 1548 0060 1A69     		ldr	r2, [r3, #16]
 1549 0062 9442     		cmp	r4, r2
 1550 0064 F2D3     		bcc	.L104
 1551              	.LVL157:
 1552              	.L102:
 1553              	.LBE138:
 1554              	.LBE137:
 317:source\asw/clock.c ****     CLOCK__Dispatch_Wrapper(EV_KEYLEFT, CLOCK_MINWIDGET);
 1555              		.loc 1 317 0
 1556 0066 0021     		movs	r1, #0
 1557 0068 0120     		movs	r0, #1
 1558 006a FFF7FEFF 		bl	CLOCK__Dispatch_Wrapper
 1559              	.LVL158:
 318:source\asw/clock.c **** }
 1560              		.loc 1 318 0
 1561 006e 0121     		movs	r1, #1
 1562 0070 0846     		mov	r0, r1
 1563 0072 FFF7FEFF 		bl	CLOCK__Dispatch_Wrapper
 1564              	.LVL159:
 319:source\asw/clock.c **** 
 1565              		.loc 1 319 0
 1566 0076 22B0     		add	sp, sp, #136
 1567              		.cfi_def_cfa_offset 16
 1568              		@ sp needed
 1569 0078 70BD     		pop	{r4, r5, r6, pc}
 1570              	.L108:
 1571 007a 00BF     		.align	2
 1572              	.L107:
 1573 007c 00000000 		.word	SO_INPUTEVENT_signal
 1574              		.cfi_endproc
 1575              	.LFE149:
 1576              		.size	CLOCK__Dispatch_KL_HoursMin, .-CLOCK__Dispatch_KL_HoursMin
ARM GAS  C:\Users\giris\AppData\Local\Temp\cceloVpD.s 			page 52


 1577              		.section	.text.CLOCK__Dispatch_250MS_Min,"ax",%progbits
 1578              		.align	2
 1579              		.thumb
 1580              		.thumb_func
 1581              		.type	CLOCK__Dispatch_250MS_Min, %function
 1582              	CLOCK__Dispatch_250MS_Min:
 1583              	.LFB156:
 376:source\asw/clock.c **** //    UART_LOG_PutString("\nIn 250MS_Min Dispatch.....\n");
 1584              		.loc 1 376 0
 1585              		.cfi_startproc
 1586              		@ args = 0, pretend = 0, frame = 0
 1587              		@ frame_needed = 0, uses_anonymous_args = 0
 1588 0000 08B5     		push	{r3, lr}
 1589              		.cfi_def_cfa_offset 8
 1590              		.cfi_offset 3, -8
 1591              		.cfi_offset 14, -4
 379:source\asw/clock.c **** }
 1592              		.loc 1 379 0
 1593 0002 0121     		movs	r1, #1
 1594 0004 0420     		movs	r0, #4
 1595 0006 FFF7FEFF 		bl	CLOCK__Dispatch_Wrapper
 1596              	.LVL160:
 1597 000a 08BD     		pop	{r3, pc}
 1598              		.cfi_endproc
 1599              	.LFE156:
 1600              		.size	CLOCK__Dispatch_250MS_Min, .-CLOCK__Dispatch_250MS_Min
 1601              		.section	.text.CLOCK__Dispatch_KRLP_Min,"ax",%progbits
 1602              		.align	2
 1603              		.thumb
 1604              		.thumb_func
 1605              		.type	CLOCK__Dispatch_KRLP_Min, %function
 1606              	CLOCK__Dispatch_KRLP_Min:
 1607              	.LFB155:
 363:source\asw/clock.c **** //    UART_LOG_PutString("\nIn KRLP_Min Dispatch.....\n");
 1608              		.loc 1 363 0
 1609              		.cfi_startproc
 1610              		@ args = 0, pretend = 0, frame = 136
 1611              		@ frame_needed = 0, uses_anonymous_args = 0
 1612 0000 70B5     		push	{r4, r5, r6, lr}
 1613              		.cfi_def_cfa_offset 16
 1614              		.cfi_offset 4, -16
 1615              		.cfi_offset 5, -12
 1616              		.cfi_offset 6, -8
 1617              		.cfi_offset 14, -4
 1618 0002 A2B0     		sub	sp, sp, #136
 1619              		.cfi_def_cfa_offset 152
 1620              	.LVL161:
 1621              	.LBB140:
 1622              	.LBB141:
 277:.\source\rte/sc_input.h **** }                                                                                                  
 1623              		.loc 3 277 0
 1624 0004 194C     		ldr	r4, .L117
 1625 0006 4425     		movs	r5, #68
 1626 0008 2A46     		mov	r2, r5
 1627 000a 2146     		mov	r1, r4
 1628 000c 0DEB0500 		add	r0, sp, r5
 1629 0010 FFF7FEFF 		bl	memcpy
ARM GAS  C:\Users\giris\AppData\Local\Temp\cceloVpD.s 			page 53


 1630              	.LVL162:
 1631              	.LBE141:
 1632              	.LBE140:
 368:source\asw/clock.c ****     
 1633              		.loc 1 368 0
 1634 0014 0423     		movs	r3, #4
 1635 0016 8DF87030 		strb	r3, [sp, #112]
 1636              	.LVL163:
 1637 001a 2A46     		mov	r2, r5
 1638 001c 0DEB0501 		add	r1, sp, r5
 1639 0020 6846     		mov	r0, sp
 1640 0022 FFF7FEFF 		bl	memcpy
 1641              	.LVL164:
 1642              	.LBB142:
 1643              	.LBB143:
 316:.\source\rte/sc_input.h ****    signal->value  = value;
 1644              		.loc 3 316 0
 1645 0026 E66C     		ldr	r6, [r4, #76]
 317:.\source\rte/sc_input.h ****    signal->age    = 0;
 1646              		.loc 3 317 0
 1647 0028 2A46     		mov	r2, r5
 1648 002a 6946     		mov	r1, sp
 1649 002c 2046     		mov	r0, r4
 1650 002e FFF7FEFF 		bl	memcpy
 1651              	.LVL165:
 318:.\source\rte/sc_input.h ****    signal->status = RTE_SIGNALSTATUS_VALID;
 1652              		.loc 3 318 0
 1653 0032 0023     		movs	r3, #0
 1654 0034 A364     		str	r3, [r4, #72]
 319:.\source\rte/sc_input.h ****    if (TRUE == signal->pSigCfg->resourceActive) ReleaseResource(signal->pSigCfg->resource);
 1655              		.loc 3 319 0
 1656 0036 0223     		movs	r3, #2
 1657 0038 84F84430 		strb	r3, [r4, #68]
 323:.\source\rte/sc_input.h **** 
 1658              		.loc 3 323 0
 1659 003c 7569     		ldr	r5, [r6, #20]
 1660              	.LVL166:
 325:.\source\rte/sc_input.h ****       for( taskNum=0 ; taskNum < signal->pSigCfg->onUpdateTaskCount ;taskNum++){
 1661              		.loc 3 325 0
 1662 003e B368     		ldr	r3, [r6, #8]
 1663 0040 73B1     		cbz	r3, .L112
 1664 0042 3DB9     		cbnz	r5, .L115
 1665 0044 0CE0     		b	.L112
 1666              	.LVL167:
 1667              	.L114:
 1668              	.LBB144:
 1669              		.loc 3 329 0
 1670 0046 9968     		ldr	r1, [r3, #8]
 1671 0048 55F82400 		ldr	r0, [r5, r4, lsl #2]
 1672 004c FFF7FEFF 		bl	EE_oo_SetEvent
 1673              	.LVL168:
 1674              	.LBE144:
 326:.\source\rte/sc_input.h **** 		  
 1675              		.loc 3 326 0
 1676 0050 0134     		adds	r4, r4, #1
 1677              	.LVL169:
 1678 0052 00E0     		b	.L113
ARM GAS  C:\Users\giris\AppData\Local\Temp\cceloVpD.s 			page 54


 1679              	.LVL170:
 1680              	.L115:
 325:.\source\rte/sc_input.h ****       for( taskNum=0 ; taskNum < signal->pSigCfg->onUpdateTaskCount ;taskNum++){
 1681              		.loc 3 325 0
 1682 0054 0024     		movs	r4, #0
 1683              	.LVL171:
 1684              	.L113:
 326:.\source\rte/sc_input.h **** 		  
 1685              		.loc 3 326 0
 1686 0056 054B     		ldr	r3, .L117
 1687 0058 DB6C     		ldr	r3, [r3, #76]
 1688 005a 1A69     		ldr	r2, [r3, #16]
 1689 005c 9442     		cmp	r4, r2
 1690 005e F2D3     		bcc	.L114
 1691              	.LVL172:
 1692              	.L112:
 1693              	.LBE143:
 1694              	.LBE142:
 372:source\asw/clock.c **** }
 1695              		.loc 1 372 0
 1696 0060 0121     		movs	r1, #1
 1697 0062 0320     		movs	r0, #3
 1698 0064 FFF7FEFF 		bl	CLOCK__Dispatch_Wrapper
 1699              	.LVL173:
 373:source\asw/clock.c **** 
 1700              		.loc 1 373 0
 1701 0068 22B0     		add	sp, sp, #136
 1702              		.cfi_def_cfa_offset 16
 1703              		@ sp needed
 1704 006a 70BD     		pop	{r4, r5, r6, pc}
 1705              	.L118:
 1706              		.align	2
 1707              	.L117:
 1708 006c 00000000 		.word	SO_INPUTEVENT_signal
 1709              		.cfi_endproc
 1710              	.LFE155:
 1711              		.size	CLOCK__Dispatch_KRLP_Min, .-CLOCK__Dispatch_KRLP_Min
 1712              		.section	.text.CLOCK__Dispatch_KR_Min,"ax",%progbits
 1713              		.align	2
 1714              		.thumb
 1715              		.thumb_func
 1716              		.type	CLOCK__Dispatch_KR_Min, %function
 1717              	CLOCK__Dispatch_KR_Min:
 1718              	.LFB154:
 356:source\asw/clock.c **** //    UART_LOG_PutString("\nIn KR_Min Dispatch.....\n");
 1719              		.loc 1 356 0
 1720              		.cfi_startproc
 1721              		@ args = 0, pretend = 0, frame = 0
 1722              		@ frame_needed = 0, uses_anonymous_args = 0
 1723 0000 08B5     		push	{r3, lr}
 1724              		.cfi_def_cfa_offset 8
 1725              		.cfi_offset 3, -8
 1726              		.cfi_offset 14, -4
 359:source\asw/clock.c **** }
 1727              		.loc 1 359 0
 1728 0002 0121     		movs	r1, #1
 1729 0004 0220     		movs	r0, #2
ARM GAS  C:\Users\giris\AppData\Local\Temp\cceloVpD.s 			page 55


 1730 0006 FFF7FEFF 		bl	CLOCK__Dispatch_Wrapper
 1731              	.LVL174:
 1732 000a 08BD     		pop	{r3, pc}
 1733              		.cfi_endproc
 1734              	.LFE154:
 1735              		.size	CLOCK__Dispatch_KR_Min, .-CLOCK__Dispatch_KR_Min
 1736              		.section	.text.CLOCK__Dispatch_KL_Min,"ax",%progbits
 1737              		.align	2
 1738              		.thumb
 1739              		.thumb_func
 1740              		.type	CLOCK__Dispatch_KL_Min, %function
 1741              	CLOCK__Dispatch_KL_Min:
 1742              	.LFB153:
 349:source\asw/clock.c **** //    UART_LOG_PutString("\nIn KL_Min Dispatch.....\n");
 1743              		.loc 1 349 0
 1744              		.cfi_startproc
 1745              		@ args = 0, pretend = 0, frame = 0
 1746              		@ frame_needed = 0, uses_anonymous_args = 0
 1747 0000 08B5     		push	{r3, lr}
 1748              		.cfi_def_cfa_offset 8
 1749              		.cfi_offset 3, -8
 1750              		.cfi_offset 14, -4
 352:source\asw/clock.c **** }
 1751              		.loc 1 352 0
 1752 0002 0121     		movs	r1, #1
 1753 0004 0846     		mov	r0, r1
 1754 0006 FFF7FEFF 		bl	CLOCK__Dispatch_Wrapper
 1755              	.LVL175:
 1756 000a 08BD     		pop	{r3, pc}
 1757              		.cfi_endproc
 1758              	.LFE153:
 1759              		.size	CLOCK__Dispatch_KL_Min, .-CLOCK__Dispatch_KL_Min
 1760              		.section	.text.statemachine_init,"ax",%progbits
 1761              		.align	2
 1762              		.global	statemachine_init
 1763              		.thumb
 1764              		.thumb_func
 1765              		.type	statemachine_init, %function
 1766              	statemachine_init:
 1767              	.LFB144:
 191:source\asw/clock.c **** //    char buffer[100];
 1768              		.loc 1 191 0
 1769              		.cfi_startproc
 1770              		@ args = 0, pretend = 0, frame = 48
 1771              		@ frame_needed = 0, uses_anonymous_args = 0
 1772 0000 F0B5     		push	{r4, r5, r6, r7, lr}
 1773              		.cfi_def_cfa_offset 20
 1774              		.cfi_offset 4, -20
 1775              		.cfi_offset 5, -16
 1776              		.cfi_offset 6, -12
 1777              		.cfi_offset 7, -8
 1778              		.cfi_offset 14, -4
 1779 0002 8DB0     		sub	sp, sp, #52
 1780              		.cfi_def_cfa_offset 72
 1781              	.LVL176:
 1782              	.LBB145:
 1783              	.LBB146:
ARM GAS  C:\Users\giris\AppData\Local\Temp\cceloVpD.s 			page 56


 277:.\source\rte/sc_control.h **** }                                                                                                  
 1784              		.loc 2 277 0
 1785 0004 274F     		ldr	r7, .L129
 1786 0006 06AD     		add	r5, sp, #24
 1787 0008 3C46     		mov	r4, r7
 1788 000a 0FCC     		ldmia	r4!, {r0, r1, r2, r3}
 1789 000c 0FC5     		stmia	r5!, {r0, r1, r2, r3}
 1790 000e 94E80300 		ldmia	r4, {r0, r1}
 1791 0012 85E80300 		stmia	r5, {r0, r1}
 1792              	.LVL177:
 1793              	.LBE146:
 1794              	.LBE145:
 198:source\asw/clock.c ****     fontstyle.minute.font_type.size   =   3;
 1795              		.loc 1 198 0
 1796 0016 0323     		movs	r3, #3
 1797 0018 8DF81A30 		strb	r3, [sp, #26]
 199:source\asw/clock.c ****     
 1798              		.loc 1 199 0
 1799 001c 8DF82630 		strb	r3, [sp, #38]
 201:source\asw/clock.c ****     fontstyle.hour.font_type.y_pos    =   60;
 1800              		.loc 1 201 0
 1801 0020 1422     		movs	r2, #20
 1802 0022 8DF82020 		strb	r2, [sp, #32]
 202:source\asw/clock.c ****     
 1803              		.loc 1 202 0
 1804 0026 3C23     		movs	r3, #60
 1805 0028 8DF82130 		strb	r3, [sp, #33]
 204:source\asw/clock.c ****     fontstyle.minute.font_type.y_pos  =   60;
 1806              		.loc 1 204 0
 1807 002c 8DF82C20 		strb	r2, [sp, #44]
 205:source\asw/clock.c ****     
 1808              		.loc 1 205 0
 1809 0030 8DF82D30 		strb	r3, [sp, #45]
 207:source\asw/clock.c ****     fontstyle.minute.font_type.bg_colour      =   BLACK;
 1810              		.loc 1 207 0
 1811 0034 4FF0000E 		mov	lr, #0
 1812 0038 ADF81CE0 		strh	lr, [sp, #28]	@ movhi
 208:source\asw/clock.c ****     
 1813              		.loc 1 208 0
 1814 003c ADF828E0 		strh	lr, [sp, #40]	@ movhi
 210:source\asw/clock.c ****     fontstyle.minute.font_type.widget_colour  =   WHITE;
 1815              		.loc 1 210 0
 1816 0040 4FF6FF73 		movw	r3, #65535
 1817 0044 ADF81E30 		strh	r3, [sp, #30]	@ movhi
 211:source\asw/clock.c ****     
 1818              		.loc 1 211 0
 1819 0048 ADF82A30 		strh	r3, [sp, #42]	@ movhi
 1820              	.LVL178:
 1821 004c 6D46     		mov	r5, sp
 1822 004e 06AE     		add	r6, sp, #24
 1823 0050 0FCE     		ldmia	r6!, {r0, r1, r2, r3}
 1824 0052 0FC5     		stmia	r5!, {r0, r1, r2, r3}
 1825 0054 96E80300 		ldmia	r6, {r0, r1}
 1826 0058 85E80300 		stmia	r5, {r0, r1}
 1827              	.LVL179:
 1828              	.LBB147:
 1829              	.LBB148:
ARM GAS  C:\Users\giris\AppData\Local\Temp\cceloVpD.s 			page 57


 316:.\source\rte/sc_control.h ****    signal->value  = value;
 1830              		.loc 2 316 0
 1831 005c D7F820C0 		ldr	ip, [r7, #32]
 317:.\source\rte/sc_control.h ****    signal->age    = 0;
 1832              		.loc 2 317 0
 1833 0060 3E46     		mov	r6, r7
 1834 0062 6D46     		mov	r5, sp
 1835 0064 0FCD     		ldmia	r5!, {r0, r1, r2, r3}
 1836 0066 0FC6     		stmia	r6!, {r0, r1, r2, r3}
 1837 0068 95E80300 		ldmia	r5, {r0, r1}
 1838 006c 84E80300 		stmia	r4, {r0, r1}
 318:.\source\rte/sc_control.h ****    signal->status = RTE_SIGNALSTATUS_VALID;
 1839              		.loc 2 318 0
 1840 0070 C7F81CE0 		str	lr, [r7, #28]
 319:.\source\rte/sc_control.h ****    if (TRUE == signal->pSigCfg->resourceActive) ReleaseResource(signal->pSigCfg->resource);
 1841              		.loc 2 319 0
 1842 0074 0223     		movs	r3, #2
 1843 0076 3B76     		strb	r3, [r7, #24]
 323:.\source\rte/sc_control.h **** 
 1844              		.loc 2 323 0
 1845 0078 DCF81450 		ldr	r5, [ip, #20]
 1846              	.LVL180:
 325:.\source\rte/sc_control.h ****       for( taskNum=0 ; taskNum < signal->pSigCfg->onUpdateTaskCount ;taskNum++){
 1847              		.loc 2 325 0
 1848 007c DCF80830 		ldr	r3, [ip, #8]
 1849 0080 73B1     		cbz	r3, .L123
 1850 0082 3DB9     		cbnz	r5, .L127
 1851 0084 0CE0     		b	.L123
 1852              	.LVL181:
 1853              	.L126:
 1854              	.LBB149:
 1855              		.loc 2 329 0
 1856 0086 9968     		ldr	r1, [r3, #8]
 1857 0088 55F82400 		ldr	r0, [r5, r4, lsl #2]
 1858 008c FFF7FEFF 		bl	EE_oo_SetEvent
 1859              	.LVL182:
 1860              	.LBE149:
 326:.\source\rte/sc_control.h **** 		  
 1861              		.loc 2 326 0
 1862 0090 0134     		adds	r4, r4, #1
 1863              	.LVL183:
 1864 0092 00E0     		b	.L125
 1865              	.LVL184:
 1866              	.L127:
 325:.\source\rte/sc_control.h ****       for( taskNum=0 ; taskNum < signal->pSigCfg->onUpdateTaskCount ;taskNum++){
 1867              		.loc 2 325 0
 1868 0094 0024     		movs	r4, #0
 1869              	.LVL185:
 1870              	.L125:
 326:.\source\rte/sc_control.h **** 		  
 1871              		.loc 2 326 0
 1872 0096 034B     		ldr	r3, .L129
 1873 0098 1B6A     		ldr	r3, [r3, #32]
 1874 009a 1A69     		ldr	r2, [r3, #16]
 1875 009c 9442     		cmp	r4, r2
 1876 009e F2D3     		bcc	.L126
 1877              	.LVL186:
ARM GAS  C:\Users\giris\AppData\Local\Temp\cceloVpD.s 			page 58


 1878              	.L123:
 1879              	.LBE148:
 1880              	.LBE147:
 219:source\asw/clock.c **** 
 1881              		.loc 1 219 0
 1882 00a0 0DB0     		add	sp, sp, #52
 1883              		.cfi_def_cfa_offset 20
 1884              		@ sp needed
 1885 00a2 F0BD     		pop	{r4, r5, r6, r7, pc}
 1886              	.LVL187:
 1887              	.L130:
 1888              		.align	2
 1889              	.L129:
 1890 00a4 00000000 		.word	SO_CONTROL_signal
 1891              		.cfi_endproc
 1892              	.LFE144:
 1893              		.size	statemachine_init, .-statemachine_init
 1894              		.section	.text.ProcessEvent,"ax",%progbits
 1895              		.align	2
 1896              		.global	ProcessEvent
 1897              		.thumb
 1898              		.thumb_func
 1899              		.type	ProcessEvent, %function
 1900              	ProcessEvent:
 1901              	.LFB145:
 222:source\asw/clock.c ****     STATE_event_t local_event = event;
 1902              		.loc 1 222 0
 1903              		.cfi_startproc
 1904              		@ args = 0, pretend = 0, frame = 0
 1905              		@ frame_needed = 0, uses_anonymous_args = 0
 1906              	.LVL188:
 1907 0000 10B5     		push	{r4, lr}
 1908              		.cfi_def_cfa_offset 8
 1909              		.cfi_offset 4, -8
 1910              		.cfi_offset 14, -4
 1911 0002 82B0     		sub	sp, sp, #8
 1912              		.cfi_def_cfa_offset 16
 1913              	.LVL189:
 230:source\asw/clock.c **** }
 1914              		.loc 1 230 0
 1915 0004 064C     		ldr	r4, .L133
 1916 0006 074B     		ldr	r3, .L133+4
 1917 0008 0193     		str	r3, [sp, #4]
 1918 000a 0090     		str	r0, [sp]
 1919 000c 0123     		movs	r3, #1
 1920 000e 04F14802 		add	r2, r4, #72
 1921 0012 0321     		movs	r1, #3
 1922 0014 04F15400 		add	r0, r4, #84
 1923              	.LVL190:
 1924 0018 FFF7FEFF 		bl	STATE_processEvent
 1925              	.LVL191:
 231:source\asw/clock.c **** 
 1926              		.loc 1 231 0
 1927 001c 02B0     		add	sp, sp, #8
 1928              		.cfi_def_cfa_offset 8
 1929              		@ sp needed
 1930 001e 10BD     		pop	{r4, pc}
ARM GAS  C:\Users\giris\AppData\Local\Temp\cceloVpD.s 			page 59


 1931              	.L134:
 1932              		.align	2
 1933              	.L133:
 1934 0020 00000000 		.word	.LANCHOR0
 1935 0024 00000000 		.word	.LANCHOR1
 1936              		.cfi_endproc
 1937              	.LFE145:
 1938              		.size	ProcessEvent, .-ProcessEvent
 1939              		.global	STATE_CLOCK_W_ISAUTOINCREMENT_Transitions
 1940              		.global	STATE_CLOCK_W_ISEDITING_Transitions
 1941              		.global	STATE_CLOCK_W_ISDISPLAYING_Transitions
 1942              		.global	STATE_CLOCK_C_ISEDITINGMINUTES_Transitions
 1943              		.global	STATE_CLOCK_C_ISEDITINGHOURS_Transitions
 1944              		.global	STATE_CLOCK_C_ISDISPLAYING_Transitions
 1945              		.global	init_state
 1946              		.section	.rodata
 1947              		.align	2
 1948              		.set	.LANCHOR0,. + 0
 1949              		.type	CLOCK_Widget_Actions, %object
 1950              		.size	CLOCK_Widget_Actions, 36
 1951              	CLOCK_Widget_Actions:
 1952 0000 03       		.byte	3
 1953 0001 000000   		.space	3
 1954 0004 00000000 		.word	CLOCK__updateDisplay
 1955 0008 00000000 		.word	0
 1956 000c 04       		.byte	4
 1957 000d 000000   		.space	3
 1958 0010 00000000 		.word	CLOCK__updateDisplay
 1959 0014 00000000 		.word	0
 1960 0018 05       		.byte	5
 1961 0019 000000   		.space	3
 1962 001c 00000000 		.word	CLOCK__updateDisplay
 1963 0020 00000000 		.word	0
 1964              		.type	CLOCK_Widget_Transitions, %object
 1965              		.size	CLOCK_Widget_Transitions, 36
 1966              	CLOCK_Widget_Transitions:
 1967 0024 03       		.byte	3
 1968 0025 000000   		.space	3
 1969 0028 00000000 		.word	STATE_CLOCK_W_ISDISPLAYING_Transitions
 1970 002c 0100     		.short	1
 1971 002e 0000     		.space	2
 1972 0030 04       		.byte	4
 1973 0031 000000   		.space	3
 1974 0034 00000000 		.word	STATE_CLOCK_W_ISEDITING_Transitions
 1975 0038 0300     		.short	3
 1976 003a 0000     		.space	2
 1977 003c 05       		.byte	5
 1978 003d 000000   		.space	3
 1979 0040 00000000 		.word	STATE_CLOCK_W_ISAUTOINCREMENT_Transitions
 1980 0044 0200     		.short	2
 1981 0046 0000     		.space	2
 1982              		.type	CLOCK_Container_Actions, %object
 1983              		.size	CLOCK_Container_Actions, 12
 1984              	CLOCK_Container_Actions:
 1985 0048 00       		.byte	0
 1986 0049 000000   		.space	3
 1987 004c 00000000 		.word	CLOCK__updateDisplay
ARM GAS  C:\Users\giris\AppData\Local\Temp\cceloVpD.s 			page 60


 1988 0050 00000000 		.word	0
 1989              		.type	CLOCK_Container_Transitions, %object
 1990              		.size	CLOCK_Container_Transitions, 36
 1991              	CLOCK_Container_Transitions:
 1992 0054 00       		.byte	0
 1993 0055 000000   		.space	3
 1994 0058 00000000 		.word	STATE_CLOCK_C_ISDISPLAYING_Transitions
 1995 005c 0200     		.short	2
 1996 005e 0000     		.space	2
 1997 0060 01       		.byte	1
 1998 0061 000000   		.space	3
 1999 0064 00000000 		.word	STATE_CLOCK_C_ISEDITINGHOURS_Transitions
 2000 0068 0400     		.short	4
 2001 006a 0000     		.space	2
 2002 006c 02       		.byte	2
 2003 006d 000000   		.space	3
 2004 0070 00000000 		.word	STATE_CLOCK_C_ISEDITINGMINUTES_Transitions
 2005 0074 0400     		.short	4
 2006 0076 0000     		.space	2
 2007              		.type	STATE_CLOCK_W_ISAUTOINCREMENT_Transitions, %object
 2008              		.size	STATE_CLOCK_W_ISAUTOINCREMENT_Transitions, 24
 2009              	STATE_CLOCK_W_ISAUTOINCREMENT_Transitions:
 2010 0078 02       		.byte	2
 2011 0079 04       		.byte	4
 2012 007a 0000     		.space	2
 2013 007c 00000000 		.word	0
 2014 0080 00000000 		.word	CLOCK__incrementWidget
 2015 0084 04       		.byte	4
 2016 0085 05       		.byte	5
 2017 0086 0000     		.space	2
 2018 0088 00000000 		.word	0
 2019 008c 00000000 		.word	CLOCK__incrementWidget
 2020              		.type	STATE_CLOCK_W_ISEDITING_Transitions, %object
 2021              		.size	STATE_CLOCK_W_ISEDITING_Transitions, 36
 2022              	STATE_CLOCK_W_ISEDITING_Transitions:
 2023 0090 02       		.byte	2
 2024 0091 04       		.byte	4
 2025 0092 0000     		.space	2
 2026 0094 00000000 		.word	0
 2027 0098 00000000 		.word	CLOCK__incrementWidget
 2028 009c 03       		.byte	3
 2029 009d 05       		.byte	5
 2030 009e 0000     		.space	2
 2031 00a0 00000000 		.word	0
 2032 00a4 00000000 		.word	0
 2033 00a8 01       		.byte	1
 2034 00a9 03       		.byte	3
 2035 00aa 0000     		.space	2
 2036 00ac 00000000 		.word	0
 2037 00b0 00000000 		.word	CLOCK__setDisplayFonts
 2038              		.type	STATE_CLOCK_W_ISDISPLAYING_Transitions, %object
 2039              		.size	STATE_CLOCK_W_ISDISPLAYING_Transitions, 12
 2040              	STATE_CLOCK_W_ISDISPLAYING_Transitions:
 2041 00b4 01       		.byte	1
 2042 00b5 04       		.byte	4
 2043 00b6 0000     		.space	2
 2044 00b8 00000000 		.word	0
ARM GAS  C:\Users\giris\AppData\Local\Temp\cceloVpD.s 			page 61


 2045 00bc 00000000 		.word	CLOCK__setEditFonts
 2046              		.type	STATE_CLOCK_C_ISEDITINGMINUTES_Transitions, %object
 2047              		.size	STATE_CLOCK_C_ISEDITINGMINUTES_Transitions, 48
 2048              	STATE_CLOCK_C_ISEDITINGMINUTES_Transitions:
 2049 00c0 01       		.byte	1
 2050 00c1 00       		.byte	0
 2051 00c2 0000     		.space	2
 2052 00c4 00000000 		.word	0
 2053 00c8 00000000 		.word	CLOCK__Dispatch_KL_Min
 2054 00cc 02       		.byte	2
 2055 00cd 02       		.byte	2
 2056 00ce 0000     		.space	2
 2057 00d0 00000000 		.word	0
 2058 00d4 00000000 		.word	CLOCK__Dispatch_KR_Min
 2059 00d8 03       		.byte	3
 2060 00d9 02       		.byte	2
 2061 00da 0000     		.space	2
 2062 00dc 00000000 		.word	0
 2063 00e0 00000000 		.word	CLOCK__Dispatch_KRLP_Min
 2064 00e4 04       		.byte	4
 2065 00e5 02       		.byte	2
 2066 00e6 0000     		.space	2
 2067 00e8 00000000 		.word	0
 2068 00ec 00000000 		.word	CLOCK__Dispatch_250MS_Min
 2069              		.type	STATE_CLOCK_C_ISEDITINGHOURS_Transitions, %object
 2070              		.size	STATE_CLOCK_C_ISEDITINGHOURS_Transitions, 48
 2071              	STATE_CLOCK_C_ISEDITINGHOURS_Transitions:
 2072 00f0 01       		.byte	1
 2073 00f1 02       		.byte	2
 2074 00f2 0000     		.space	2
 2075 00f4 00000000 		.word	0
 2076 00f8 00000000 		.word	CLOCK__Dispatch_KL_HoursMin
 2077 00fc 02       		.byte	2
 2078 00fd 01       		.byte	1
 2079 00fe 0000     		.space	2
 2080 0100 00000000 		.word	0
 2081 0104 00000000 		.word	CLOCK__Dispatch_KR_Hours
 2082 0108 03       		.byte	3
 2083 0109 01       		.byte	1
 2084 010a 0000     		.space	2
 2085 010c 00000000 		.word	0
 2086 0110 00000000 		.word	CLOCK__Dispatch_KRLP_Hours
 2087 0114 04       		.byte	4
 2088 0115 01       		.byte	1
 2089 0116 0000     		.space	2
 2090 0118 00000000 		.word	0
 2091 011c 00000000 		.word	CLOCK__Dispatch_250MS_Hours
 2092              		.type	STATE_CLOCK_C_ISDISPLAYING_Transitions, %object
 2093              		.size	STATE_CLOCK_C_ISDISPLAYING_Transitions, 24
 2094              	STATE_CLOCK_C_ISDISPLAYING_Transitions:
 2095 0120 01       		.byte	1
 2096 0121 01       		.byte	1
 2097 0122 0000     		.space	2
 2098 0124 00000000 		.word	0
 2099 0128 00000000 		.word	CLOCK__Dispatch_KL_Hours
 2100 012c 05       		.byte	5
 2101 012d 00       		.byte	0
ARM GAS  C:\Users\giris\AppData\Local\Temp\cceloVpD.s 			page 62


 2102 012e 0000     		.space	2
 2103 0130 00000000 		.word	0
 2104 0134 00000000 		.word	CLOCK__Increment1Minute
 2105              		.bss
 2106              		.set	.LANCHOR1,. + 0
 2107              		.type	init_state, %object
 2108              		.size	init_state, 1
 2109              	init_state:
 2110 0000 00       		.space	1
 2111              		.text
 2112              	.Letext0:
 2113              		.file 4 ".\\source\\bsw/global.h"
 2114              		.file 5 "c:\\program files (x86)\\cypress\\psoc creator\\4.4\\psoc creator\\import\\gnu\\arm\\5.4.
 2115              		.file 6 "c:\\program files (x86)\\cypress\\psoc creator\\4.4\\psoc creator\\import\\gnu\\arm\\5.4.
 2116              		.file 7 "c:\\program files (x86)\\cypress\\psoc creator\\4.4\\psoc creator\\import\\gnu\\arm\\5.4.
 2117              		.file 8 ".\\source\\bsw\\tft/tft.h"
 2118              		.file 9 "source\\asw\\clock_type.h"
 2119              		.file 10 "Generated_Source\\PSoC5/ErikaOS_common_ee_types.inc"
 2120              		.file 11 "Generated_Source\\PSoC5/ErikaOS_cortex_mx_ee_cpu.inc"
 2121              		.file 12 "Generated_Source\\PSoC5/ErikaOS_ee_oo_common.inc"
 2122              		.file 13 ".\\source\\rte/rte_types.h"
 2123              		.file 14 ".\\source\\rte/rte.h"
 2124              		.file 15 ".\\source\\asw/statemachine.h"
 2125              		.file 16 ".\\source\\rte/sc_input_type.h"
 2126              		.file 17 ".\\source\\rte/sc_control_type.h"
 2127              		.file 18 "Generated_Source\\PSoC5/ErikaOS_ee_oo_intfunc.inc"
 2128              		.file 19 "Generated_Source\\PSoC5/ErikaOS_cortex_mx_ee_context.inc"
 2129              		.file 20 "Generated_Source\\PSoC5/ErikaOS_common_ee_primitives.inc"
 2130              		.file 21 "Generated_Source\\PSoC5/core_cm3.h"
 2131              		.file 22 ".\\source\\rte/sp_common.h"
 2132              		.file 23 "Generated_Source\\PSoC5/ErikaOS_ee_oo_kernel.inc"
 2133              		.section	.debug_info,"",%progbits
 2134              	.Ldebug_info0:
 2135 0000 DE1A0000 		.4byte	0x1ade
 2136 0004 0400     		.2byte	0x4
 2137 0006 00000000 		.4byte	.Ldebug_abbrev0
 2138 000a 04       		.byte	0x4
 2139 000b 01       		.uleb128 0x1
 2140 000c 6D0B0000 		.4byte	.LASF232
 2141 0010 0C       		.byte	0xc
 2142 0011 8E0D0000 		.4byte	.LASF233
 2143 0015 12050000 		.4byte	.LASF234
 2144 0019 00000000 		.4byte	.Ldebug_ranges0+0
 2145 001d 00000000 		.4byte	0
 2146 0021 00000000 		.4byte	.Ldebug_line0
 2147 0025 02       		.uleb128 0x2
 2148 0026 01       		.byte	0x1
 2149 0027 06       		.byte	0x6
 2150 0028 84020000 		.4byte	.LASF0
 2151 002c 03       		.uleb128 0x3
 2152 002d 5F0E0000 		.4byte	.LASF3
 2153 0031 04       		.byte	0x4
 2154 0032 91       		.byte	0x91
 2155 0033 37000000 		.4byte	0x37
 2156 0037 02       		.uleb128 0x2
 2157 0038 01       		.byte	0x1
 2158 0039 08       		.byte	0x8
ARM GAS  C:\Users\giris\AppData\Local\Temp\cceloVpD.s 			page 63


 2159 003a 740A0000 		.4byte	.LASF1
 2160 003e 02       		.uleb128 0x2
 2161 003f 02       		.byte	0x2
 2162 0040 05       		.byte	0x5
 2163 0041 AC0C0000 		.4byte	.LASF2
 2164 0045 03       		.uleb128 0x3
 2165 0046 7F050000 		.4byte	.LASF4
 2166 004a 04       		.byte	0x4
 2167 004b 93       		.byte	0x93
 2168 004c 50000000 		.4byte	0x50
 2169 0050 02       		.uleb128 0x2
 2170 0051 02       		.byte	0x2
 2171 0052 07       		.byte	0x7
 2172 0053 5A040000 		.4byte	.LASF5
 2173 0057 02       		.uleb128 0x2
 2174 0058 04       		.byte	0x4
 2175 0059 05       		.byte	0x5
 2176 005a 48030000 		.4byte	.LASF6
 2177 005e 03       		.uleb128 0x3
 2178 005f 4E0C0000 		.4byte	.LASF7
 2179 0063 04       		.byte	0x4
 2180 0064 96       		.byte	0x96
 2181 0065 69000000 		.4byte	0x69
 2182 0069 02       		.uleb128 0x2
 2183 006a 04       		.byte	0x4
 2184 006b 07       		.byte	0x7
 2185 006c BD050000 		.4byte	.LASF8
 2186 0070 02       		.uleb128 0x2
 2187 0071 04       		.byte	0x4
 2188 0072 04       		.byte	0x4
 2189 0073 710C0000 		.4byte	.LASF9
 2190 0077 02       		.uleb128 0x2
 2191 0078 08       		.byte	0x8
 2192 0079 04       		.byte	0x4
 2193 007a F6030000 		.4byte	.LASF10
 2194 007e 02       		.uleb128 0x2
 2195 007f 08       		.byte	0x8
 2196 0080 05       		.byte	0x5
 2197 0081 76020000 		.4byte	.LASF11
 2198 0085 02       		.uleb128 0x2
 2199 0086 08       		.byte	0x8
 2200 0087 07       		.byte	0x7
 2201 0088 73060000 		.4byte	.LASF12
 2202 008c 03       		.uleb128 0x3
 2203 008d 29080000 		.4byte	.LASF13
 2204 0091 04       		.byte	0x4
 2205 0092 9C       		.byte	0x9c
 2206 0093 37000000 		.4byte	0x37
 2207 0097 02       		.uleb128 0x2
 2208 0098 01       		.byte	0x1
 2209 0099 08       		.byte	0x8
 2210 009a 860C0000 		.4byte	.LASF14
 2211 009e 04       		.uleb128 0x4
 2212 009f 01       		.byte	0x1
 2213 00a0 25000000 		.4byte	0x25
 2214 00a4 04       		.byte	0x4
 2215 00a5 CF       		.byte	0xcf
ARM GAS  C:\Users\giris\AppData\Local\Temp\cceloVpD.s 			page 64


 2216 00a6 47010000 		.4byte	0x147
 2217 00aa 05       		.uleb128 0x5
 2218 00ab F7050000 		.4byte	.LASF15
 2219 00af 00       		.byte	0
 2220 00b0 06       		.uleb128 0x6
 2221 00b1 9F090000 		.4byte	.LASF16
 2222 00b5 7F       		.sleb128 -1
 2223 00b6 06       		.uleb128 0x6
 2224 00b7 CF050000 		.4byte	.LASF17
 2225 00bb 7E       		.sleb128 -2
 2226 00bc 06       		.uleb128 0x6
 2227 00bd 5E0A0000 		.4byte	.LASF18
 2228 00c1 7D       		.sleb128 -3
 2229 00c2 06       		.uleb128 0x6
 2230 00c3 250D0000 		.4byte	.LASF19
 2231 00c7 7C       		.sleb128 -4
 2232 00c8 06       		.uleb128 0x6
 2233 00c9 470E0000 		.4byte	.LASF20
 2234 00cd 7B       		.sleb128 -5
 2235 00ce 06       		.uleb128 0x6
 2236 00cf EC0C0000 		.4byte	.LASF21
 2237 00d3 7A       		.sleb128 -6
 2238 00d4 06       		.uleb128 0x6
 2239 00d5 E4080000 		.4byte	.LASF22
 2240 00d9 79       		.sleb128 -7
 2241 00da 06       		.uleb128 0x6
 2242 00db B6060000 		.4byte	.LASF23
 2243 00df 78       		.sleb128 -8
 2244 00e0 06       		.uleb128 0x6
 2245 00e1 1B030000 		.4byte	.LASF24
 2246 00e5 77       		.sleb128 -9
 2247 00e6 06       		.uleb128 0x6
 2248 00e7 170A0000 		.4byte	.LASF25
 2249 00eb 76       		.sleb128 -10
 2250 00ec 06       		.uleb128 0x6
 2251 00ed AA010000 		.4byte	.LASF26
 2252 00f1 75       		.sleb128 -11
 2253 00f2 06       		.uleb128 0x6
 2254 00f3 DF030000 		.4byte	.LASF27
 2255 00f7 74       		.sleb128 -12
 2256 00f8 06       		.uleb128 0x6
 2257 00f9 AB050000 		.4byte	.LASF28
 2258 00fd 73       		.sleb128 -13
 2259 00fe 06       		.uleb128 0x6
 2260 00ff 5E0C0000 		.4byte	.LASF29
 2261 0103 72       		.sleb128 -14
 2262 0104 06       		.uleb128 0x6
 2263 0105 18010000 		.4byte	.LASF30
 2264 0109 71       		.sleb128 -15
 2265 010a 06       		.uleb128 0x6
 2266 010b 69080000 		.4byte	.LASF31
 2267 010f 70       		.sleb128 -16
 2268 0110 06       		.uleb128 0x6
 2269 0111 F6080000 		.4byte	.LASF32
 2270 0115 6F       		.sleb128 -17
 2271 0116 06       		.uleb128 0x6
 2272 0117 20070000 		.4byte	.LASF33
ARM GAS  C:\Users\giris\AppData\Local\Temp\cceloVpD.s 			page 65


 2273 011b 6E       		.sleb128 -18
 2274 011c 06       		.uleb128 0x6
 2275 011d 6F070000 		.4byte	.LASF34
 2276 0121 6D       		.sleb128 -19
 2277 0122 06       		.uleb128 0x6
 2278 0123 5C070000 		.4byte	.LASF35
 2279 0127 6C       		.sleb128 -20
 2280 0128 06       		.uleb128 0x6
 2281 0129 89030000 		.4byte	.LASF36
 2282 012d 6B       		.sleb128 -21
 2283 012e 06       		.uleb128 0x6
 2284 012f CD080000 		.4byte	.LASF37
 2285 0133 6A       		.sleb128 -22
 2286 0134 06       		.uleb128 0x6
 2287 0135 5D000000 		.4byte	.LASF38
 2288 0139 69       		.sleb128 -23
 2289 013a 06       		.uleb128 0x6
 2290 013b 88050000 		.4byte	.LASF39
 2291 013f 68       		.sleb128 -24
 2292 0140 06       		.uleb128 0x6
 2293 0141 CB0C0000 		.4byte	.LASF40
 2294 0145 67       		.sleb128 -25
 2295 0146 00       		.byte	0
 2296 0147 03       		.uleb128 0x3
 2297 0148 13010000 		.4byte	.LASF41
 2298 014c 04       		.byte	0x4
 2299 014d EA       		.byte	0xea
 2300 014e 9E000000 		.4byte	0x9e
 2301 0152 03       		.uleb128 0x3
 2302 0153 EA010000 		.4byte	.LASF42
 2303 0157 05       		.byte	0x5
 2304 0158 3F       		.byte	0x3f
 2305 0159 57000000 		.4byte	0x57
 2306 015d 07       		.uleb128 0x7
 2307 015e 04       		.byte	0x4
 2308 015f 05       		.byte	0x5
 2309 0160 696E7400 		.ascii	"int\000"
 2310 0164 02       		.uleb128 0x2
 2311 0165 04       		.byte	0x4
 2312 0166 07       		.byte	0x7
 2313 0167 6A050000 		.4byte	.LASF43
 2314 016b 03       		.uleb128 0x3
 2315 016c 7C000000 		.4byte	.LASF44
 2316 0170 06       		.byte	0x6
 2317 0171 D8       		.byte	0xd8
 2318 0172 64010000 		.4byte	0x164
 2319 0176 02       		.uleb128 0x2
 2320 0177 08       		.byte	0x8
 2321 0178 04       		.byte	0x4
 2322 0179 16080000 		.4byte	.LASF45
 2323 017d 02       		.uleb128 0x2
 2324 017e 04       		.byte	0x4
 2325 017f 07       		.byte	0x7
 2326 0180 FB070000 		.4byte	.LASF46
 2327 0184 03       		.uleb128 0x3
 2328 0185 6C0A0000 		.4byte	.LASF47
 2329 0189 07       		.byte	0x7
ARM GAS  C:\Users\giris\AppData\Local\Temp\cceloVpD.s 			page 66


 2330 018a 2C       		.byte	0x2c
 2331 018b 52010000 		.4byte	0x152
 2332 018f 04       		.uleb128 0x4
 2333 0190 02       		.byte	0x2
 2334 0191 50000000 		.4byte	0x50
 2335 0195 08       		.byte	0x8
 2336 0196 5C       		.byte	0x5c
 2337 0197 2D020000 		.4byte	0x22d
 2338 019b 08       		.uleb128 0x8
 2339 019c 12020000 		.4byte	.LASF48
 2340 01a0 FFFF     		.2byte	0xffff
 2341 01a2 05       		.uleb128 0x5
 2342 01a3 8B0C0000 		.4byte	.LASF49
 2343 01a7 00       		.byte	0
 2344 01a8 08       		.uleb128 0x8
 2345 01a9 A70C0000 		.4byte	.LASF50
 2346 01ad 00F8     		.2byte	0xf800
 2347 01af 08       		.uleb128 0x8
 2348 01b0 A8090000 		.4byte	.LASF51
 2349 01b4 1FF8     		.2byte	0xf81f
 2350 01b6 08       		.uleb128 0x8
 2351 01b7 B7000000 		.4byte	.LASF52
 2352 01bb FF07     		.2byte	0x7ff
 2353 01bd 08       		.uleb128 0x8
 2354 01be 6D060000 		.4byte	.LASF53
 2355 01c2 E0FF     		.2byte	0xffe0
 2356 01c4 09       		.uleb128 0x9
 2357 01c5 52454400 		.ascii	"RED\000"
 2358 01c9 1F       		.byte	0x1f
 2359 01ca 08       		.uleb128 0x8
 2360 01cb 74000000 		.4byte	.LASF54
 2361 01cf 1FF8     		.2byte	0xf81f
 2362 01d1 08       		.uleb128 0x8
 2363 01d2 C50C0000 		.4byte	.LASF55
 2364 01d6 E007     		.2byte	0x7e0
 2365 01d8 08       		.uleb128 0x8
 2366 01d9 180C0000 		.4byte	.LASF56
 2367 01dd E0FF     		.2byte	0xffe0
 2368 01df 08       		.uleb128 0x8
 2369 01e0 D8030000 		.4byte	.LASF57
 2370 01e4 FF07     		.2byte	0x7ff
 2371 01e6 08       		.uleb128 0x8
 2372 01e7 B2030000 		.4byte	.LASF58
 2373 01eb 3D02     		.2byte	0x23d
 2374 01ed 08       		.uleb128 0x8
 2375 01ee BE040000 		.4byte	.LASF59
 2376 01f2 3FE0     		.2byte	0xe03f
 2377 01f4 08       		.uleb128 0x8
 2378 01f5 DF080000 		.4byte	.LASF60
 2379 01f9 210C     		.2byte	0xc21
 2380 01fb 08       		.uleb128 0x8
 2381 01fc D4020000 		.4byte	.LASF61
 2382 0200 89F3     		.2byte	0xf389
 2383 0202 08       		.uleb128 0x8
 2384 0203 A0070000 		.4byte	.LASF62
 2385 0207 BE3E     		.2byte	0x3ebe
 2386 0209 08       		.uleb128 0x8
ARM GAS  C:\Users\giris\AppData\Local\Temp\cceloVpD.s 			page 67


 2387 020a BD0E0000 		.4byte	.LASF63
 2388 020e 2A1A     		.2byte	0x1a2a
 2389 0210 08       		.uleb128 0x8
 2390 0211 020D0000 		.4byte	.LASF64
 2391 0215 21F8     		.2byte	0xf821
 2392 0217 08       		.uleb128 0x8
 2393 0218 CC040000 		.4byte	.LASF65
 2394 021c 6318     		.2byte	0x1863
 2395 021e 08       		.uleb128 0x8
 2396 021f 16070000 		.4byte	.LASF66
 2397 0223 658A     		.2byte	0x8a65
 2398 0225 08       		.uleb128 0x8
 2399 0226 22080000 		.4byte	.LASF67
 2400 022a D448     		.2byte	0x48d4
 2401 022c 00       		.byte	0
 2402 022d 03       		.uleb128 0x3
 2403 022e 18020000 		.4byte	.LASF68
 2404 0232 08       		.byte	0x8
 2405 0233 72       		.byte	0x72
 2406 0234 8F010000 		.4byte	0x18f
 2407 0238 04       		.uleb128 0x4
 2408 0239 01       		.byte	0x1
 2409 023a 37000000 		.4byte	0x37
 2410 023e 09       		.byte	0x9
 2411 023f 56       		.byte	0x56
 2412 0240 69020000 		.4byte	0x269
 2413 0244 05       		.uleb128 0x5
 2414 0245 E40C0000 		.4byte	.LASF69
 2415 0249 00       		.byte	0
 2416 024a 05       		.uleb128 0x5
 2417 024b 16000000 		.4byte	.LASF70
 2418 024f 01       		.byte	0x1
 2419 0250 05       		.uleb128 0x5
 2420 0251 B2040000 		.4byte	.LASF71
 2421 0255 02       		.byte	0x2
 2422 0256 05       		.uleb128 0x5
 2423 0257 A80E0000 		.4byte	.LASF72
 2424 025b 03       		.byte	0x3
 2425 025c 05       		.uleb128 0x5
 2426 025d ED030000 		.4byte	.LASF73
 2427 0261 04       		.byte	0x4
 2428 0262 05       		.uleb128 0x5
 2429 0263 77050000 		.4byte	.LASF74
 2430 0267 05       		.byte	0x5
 2431 0268 00       		.byte	0
 2432 0269 03       		.uleb128 0x3
 2433 026a F3070000 		.4byte	.LASF75
 2434 026e 09       		.byte	0x9
 2435 026f 5F       		.byte	0x5f
 2436 0270 38020000 		.4byte	0x238
 2437 0274 04       		.uleb128 0x4
 2438 0275 01       		.byte	0x1
 2439 0276 37000000 		.4byte	0x37
 2440 027a 09       		.byte	0x9
 2441 027b 62       		.byte	0x62
 2442 027c A5020000 		.4byte	0x2a5
 2443 0280 05       		.uleb128 0x5
ARM GAS  C:\Users\giris\AppData\Local\Temp\cceloVpD.s 			page 68


 2444 0281 BC010000 		.4byte	.LASF76
 2445 0285 00       		.byte	0
 2446 0286 05       		.uleb128 0x5
 2447 0287 9B030000 		.4byte	.LASF77
 2448 028b 01       		.byte	0x1
 2449 028c 05       		.uleb128 0x5
 2450 028d B4080000 		.4byte	.LASF78
 2451 0291 02       		.byte	0x2
 2452 0292 05       		.uleb128 0x5
 2453 0293 520D0000 		.4byte	.LASF79
 2454 0297 03       		.byte	0x3
 2455 0298 05       		.uleb128 0x5
 2456 0299 04080000 		.4byte	.LASF80
 2457 029d 04       		.byte	0x4
 2458 029e 05       		.uleb128 0x5
 2459 029f 0D060000 		.4byte	.LASF81
 2460 02a3 05       		.byte	0x5
 2461 02a4 00       		.byte	0
 2462 02a5 03       		.uleb128 0x3
 2463 02a6 E0070000 		.4byte	.LASF82
 2464 02aa 09       		.byte	0x9
 2465 02ab 6C       		.byte	0x6c
 2466 02ac 74020000 		.4byte	0x274
 2467 02b0 04       		.uleb128 0x4
 2468 02b1 01       		.byte	0x1
 2469 02b2 37000000 		.4byte	0x37
 2470 02b6 09       		.byte	0x9
 2471 02b7 6F       		.byte	0x6f
 2472 02b8 CF020000 		.4byte	0x2cf
 2473 02bc 05       		.uleb128 0x5
 2474 02bd F4010000 		.4byte	.LASF83
 2475 02c1 00       		.byte	0
 2476 02c2 05       		.uleb128 0x5
 2477 02c3 AA070000 		.4byte	.LASF84
 2478 02c7 01       		.byte	0x1
 2479 02c8 05       		.uleb128 0x5
 2480 02c9 11070000 		.4byte	.LASF85
 2481 02cd 02       		.byte	0x2
 2482 02ce 00       		.byte	0
 2483 02cf 03       		.uleb128 0x3
 2484 02d0 00000000 		.4byte	.LASF86
 2485 02d4 09       		.byte	0x9
 2486 02d5 73       		.byte	0x73
 2487 02d6 B0020000 		.4byte	0x2b0
 2488 02da 0A       		.uleb128 0xa
 2489 02db 08       		.byte	0x8
 2490 02dc 09       		.byte	0x9
 2491 02dd 75       		.byte	0x75
 2492 02de 1F030000 		.4byte	0x31f
 2493 02e2 0B       		.uleb128 0xb
 2494 02e3 90060000 		.4byte	.LASF87
 2495 02e7 09       		.byte	0x9
 2496 02e8 77       		.byte	0x77
 2497 02e9 2C000000 		.4byte	0x2c
 2498 02ed 00       		.byte	0
 2499 02ee 0B       		.uleb128 0xb
 2500 02ef 090E0000 		.4byte	.LASF88
ARM GAS  C:\Users\giris\AppData\Local\Temp\cceloVpD.s 			page 69


 2501 02f3 09       		.byte	0x9
 2502 02f4 78       		.byte	0x78
 2503 02f5 2D020000 		.4byte	0x22d
 2504 02f9 02       		.byte	0x2
 2505 02fa 0B       		.uleb128 0xb
 2506 02fb CA030000 		.4byte	.LASF89
 2507 02ff 09       		.byte	0x9
 2508 0300 79       		.byte	0x79
 2509 0301 2D020000 		.4byte	0x22d
 2510 0305 04       		.byte	0x4
 2511 0306 0B       		.uleb128 0xb
 2512 0307 FF040000 		.4byte	.LASF90
 2513 030b 09       		.byte	0x9
 2514 030c 7A       		.byte	0x7a
 2515 030d 2C000000 		.4byte	0x2c
 2516 0311 06       		.byte	0x6
 2517 0312 0B       		.uleb128 0xb
 2518 0313 2D040000 		.4byte	.LASF91
 2519 0317 09       		.byte	0x9
 2520 0318 7B       		.byte	0x7b
 2521 0319 2C000000 		.4byte	0x2c
 2522 031d 07       		.byte	0x7
 2523 031e 00       		.byte	0
 2524 031f 03       		.uleb128 0x3
 2525 0320 C60E0000 		.4byte	.LASF92
 2526 0324 09       		.byte	0x9
 2527 0325 7C       		.byte	0x7c
 2528 0326 DA020000 		.4byte	0x2da
 2529 032a 0C       		.uleb128 0xc
 2530 032b 770C0000 		.4byte	.LASF146
 2531 032f 0C       		.byte	0xc
 2532 0330 09       		.byte	0x9
 2533 0331 7E       		.byte	0x7e
 2534 0332 5B030000 		.4byte	0x35b
 2535 0336 0B       		.uleb128 0xb
 2536 0337 F90E0000 		.4byte	.LASF93
 2537 033b 09       		.byte	0x9
 2538 033c 80       		.byte	0x80
 2539 033d CF020000 		.4byte	0x2cf
 2540 0341 00       		.byte	0
 2541 0342 0B       		.uleb128 0xb
 2542 0343 97080000 		.4byte	.LASF94
 2543 0347 09       		.byte	0x9
 2544 0348 81       		.byte	0x81
 2545 0349 1F030000 		.4byte	0x31f
 2546 034d 02       		.byte	0x2
 2547 034e 0B       		.uleb128 0xb
 2548 034f 0C050000 		.4byte	.LASF95
 2549 0353 09       		.byte	0x9
 2550 0354 82       		.byte	0x82
 2551 0355 2C000000 		.4byte	0x2c
 2552 0359 0A       		.byte	0xa
 2553 035a 00       		.byte	0
 2554 035b 03       		.uleb128 0x3
 2555 035c 4A040000 		.4byte	.LASF96
 2556 0360 09       		.byte	0x9
 2557 0361 85       		.byte	0x85
ARM GAS  C:\Users\giris\AppData\Local\Temp\cceloVpD.s 			page 70


 2558 0362 2A030000 		.4byte	0x32a
 2559 0366 03       		.uleb128 0x3
 2560 0367 35070000 		.4byte	.LASF97
 2561 036b 09       		.byte	0x9
 2562 036c 8A       		.byte	0x8a
 2563 036d 69020000 		.4byte	0x269
 2564 0371 03       		.uleb128 0x3
 2565 0372 F1040000 		.4byte	.LASF98
 2566 0376 09       		.byte	0x9
 2567 0377 8D       		.byte	0x8d
 2568 0378 A5020000 		.4byte	0x2a5
 2569 037c 03       		.uleb128 0x3
 2570 037d 560E0000 		.4byte	.LASF99
 2571 0381 0A       		.byte	0xa
 2572 0382 53       		.byte	0x53
 2573 0383 5D010000 		.4byte	0x15d
 2574 0387 03       		.uleb128 0x3
 2575 0388 280E0000 		.4byte	.LASF100
 2576 038c 0A       		.byte	0xa
 2577 038d 54       		.byte	0x54
 2578 038e 64010000 		.4byte	0x164
 2579 0392 03       		.uleb128 0x3
 2580 0393 99050000 		.4byte	.LASF101
 2581 0397 0B       		.byte	0xb
 2582 0398 4D       		.byte	0x4d
 2583 0399 87030000 		.4byte	0x387
 2584 039d 03       		.uleb128 0x3
 2585 039e 170F0000 		.4byte	.LASF102
 2586 03a2 0B       		.byte	0xb
 2587 03a3 4F       		.byte	0x4f
 2588 03a4 87030000 		.4byte	0x387
 2589 03a8 03       		.uleb128 0x3
 2590 03a9 05050000 		.4byte	.LASF103
 2591 03ad 0B       		.byte	0xb
 2592 03ae 78       		.byte	0x78
 2593 03af 7C030000 		.4byte	0x37c
 2594 03b3 0D       		.uleb128 0xd
 2595 03b4 95060000 		.4byte	.LASF104
 2596 03b8 0C       		.byte	0xc
 2597 03b9 F701     		.2byte	0x1f7
 2598 03bb A8030000 		.4byte	0x3a8
 2599 03bf 0D       		.uleb128 0xd
 2600 03c0 90020000 		.4byte	.LASF105
 2601 03c4 0C       		.byte	0xc
 2602 03c5 2C02     		.2byte	0x22c
 2603 03c7 92030000 		.4byte	0x392
 2604 03cb 03       		.uleb128 0x3
 2605 03cc 670D0000 		.4byte	.LASF106
 2606 03d0 0D       		.byte	0xd
 2607 03d1 19       		.byte	0x19
 2608 03d2 D6030000 		.4byte	0x3d6
 2609 03d6 0E       		.uleb128 0xe
 2610 03d7 B3030000 		.4byte	0x3b3
 2611 03db E1030000 		.4byte	0x3e1
 2612 03df 0F       		.uleb128 0xf
 2613 03e0 00       		.byte	0
 2614 03e1 03       		.uleb128 0x3
ARM GAS  C:\Users\giris\AppData\Local\Temp\cceloVpD.s 			page 71


 2615 03e2 E3000000 		.4byte	.LASF107
 2616 03e6 0D       		.byte	0xd
 2617 03e7 2D       		.byte	0x2d
 2618 03e8 5E000000 		.4byte	0x5e
 2619 03ec 04       		.uleb128 0x4
 2620 03ed 01       		.byte	0x1
 2621 03ee 37000000 		.4byte	0x37
 2622 03f2 0E       		.byte	0xe
 2623 03f3 59       		.byte	0x59
 2624 03f4 11040000 		.4byte	0x411
 2625 03f8 05       		.uleb128 0x5
 2626 03f9 43070000 		.4byte	.LASF108
 2627 03fd 00       		.byte	0
 2628 03fe 05       		.uleb128 0x5
 2629 03ff 2A020000 		.4byte	.LASF109
 2630 0403 01       		.byte	0x1
 2631 0404 05       		.uleb128 0x5
 2632 0405 33040000 		.4byte	.LASF110
 2633 0409 02       		.byte	0x2
 2634 040a 05       		.uleb128 0x5
 2635 040b E90D0000 		.4byte	.LASF111
 2636 040f 03       		.byte	0x3
 2637 0410 00       		.byte	0
 2638 0411 03       		.uleb128 0x3
 2639 0412 0D0D0000 		.4byte	.LASF112
 2640 0416 0E       		.byte	0xe
 2641 0417 5E       		.byte	0x5e
 2642 0418 EC030000 		.4byte	0x3ec
 2643 041c 03       		.uleb128 0x3
 2644 041d 050F0000 		.4byte	.LASF113
 2645 0421 0F       		.byte	0xf
 2646 0422 2C       		.byte	0x2c
 2647 0423 27040000 		.4byte	0x427
 2648 0427 10       		.uleb128 0x10
 2649 0428 04       		.byte	0x4
 2650 0429 2D040000 		.4byte	0x42d
 2651 042d 11       		.uleb128 0x11
 2652 042e 34040000 		.4byte	0x434
 2653 0432 12       		.uleb128 0x12
 2654 0433 00       		.byte	0
 2655 0434 03       		.uleb128 0x3
 2656 0435 37030000 		.4byte	.LASF114
 2657 0439 0F       		.byte	0xf
 2658 043a 31       		.byte	0x31
 2659 043b 3F040000 		.4byte	0x43f
 2660 043f 10       		.uleb128 0x10
 2661 0440 04       		.byte	0x4
 2662 0441 45040000 		.4byte	0x445
 2663 0445 13       		.uleb128 0x13
 2664 0446 8C000000 		.4byte	0x8c
 2665 044a 50040000 		.4byte	0x450
 2666 044e 12       		.uleb128 0x12
 2667 044f 00       		.byte	0
 2668 0450 0A       		.uleb128 0xa
 2669 0451 0C       		.byte	0xc
 2670 0452 0F       		.byte	0xf
 2671 0453 38       		.byte	0x38
ARM GAS  C:\Users\giris\AppData\Local\Temp\cceloVpD.s 			page 72


 2672 0454 89040000 		.4byte	0x489
 2673 0458 0B       		.uleb128 0xb
 2674 0459 8A060000 		.4byte	.LASF115
 2675 045d 0F       		.byte	0xf
 2676 045e 3A       		.byte	0x3a
 2677 045f 66030000 		.4byte	0x366
 2678 0463 00       		.byte	0
 2679 0464 0B       		.uleb128 0xb
 2680 0465 2C010000 		.4byte	.LASF116
 2681 0469 0F       		.byte	0xf
 2682 046a 3B       		.byte	0x3b
 2683 046b 71030000 		.4byte	0x371
 2684 046f 01       		.byte	0x1
 2685 0470 0B       		.uleb128 0xb
 2686 0471 E60E0000 		.4byte	.LASF117
 2687 0475 0F       		.byte	0xf
 2688 0476 3C       		.byte	0x3c
 2689 0477 34040000 		.4byte	0x434
 2690 047b 04       		.byte	0x4
 2691 047c 0B       		.uleb128 0xb
 2692 047d 750D0000 		.4byte	.LASF118
 2693 0481 0F       		.byte	0xf
 2694 0482 3D       		.byte	0x3d
 2695 0483 1C040000 		.4byte	0x41c
 2696 0487 08       		.byte	0x8
 2697 0488 00       		.byte	0
 2698 0489 03       		.uleb128 0x3
 2699 048a 33080000 		.4byte	.LASF119
 2700 048e 0F       		.byte	0xf
 2701 048f 3F       		.byte	0x3f
 2702 0490 50040000 		.4byte	0x450
 2703 0494 03       		.uleb128 0x3
 2704 0495 820A0000 		.4byte	.LASF120
 2705 0499 0F       		.byte	0xf
 2706 049a 41       		.byte	0x41
 2707 049b 9F040000 		.4byte	0x49f
 2708 049f 0E       		.uleb128 0xe
 2709 04a0 89040000 		.4byte	0x489
 2710 04a4 AA040000 		.4byte	0x4aa
 2711 04a8 0F       		.uleb128 0xf
 2712 04a9 00       		.byte	0
 2713 04aa 0A       		.uleb128 0xa
 2714 04ab 0C       		.byte	0xc
 2715 04ac 0F       		.byte	0xf
 2716 04ad 46       		.byte	0x46
 2717 04ae D7040000 		.4byte	0x4d7
 2718 04b2 0B       		.uleb128 0xb
 2719 04b3 21000000 		.4byte	.LASF121
 2720 04b7 0F       		.byte	0xf
 2721 04b8 48       		.byte	0x48
 2722 04b9 71030000 		.4byte	0x371
 2723 04bd 00       		.byte	0
 2724 04be 0B       		.uleb128 0xb
 2725 04bf BE020000 		.4byte	.LASF122
 2726 04c3 0F       		.byte	0xf
 2727 04c4 49       		.byte	0x49
 2728 04c5 DD040000 		.4byte	0x4dd
ARM GAS  C:\Users\giris\AppData\Local\Temp\cceloVpD.s 			page 73


 2729 04c9 04       		.byte	0x4
 2730 04ca 0B       		.uleb128 0xb
 2731 04cb 90060000 		.4byte	.LASF87
 2732 04cf 0F       		.byte	0xf
 2733 04d0 4A       		.byte	0x4a
 2734 04d1 E2040000 		.4byte	0x4e2
 2735 04d5 08       		.byte	0x8
 2736 04d6 00       		.byte	0
 2737 04d7 10       		.uleb128 0x10
 2738 04d8 04       		.byte	0x4
 2739 04d9 9F040000 		.4byte	0x49f
 2740 04dd 14       		.uleb128 0x14
 2741 04de D7040000 		.4byte	0x4d7
 2742 04e2 14       		.uleb128 0x14
 2743 04e3 45000000 		.4byte	0x45
 2744 04e7 03       		.uleb128 0x3
 2745 04e8 7A080000 		.4byte	.LASF123
 2746 04ec 0F       		.byte	0xf
 2747 04ed 4B       		.byte	0x4b
 2748 04ee AA040000 		.4byte	0x4aa
 2749 04f2 0A       		.uleb128 0xa
 2750 04f3 0C       		.byte	0xc
 2751 04f4 0F       		.byte	0xf
 2752 04f5 54       		.byte	0x54
 2753 04f6 1F050000 		.4byte	0x51f
 2754 04fa 0B       		.uleb128 0xb
 2755 04fb 31030000 		.4byte	.LASF124
 2756 04ff 0F       		.byte	0xf
 2757 0500 56       		.byte	0x56
 2758 0501 71030000 		.4byte	0x371
 2759 0505 00       		.byte	0
 2760 0506 0B       		.uleb128 0xb
 2761 0507 05070000 		.4byte	.LASF125
 2762 050b 0F       		.byte	0xf
 2763 050c 57       		.byte	0x57
 2764 050d 1C040000 		.4byte	0x41c
 2765 0511 04       		.byte	0x4
 2766 0512 0B       		.uleb128 0xb
 2767 0513 BF030000 		.4byte	.LASF126
 2768 0517 0F       		.byte	0xf
 2769 0518 58       		.byte	0x58
 2770 0519 1C040000 		.4byte	0x41c
 2771 051d 08       		.byte	0x8
 2772 051e 00       		.byte	0
 2773 051f 03       		.uleb128 0x3
 2774 0520 BA070000 		.4byte	.LASF127
 2775 0524 0F       		.byte	0xf
 2776 0525 59       		.byte	0x59
 2777 0526 F2040000 		.4byte	0x4f2
 2778 052a 0A       		.uleb128 0xa
 2779 052b 18       		.byte	0x18
 2780 052c 0F       		.byte	0xf
 2781 052d 5F       		.byte	0x5f
 2782 052e 6F050000 		.4byte	0x56f
 2783 0532 0B       		.uleb128 0xb
 2784 0533 34010000 		.4byte	.LASF128
 2785 0537 0F       		.byte	0xf
ARM GAS  C:\Users\giris\AppData\Local\Temp\cceloVpD.s 			page 74


 2786 0538 61       		.byte	0x61
 2787 0539 A5020000 		.4byte	0x2a5
 2788 053d 00       		.byte	0
 2789 053e 0B       		.uleb128 0xb
 2790 053f 71010000 		.4byte	.LASF129
 2791 0543 0F       		.byte	0xf
 2792 0544 62       		.byte	0x62
 2793 0545 6F050000 		.4byte	0x56f
 2794 0549 04       		.byte	0x4
 2795 054a 0B       		.uleb128 0xb
 2796 054b 4F0A0000 		.4byte	.LASF130
 2797 054f 0F       		.byte	0xf
 2798 0550 63       		.byte	0x63
 2799 0551 75050000 		.4byte	0x575
 2800 0555 08       		.byte	0x8
 2801 0556 0B       		.uleb128 0xb
 2802 0557 C4040000 		.4byte	.LASF131
 2803 055b 0F       		.byte	0xf
 2804 055c 64       		.byte	0x64
 2805 055d 2C000000 		.4byte	0x2c
 2806 0561 0C       		.byte	0xc
 2807 0562 0B       		.uleb128 0xb
 2808 0563 910C0000 		.4byte	.LASF132
 2809 0567 0F       		.byte	0xf
 2810 0568 65       		.byte	0x65
 2811 0569 1F030000 		.4byte	0x31f
 2812 056d 0E       		.byte	0xe
 2813 056e 00       		.byte	0
 2814 056f 10       		.uleb128 0x10
 2815 0570 04       		.byte	0x4
 2816 0571 94040000 		.4byte	0x494
 2817 0575 10       		.uleb128 0x10
 2818 0576 04       		.byte	0x4
 2819 0577 1F050000 		.4byte	0x51f
 2820 057b 03       		.uleb128 0x3
 2821 057c 40000000 		.4byte	.LASF133
 2822 0580 0F       		.byte	0xf
 2823 0581 66       		.byte	0x66
 2824 0582 2A050000 		.4byte	0x52a
 2825 0586 0A       		.uleb128 0xa
 2826 0587 40       		.byte	0x40
 2827 0588 10       		.byte	0x10
 2828 0589 1D       		.byte	0x1d
 2829 058a D7050000 		.4byte	0x5d7
 2830 058e 0B       		.uleb128 0xb
 2831 058f 800E0000 		.4byte	.LASF134
 2832 0593 10       		.byte	0x10
 2833 0594 1F       		.byte	0x1f
 2834 0595 A5020000 		.4byte	0x2a5
 2835 0599 00       		.byte	0
 2836 059a 0B       		.uleb128 0xb
 2837 059b 71010000 		.4byte	.LASF129
 2838 059f 10       		.byte	0x10
 2839 05a0 20       		.byte	0x20
 2840 05a1 6F050000 		.4byte	0x56f
 2841 05a5 04       		.byte	0x4
 2842 05a6 0B       		.uleb128 0xb
ARM GAS  C:\Users\giris\AppData\Local\Temp\cceloVpD.s 			page 75


 2843 05a7 4F0A0000 		.4byte	.LASF130
 2844 05ab 10       		.byte	0x10
 2845 05ac 21       		.byte	0x21
 2846 05ad 75050000 		.4byte	0x575
 2847 05b1 08       		.byte	0x8
 2848 05b2 0B       		.uleb128 0xb
 2849 05b3 B60C0000 		.4byte	.LASF135
 2850 05b7 10       		.byte	0x10
 2851 05b8 22       		.byte	0x22
 2852 05b9 CF020000 		.4byte	0x2cf
 2853 05bd 0C       		.byte	0xc
 2854 05be 0B       		.uleb128 0xb
 2855 05bf 780E0000 		.4byte	.LASF136
 2856 05c3 10       		.byte	0x10
 2857 05c4 23       		.byte	0x23
 2858 05c5 7B050000 		.4byte	0x57b
 2859 05c9 10       		.byte	0x10
 2860 05ca 0B       		.uleb128 0xb
 2861 05cb C90D0000 		.4byte	.LASF137
 2862 05cf 10       		.byte	0x10
 2863 05d0 24       		.byte	0x24
 2864 05d1 7B050000 		.4byte	0x57b
 2865 05d5 28       		.byte	0x28
 2866 05d6 00       		.byte	0
 2867 05d7 03       		.uleb128 0x3
 2868 05d8 0D0B0000 		.4byte	.LASF138
 2869 05dc 10       		.byte	0x10
 2870 05dd 25       		.byte	0x25
 2871 05de 86050000 		.4byte	0x586
 2872 05e2 0A       		.uleb128 0xa
 2873 05e3 44       		.byte	0x44
 2874 05e4 10       		.byte	0x10
 2875 05e5 2A       		.byte	0x2a
 2876 05e6 1B060000 		.4byte	0x61b
 2877 05ea 0B       		.uleb128 0xb
 2878 05eb 47020000 		.4byte	.LASF139
 2879 05ef 10       		.byte	0x10
 2880 05f0 2C       		.byte	0x2c
 2881 05f1 2C000000 		.4byte	0x2c
 2882 05f5 00       		.byte	0
 2883 05f6 0B       		.uleb128 0xb
 2884 05f7 250A0000 		.4byte	.LASF140
 2885 05fb 10       		.byte	0x10
 2886 05fc 2D       		.byte	0x2d
 2887 05fd 2C000000 		.4byte	0x2c
 2888 0601 01       		.byte	0x1
 2889 0602 0B       		.uleb128 0xb
 2890 0603 200D0000 		.4byte	.LASF141
 2891 0607 10       		.byte	0x10
 2892 0608 2E       		.byte	0x2e
 2893 0609 69020000 		.4byte	0x269
 2894 060d 02       		.byte	0x2
 2895 060e 0B       		.uleb128 0xb
 2896 060f AD090000 		.4byte	.LASF142
 2897 0613 10       		.byte	0x10
 2898 0614 2F       		.byte	0x2f
 2899 0615 D7050000 		.4byte	0x5d7
ARM GAS  C:\Users\giris\AppData\Local\Temp\cceloVpD.s 			page 76


 2900 0619 04       		.byte	0x4
 2901 061a 00       		.byte	0
 2902 061b 03       		.uleb128 0x3
 2903 061c 5D0B0000 		.4byte	.LASF143
 2904 0620 10       		.byte	0x10
 2905 0621 32       		.byte	0x32
 2906 0622 E2050000 		.4byte	0x5e2
 2907 0626 03       		.uleb128 0x3
 2908 0627 3E060000 		.4byte	.LASF144
 2909 062b 03       		.byte	0x3
 2910 062c 26       		.byte	0x26
 2911 062d 31060000 		.4byte	0x631
 2912 0631 10       		.uleb128 0x10
 2913 0632 04       		.byte	0x4
 2914 0633 37060000 		.4byte	0x637
 2915 0637 15       		.uleb128 0x15
 2916 0638 47010000 		.4byte	0x147
 2917 063c 46060000 		.4byte	0x646
 2918 0640 16       		.uleb128 0x16
 2919 0641 4C060000 		.4byte	0x64c
 2920 0645 00       		.byte	0
 2921 0646 10       		.uleb128 0x10
 2922 0647 04       		.byte	0x4
 2923 0648 1B060000 		.4byte	0x61b
 2924 064c 14       		.uleb128 0x14
 2925 064d 46060000 		.4byte	0x646
 2926 0651 03       		.uleb128 0x3
 2927 0652 2B000000 		.4byte	.LASF145
 2928 0656 03       		.byte	0x3
 2929 0657 2C       		.byte	0x2c
 2930 0658 5C060000 		.4byte	0x65c
 2931 065c 10       		.uleb128 0x10
 2932 065d 04       		.byte	0x4
 2933 065e 62060000 		.4byte	0x662
 2934 0662 15       		.uleb128 0x15
 2935 0663 47010000 		.4byte	0x147
 2936 0667 71060000 		.4byte	0x671
 2937 066b 16       		.uleb128 0x16
 2938 066c 7C060000 		.4byte	0x67c
 2939 0670 00       		.byte	0
 2940 0671 10       		.uleb128 0x10
 2941 0672 04       		.byte	0x4
 2942 0673 77060000 		.4byte	0x677
 2943 0677 14       		.uleb128 0x14
 2944 0678 1B060000 		.4byte	0x61b
 2945 067c 14       		.uleb128 0x14
 2946 067d 71060000 		.4byte	0x671
 2947 0681 0C       		.uleb128 0xc
 2948 0682 1A0B0000 		.4byte	.LASF147
 2949 0686 28       		.byte	0x28
 2950 0687 03       		.byte	0x3
 2951 0688 36       		.byte	0x36
 2952 0689 06070000 		.4byte	0x706
 2953 068d 0B       		.uleb128 0xb
 2954 068e C80A0000 		.4byte	.LASF148
 2955 0692 03       		.byte	0x3
 2956 0693 3B       		.byte	0x3b
ARM GAS  C:\Users\giris\AppData\Local\Temp\cceloVpD.s 			page 77


 2957 0694 06070000 		.4byte	0x706
 2958 0698 00       		.byte	0
 2959 0699 0B       		.uleb128 0xb
 2960 069a A1050000 		.4byte	.LASF149
 2961 069e 03       		.byte	0x3
 2962 069f 40       		.byte	0x40
 2963 06a0 0B070000 		.4byte	0x70b
 2964 06a4 04       		.byte	0x4
 2965 06a5 0B       		.uleb128 0xb
 2966 06a6 9E020000 		.4byte	.LASF150
 2967 06aa 03       		.byte	0x3
 2968 06ab 45       		.byte	0x45
 2969 06ac 10070000 		.4byte	0x710
 2970 06b0 08       		.byte	0x8
 2971 06b1 0B       		.uleb128 0xb
 2972 06b2 0E0C0000 		.4byte	.LASF151
 2973 06b6 03       		.byte	0x3
 2974 06b7 4B       		.byte	0x4b
 2975 06b8 10070000 		.4byte	0x710
 2976 06bc 0C       		.byte	0xc
 2977 06bd 0B       		.uleb128 0xb
 2978 06be 6D040000 		.4byte	.LASF152
 2979 06c2 03       		.byte	0x3
 2980 06c3 50       		.byte	0x50
 2981 06c4 15070000 		.4byte	0x715
 2982 06c8 10       		.byte	0x10
 2983 06c9 0B       		.uleb128 0xb
 2984 06ca 380B0000 		.4byte	.LASF153
 2985 06ce 03       		.byte	0x3
 2986 06cf 55       		.byte	0x55
 2987 06d0 20070000 		.4byte	0x720
 2988 06d4 14       		.byte	0x14
 2989 06d5 0B       		.uleb128 0xb
 2990 06d6 3E0A0000 		.4byte	.LASF154
 2991 06da 03       		.byte	0x3
 2992 06db 5A       		.byte	0x5a
 2993 06dc 15070000 		.4byte	0x715
 2994 06e0 18       		.byte	0x18
 2995 06e1 0B       		.uleb128 0xb
 2996 06e2 EC0E0000 		.4byte	.LASF155
 2997 06e6 03       		.byte	0x3
 2998 06e7 5F       		.byte	0x5f
 2999 06e8 20070000 		.4byte	0x720
 3000 06ec 1C       		.byte	0x1c
 3001 06ed 0B       		.uleb128 0xb
 3002 06ee 980C0000 		.4byte	.LASF156
 3003 06f2 03       		.byte	0x3
 3004 06f3 65       		.byte	0x65
 3005 06f4 25070000 		.4byte	0x725
 3006 06f8 20       		.byte	0x20
 3007 06f9 0B       		.uleb128 0xb
 3008 06fa 4F000000 		.4byte	.LASF157
 3009 06fe 03       		.byte	0x3
 3010 06ff 6A       		.byte	0x6a
 3011 0700 2A070000 		.4byte	0x72a
 3012 0704 24       		.byte	0x24
 3013 0705 00       		.byte	0
ARM GAS  C:\Users\giris\AppData\Local\Temp\cceloVpD.s 			page 78


 3014 0706 14       		.uleb128 0x14
 3015 0707 26060000 		.4byte	0x626
 3016 070b 14       		.uleb128 0x14
 3017 070c 51060000 		.4byte	0x651
 3018 0710 14       		.uleb128 0x14
 3019 0711 BF030000 		.4byte	0x3bf
 3020 0715 14       		.uleb128 0x14
 3021 0716 6B010000 		.4byte	0x16b
 3022 071a 10       		.uleb128 0x10
 3023 071b 04       		.byte	0x4
 3024 071c CB030000 		.4byte	0x3cb
 3025 0720 14       		.uleb128 0x14
 3026 0721 1A070000 		.4byte	0x71a
 3027 0725 14       		.uleb128 0x14
 3028 0726 8C000000 		.4byte	0x8c
 3029 072a 14       		.uleb128 0x14
 3030 072b E1030000 		.4byte	0x3e1
 3031 072f 03       		.uleb128 0x3
 3032 0730 290B0000 		.4byte	.LASF158
 3033 0734 03       		.byte	0x3
 3034 0735 6D       		.byte	0x6d
 3035 0736 3A070000 		.4byte	0x73a
 3036 073a 14       		.uleb128 0x14
 3037 073b 81060000 		.4byte	0x681
 3038 073f 0C       		.uleb128 0xc
 3039 0740 89090000 		.4byte	.LASF159
 3040 0744 50       		.byte	0x50
 3041 0745 03       		.byte	0x3
 3042 0746 79       		.byte	0x79
 3043 0747 7C070000 		.4byte	0x77c
 3044 074b 0B       		.uleb128 0xb
 3045 074c 0C050000 		.4byte	.LASF95
 3046 0750 03       		.byte	0x3
 3047 0751 7F       		.byte	0x7f
 3048 0752 1B060000 		.4byte	0x61b
 3049 0756 00       		.byte	0
 3050 0757 0B       		.uleb128 0xb
 3051 0758 020E0000 		.4byte	.LASF160
 3052 075c 03       		.byte	0x3
 3053 075d 84       		.byte	0x84
 3054 075e 11040000 		.4byte	0x411
 3055 0762 44       		.byte	0x44
 3056 0763 17       		.uleb128 0x17
 3057 0764 61676500 		.ascii	"age\000"
 3058 0768 03       		.byte	0x3
 3059 0769 89       		.byte	0x89
 3060 076a 5E000000 		.4byte	0x5e
 3061 076e 48       		.byte	0x48
 3062 076f 0B       		.uleb128 0xb
 3063 0770 350C0000 		.4byte	.LASF161
 3064 0774 03       		.byte	0x3
 3065 0775 8E       		.byte	0x8e
 3066 0776 82070000 		.4byte	0x782
 3067 077a 4C       		.byte	0x4c
 3068 077b 00       		.byte	0
 3069 077c 10       		.uleb128 0x10
 3070 077d 04       		.byte	0x4
ARM GAS  C:\Users\giris\AppData\Local\Temp\cceloVpD.s 			page 79


 3071 077e 2F070000 		.4byte	0x72f
 3072 0782 14       		.uleb128 0x14
 3073 0783 7C070000 		.4byte	0x77c
 3074 0787 03       		.uleb128 0x3
 3075 0788 94090000 		.4byte	.LASF162
 3076 078c 03       		.byte	0x3
 3077 078d 91       		.byte	0x91
 3078 078e 3F070000 		.4byte	0x73f
 3079 0792 0A       		.uleb128 0xa
 3080 0793 18       		.byte	0x18
 3081 0794 11       		.byte	0x11
 3082 0795 21       		.byte	0x21
 3083 0796 B3070000 		.4byte	0x7b3
 3084 079a 0B       		.uleb128 0xb
 3085 079b 58000000 		.4byte	.LASF163
 3086 079f 11       		.byte	0x11
 3087 07a0 23       		.byte	0x23
 3088 07a1 5B030000 		.4byte	0x35b
 3089 07a5 00       		.byte	0
 3090 07a6 0B       		.uleb128 0xb
 3091 07a7 C20D0000 		.4byte	.LASF164
 3092 07ab 11       		.byte	0x11
 3093 07ac 24       		.byte	0x24
 3094 07ad 5B030000 		.4byte	0x35b
 3095 07b1 0C       		.byte	0xc
 3096 07b2 00       		.byte	0
 3097 07b3 03       		.uleb128 0x3
 3098 07b4 DB090000 		.4byte	.LASF165
 3099 07b8 11       		.byte	0x11
 3100 07b9 27       		.byte	0x27
 3101 07ba 92070000 		.4byte	0x792
 3102 07be 03       		.uleb128 0x3
 3103 07bf D30D0000 		.4byte	.LASF166
 3104 07c3 02       		.byte	0x2
 3105 07c4 26       		.byte	0x26
 3106 07c5 C9070000 		.4byte	0x7c9
 3107 07c9 10       		.uleb128 0x10
 3108 07ca 04       		.byte	0x4
 3109 07cb CF070000 		.4byte	0x7cf
 3110 07cf 15       		.uleb128 0x15
 3111 07d0 47010000 		.4byte	0x147
 3112 07d4 DE070000 		.4byte	0x7de
 3113 07d8 16       		.uleb128 0x16
 3114 07d9 E4070000 		.4byte	0x7e4
 3115 07dd 00       		.byte	0
 3116 07de 10       		.uleb128 0x10
 3117 07df 04       		.byte	0x4
 3118 07e0 B3070000 		.4byte	0x7b3
 3119 07e4 14       		.uleb128 0x14
 3120 07e5 DE070000 		.4byte	0x7de
 3121 07e9 03       		.uleb128 0x3
 3122 07ea 4D090000 		.4byte	.LASF167
 3123 07ee 02       		.byte	0x2
 3124 07ef 2C       		.byte	0x2c
 3125 07f0 F4070000 		.4byte	0x7f4
 3126 07f4 10       		.uleb128 0x10
 3127 07f5 04       		.byte	0x4
ARM GAS  C:\Users\giris\AppData\Local\Temp\cceloVpD.s 			page 80


 3128 07f6 FA070000 		.4byte	0x7fa
 3129 07fa 15       		.uleb128 0x15
 3130 07fb 47010000 		.4byte	0x147
 3131 07ff 09080000 		.4byte	0x809
 3132 0803 16       		.uleb128 0x16
 3133 0804 14080000 		.4byte	0x814
 3134 0808 00       		.byte	0
 3135 0809 10       		.uleb128 0x10
 3136 080a 04       		.byte	0x4
 3137 080b 0F080000 		.4byte	0x80f
 3138 080f 14       		.uleb128 0x14
 3139 0810 B3070000 		.4byte	0x7b3
 3140 0814 14       		.uleb128 0x14
 3141 0815 09080000 		.4byte	0x809
 3142 0819 0C       		.uleb128 0xc
 3143 081a 2B090000 		.4byte	.LASF168
 3144 081e 28       		.byte	0x28
 3145 081f 02       		.byte	0x2
 3146 0820 36       		.byte	0x36
 3147 0821 9E080000 		.4byte	0x89e
 3148 0825 0B       		.uleb128 0xb
 3149 0826 C80A0000 		.4byte	.LASF148
 3150 082a 02       		.byte	0x2
 3151 082b 3B       		.byte	0x3b
 3152 082c 9E080000 		.4byte	0x89e
 3153 0830 00       		.byte	0
 3154 0831 0B       		.uleb128 0xb
 3155 0832 A1050000 		.4byte	.LASF149
 3156 0836 02       		.byte	0x2
 3157 0837 40       		.byte	0x40
 3158 0838 A3080000 		.4byte	0x8a3
 3159 083c 04       		.byte	0x4
 3160 083d 0B       		.uleb128 0xb
 3161 083e 9E020000 		.4byte	.LASF150
 3162 0842 02       		.byte	0x2
 3163 0843 45       		.byte	0x45
 3164 0844 10070000 		.4byte	0x710
 3165 0848 08       		.byte	0x8
 3166 0849 0B       		.uleb128 0xb
 3167 084a 0E0C0000 		.4byte	.LASF151
 3168 084e 02       		.byte	0x2
 3169 084f 4B       		.byte	0x4b
 3170 0850 10070000 		.4byte	0x710
 3171 0854 0C       		.byte	0xc
 3172 0855 0B       		.uleb128 0xb
 3173 0856 6D040000 		.4byte	.LASF152
 3174 085a 02       		.byte	0x2
 3175 085b 50       		.byte	0x50
 3176 085c 15070000 		.4byte	0x715
 3177 0860 10       		.byte	0x10
 3178 0861 0B       		.uleb128 0xb
 3179 0862 380B0000 		.4byte	.LASF153
 3180 0866 02       		.byte	0x2
 3181 0867 55       		.byte	0x55
 3182 0868 20070000 		.4byte	0x720
 3183 086c 14       		.byte	0x14
 3184 086d 0B       		.uleb128 0xb
ARM GAS  C:\Users\giris\AppData\Local\Temp\cceloVpD.s 			page 81


 3185 086e 3E0A0000 		.4byte	.LASF154
 3186 0872 02       		.byte	0x2
 3187 0873 5A       		.byte	0x5a
 3188 0874 15070000 		.4byte	0x715
 3189 0878 18       		.byte	0x18
 3190 0879 0B       		.uleb128 0xb
 3191 087a EC0E0000 		.4byte	.LASF155
 3192 087e 02       		.byte	0x2
 3193 087f 5F       		.byte	0x5f
 3194 0880 20070000 		.4byte	0x720
 3195 0884 1C       		.byte	0x1c
 3196 0885 0B       		.uleb128 0xb
 3197 0886 980C0000 		.4byte	.LASF156
 3198 088a 02       		.byte	0x2
 3199 088b 65       		.byte	0x65
 3200 088c 25070000 		.4byte	0x725
 3201 0890 20       		.byte	0x20
 3202 0891 0B       		.uleb128 0xb
 3203 0892 4F000000 		.4byte	.LASF157
 3204 0896 02       		.byte	0x2
 3205 0897 6A       		.byte	0x6a
 3206 0898 2A070000 		.4byte	0x72a
 3207 089c 24       		.byte	0x24
 3208 089d 00       		.byte	0
 3209 089e 14       		.uleb128 0x14
 3210 089f BE070000 		.4byte	0x7be
 3211 08a3 14       		.uleb128 0x14
 3212 08a4 E9070000 		.4byte	0x7e9
 3213 08a8 03       		.uleb128 0x3
 3214 08a9 3C090000 		.4byte	.LASF169
 3215 08ad 02       		.byte	0x2
 3216 08ae 6D       		.byte	0x6d
 3217 08af B3080000 		.4byte	0x8b3
 3218 08b3 14       		.uleb128 0x14
 3219 08b4 19080000 		.4byte	0x819
 3220 08b8 0C       		.uleb128 0xc
 3221 08b9 FD030000 		.4byte	.LASF170
 3222 08bd 24       		.byte	0x24
 3223 08be 02       		.byte	0x2
 3224 08bf 79       		.byte	0x79
 3225 08c0 F5080000 		.4byte	0x8f5
 3226 08c4 0B       		.uleb128 0xb
 3227 08c5 0C050000 		.4byte	.LASF95
 3228 08c9 02       		.byte	0x2
 3229 08ca 7F       		.byte	0x7f
 3230 08cb B3070000 		.4byte	0x7b3
 3231 08cf 00       		.byte	0
 3232 08d0 0B       		.uleb128 0xb
 3233 08d1 020E0000 		.4byte	.LASF160
 3234 08d5 02       		.byte	0x2
 3235 08d6 84       		.byte	0x84
 3236 08d7 11040000 		.4byte	0x411
 3237 08db 18       		.byte	0x18
 3238 08dc 17       		.uleb128 0x17
 3239 08dd 61676500 		.ascii	"age\000"
 3240 08e1 02       		.byte	0x2
 3241 08e2 89       		.byte	0x89
ARM GAS  C:\Users\giris\AppData\Local\Temp\cceloVpD.s 			page 82


 3242 08e3 5E000000 		.4byte	0x5e
 3243 08e7 1C       		.byte	0x1c
 3244 08e8 0B       		.uleb128 0xb
 3245 08e9 350C0000 		.4byte	.LASF161
 3246 08ed 02       		.byte	0x2
 3247 08ee 8E       		.byte	0x8e
 3248 08ef FB080000 		.4byte	0x8fb
 3249 08f3 20       		.byte	0x20
 3250 08f4 00       		.byte	0
 3251 08f5 10       		.uleb128 0x10
 3252 08f6 04       		.byte	0x4
 3253 08f7 A8080000 		.4byte	0x8a8
 3254 08fb 14       		.uleb128 0x14
 3255 08fc F5080000 		.4byte	0x8f5
 3256 0900 03       		.uleb128 0x3
 3257 0901 A10D0000 		.4byte	.LASF171
 3258 0905 02       		.byte	0x2
 3259 0906 91       		.byte	0x91
 3260 0907 B8080000 		.4byte	0x8b8
 3261 090b 18       		.uleb128 0x18
 3262 090c 42010000 		.4byte	.LASF176
 3263 0910 02       		.byte	0x2
 3264 0911 3501     		.2byte	0x135
 3265 0913 47010000 		.4byte	0x147
 3266 0917 03       		.byte	0x3
 3267 0918 67090000 		.4byte	0x967
 3268 091c 19       		.uleb128 0x19
 3269 091d 570C0000 		.4byte	.LASF172
 3270 0921 02       		.byte	0x2
 3271 0922 3501     		.2byte	0x135
 3272 0924 6D090000 		.4byte	0x96d
 3273 0928 19       		.uleb128 0x19
 3274 0929 0C050000 		.4byte	.LASF95
 3275 092d 02       		.byte	0x2
 3276 092e 3501     		.2byte	0x135
 3277 0930 0F080000 		.4byte	0x80f
 3278 0934 1A       		.uleb128 0x1a
 3279 0935 72657400 		.ascii	"ret\000"
 3280 0939 02       		.byte	0x2
 3281 093a 3801     		.2byte	0x138
 3282 093c 47010000 		.4byte	0x147
 3283 0940 1B       		.uleb128 0x1b
 3284 0941 860D0000 		.4byte	.LASF173
 3285 0945 02       		.byte	0x2
 3286 0946 3901     		.2byte	0x139
 3287 0948 6B010000 		.4byte	0x16b
 3288 094c 1B       		.uleb128 0x1b
 3289 094d AC000000 		.4byte	.LASF174
 3290 0951 02       		.byte	0x2
 3291 0952 4301     		.2byte	0x143
 3292 0954 1A070000 		.4byte	0x71a
 3293 0958 1C       		.uleb128 0x1c
 3294 0959 1B       		.uleb128 0x1b
 3295 095a FD0C0000 		.4byte	.LASF175
 3296 095e 02       		.byte	0x2
 3297 095f 4801     		.2byte	0x148
 3298 0961 B3030000 		.4byte	0x3b3
ARM GAS  C:\Users\giris\AppData\Local\Temp\cceloVpD.s 			page 83


 3299 0965 00       		.byte	0
 3300 0966 00       		.byte	0
 3301 0967 10       		.uleb128 0x10
 3302 0968 04       		.byte	0x4
 3303 0969 00090000 		.4byte	0x900
 3304 096d 14       		.uleb128 0x14
 3305 096e 67090000 		.4byte	0x967
 3306 0972 18       		.uleb128 0x18
 3307 0973 FB0B0000 		.4byte	.LASF177
 3308 0977 02       		.byte	0x2
 3309 0978 1201     		.2byte	0x112
 3310 097a B3070000 		.4byte	0x7b3
 3311 097e 03       		.byte	0x3
 3312 097f 90090000 		.4byte	0x990
 3313 0983 19       		.uleb128 0x19
 3314 0984 570C0000 		.4byte	.LASF172
 3315 0988 02       		.byte	0x2
 3316 0989 1201     		.2byte	0x112
 3317 098b 9B090000 		.4byte	0x99b
 3318 098f 00       		.byte	0
 3319 0990 10       		.uleb128 0x10
 3320 0991 04       		.byte	0x4
 3321 0992 96090000 		.4byte	0x996
 3322 0996 14       		.uleb128 0x14
 3323 0997 00090000 		.4byte	0x900
 3324 099b 14       		.uleb128 0x14
 3325 099c 90090000 		.4byte	0x990
 3326 09a0 18       		.uleb128 0x18
 3327 09a1 670E0000 		.4byte	.LASF178
 3328 09a5 03       		.byte	0x3
 3329 09a6 1201     		.2byte	0x112
 3330 09a8 1B060000 		.4byte	0x61b
 3331 09ac 03       		.byte	0x3
 3332 09ad BE090000 		.4byte	0x9be
 3333 09b1 19       		.uleb128 0x19
 3334 09b2 570C0000 		.4byte	.LASF172
 3335 09b6 03       		.byte	0x3
 3336 09b7 1201     		.2byte	0x112
 3337 09b9 C9090000 		.4byte	0x9c9
 3338 09bd 00       		.byte	0
 3339 09be 10       		.uleb128 0x10
 3340 09bf 04       		.byte	0x4
 3341 09c0 C4090000 		.4byte	0x9c4
 3342 09c4 14       		.uleb128 0x14
 3343 09c5 87070000 		.4byte	0x787
 3344 09c9 14       		.uleb128 0x14
 3345 09ca BE090000 		.4byte	0x9be
 3346 09ce 18       		.uleb128 0x18
 3347 09cf 3D0C0000 		.4byte	.LASF179
 3348 09d3 03       		.byte	0x3
 3349 09d4 3501     		.2byte	0x135
 3350 09d6 47010000 		.4byte	0x147
 3351 09da 03       		.byte	0x3
 3352 09db 2A0A0000 		.4byte	0xa2a
 3353 09df 19       		.uleb128 0x19
 3354 09e0 570C0000 		.4byte	.LASF172
 3355 09e4 03       		.byte	0x3
ARM GAS  C:\Users\giris\AppData\Local\Temp\cceloVpD.s 			page 84


 3356 09e5 3501     		.2byte	0x135
 3357 09e7 300A0000 		.4byte	0xa30
 3358 09eb 19       		.uleb128 0x19
 3359 09ec 0C050000 		.4byte	.LASF95
 3360 09f0 03       		.byte	0x3
 3361 09f1 3501     		.2byte	0x135
 3362 09f3 77060000 		.4byte	0x677
 3363 09f7 1A       		.uleb128 0x1a
 3364 09f8 72657400 		.ascii	"ret\000"
 3365 09fc 03       		.byte	0x3
 3366 09fd 3801     		.2byte	0x138
 3367 09ff 47010000 		.4byte	0x147
 3368 0a03 1B       		.uleb128 0x1b
 3369 0a04 860D0000 		.4byte	.LASF173
 3370 0a08 03       		.byte	0x3
 3371 0a09 3901     		.2byte	0x139
 3372 0a0b 6B010000 		.4byte	0x16b
 3373 0a0f 1B       		.uleb128 0x1b
 3374 0a10 AC000000 		.4byte	.LASF174
 3375 0a14 03       		.byte	0x3
 3376 0a15 4301     		.2byte	0x143
 3377 0a17 1A070000 		.4byte	0x71a
 3378 0a1b 1C       		.uleb128 0x1c
 3379 0a1c 1B       		.uleb128 0x1b
 3380 0a1d FD0C0000 		.4byte	.LASF175
 3381 0a21 03       		.byte	0x3
 3382 0a22 4801     		.2byte	0x148
 3383 0a24 B3030000 		.4byte	0x3b3
 3384 0a28 00       		.byte	0
 3385 0a29 00       		.byte	0
 3386 0a2a 10       		.uleb128 0x10
 3387 0a2b 04       		.byte	0x4
 3388 0a2c 87070000 		.4byte	0x787
 3389 0a30 14       		.uleb128 0x14
 3390 0a31 2A0A0000 		.4byte	0xa2a
 3391 0a35 1D       		.uleb128 0x1d
 3392 0a36 04030000 		.4byte	.LASF181
 3393 0a3a 01       		.byte	0x1
 3394 0a3b 9101     		.2byte	0x191
 3395 0a3d 00000000 		.4byte	.LFB158
 3396 0a41 8C000000 		.4byte	.LFE158-.LFB158
 3397 0a45 01       		.uleb128 0x1
 3398 0a46 9C       		.byte	0x9c
 3399 0a47 DE0A0000 		.4byte	0xade
 3400 0a4b 1B       		.uleb128 0x1b
 3401 0a4c 26040000 		.4byte	.LASF180
 3402 0a50 01       		.byte	0x1
 3403 0a51 9401     		.2byte	0x194
 3404 0a53 DE0A0000 		.4byte	0xade
 3405 0a57 1E       		.uleb128 0x1e
 3406 0a58 EA0A0000 		.4byte	.LASF183
 3407 0a5c 01       		.byte	0x1
 3408 0a5d 9601     		.2byte	0x196
 3409 0a5f B3070000 		.4byte	0x7b3
 3410 0a63 02       		.uleb128 0x2
 3411 0a64 91       		.byte	0x91
 3412 0a65 50       		.sleb128 -48
ARM GAS  C:\Users\giris\AppData\Local\Temp\cceloVpD.s 			page 85


 3413 0a66 1F       		.uleb128 0x1f
 3414 0a67 72090000 		.4byte	0x972
 3415 0a6b 04000000 		.4byte	.LBB76
 3416 0a6f 12000000 		.4byte	.LBE76-.LBB76
 3417 0a73 01       		.byte	0x1
 3418 0a74 9601     		.2byte	0x196
 3419 0a76 800A0000 		.4byte	0xa80
 3420 0a7a 20       		.uleb128 0x20
 3421 0a7b 83090000 		.4byte	0x983
 3422 0a7f 00       		.byte	0
 3423 0a80 21       		.uleb128 0x21
 3424 0a81 0B090000 		.4byte	0x90b
 3425 0a85 3E000000 		.4byte	.LBB78
 3426 0a89 44000000 		.4byte	.LBE78-.LBB78
 3427 0a8d 01       		.byte	0x1
 3428 0a8e 9E01     		.2byte	0x19e
 3429 0a90 22       		.uleb128 0x22
 3430 0a91 28090000 		.4byte	0x928
 3431 0a95 03       		.uleb128 0x3
 3432 0a96 91       		.byte	0x91
 3433 0a97 B87F     		.sleb128 -72
 3434 0a99 20       		.uleb128 0x20
 3435 0a9a 1C090000 		.4byte	0x91c
 3436 0a9e 23       		.uleb128 0x23
 3437 0a9f 3E000000 		.4byte	.LBB79
 3438 0aa3 44000000 		.4byte	.LBE79-.LBB79
 3439 0aa7 24       		.uleb128 0x24
 3440 0aa8 34090000 		.4byte	0x934
 3441 0aac 00       		.byte	0
 3442 0aad 25       		.uleb128 0x25
 3443 0aae 40090000 		.4byte	0x940
 3444 0ab2 00000000 		.4byte	.LLST0
 3445 0ab6 25       		.uleb128 0x25
 3446 0ab7 4C090000 		.4byte	0x94c
 3447 0abb 36000000 		.4byte	.LLST1
 3448 0abf 23       		.uleb128 0x23
 3449 0ac0 68000000 		.4byte	.LBB80
 3450 0ac4 0A000000 		.4byte	.LBE80-.LBB80
 3451 0ac8 25       		.uleb128 0x25
 3452 0ac9 59090000 		.4byte	0x959
 3453 0acd 49000000 		.4byte	.LLST2
 3454 0ad1 26       		.uleb128 0x26
 3455 0ad2 72000000 		.4byte	.LVL6
 3456 0ad6 C11A0000 		.4byte	0x1ac1
 3457 0ada 00       		.byte	0
 3458 0adb 00       		.byte	0
 3459 0adc 00       		.byte	0
 3460 0add 00       		.byte	0
 3461 0ade 0E       		.uleb128 0xe
 3462 0adf 97000000 		.4byte	0x97
 3463 0ae3 EE0A0000 		.4byte	0xaee
 3464 0ae7 27       		.uleb128 0x27
 3465 0ae8 7D010000 		.4byte	0x17d
 3466 0aec 63       		.byte	0x63
 3467 0aed 00       		.byte	0
 3468 0aee 1D       		.uleb128 0x1d
 3469 0aef AE0D0000 		.4byte	.LASF182
ARM GAS  C:\Users\giris\AppData\Local\Temp\cceloVpD.s 			page 86


 3470 0af3 01       		.byte	0x1
 3471 0af4 A101     		.2byte	0x1a1
 3472 0af6 00000000 		.4byte	.LFB159
 3473 0afa A8000000 		.4byte	.LFE159-.LFB159
 3474 0afe 01       		.uleb128 0x1
 3475 0aff 9C       		.byte	0x9c
 3476 0b00 8B0B0000 		.4byte	0xb8b
 3477 0b04 1E       		.uleb128 0x1e
 3478 0b05 EA0A0000 		.4byte	.LASF183
 3479 0b09 01       		.byte	0x1
 3480 0b0a A601     		.2byte	0x1a6
 3481 0b0c B3070000 		.4byte	0x7b3
 3482 0b10 02       		.uleb128 0x2
 3483 0b11 91       		.byte	0x91
 3484 0b12 50       		.sleb128 -48
 3485 0b13 1F       		.uleb128 0x1f
 3486 0b14 72090000 		.4byte	0x972
 3487 0b18 04000000 		.4byte	.LBB81
 3488 0b1c 10000000 		.4byte	.LBE81-.LBB81
 3489 0b20 01       		.byte	0x1
 3490 0b21 A601     		.2byte	0x1a6
 3491 0b23 2D0B0000 		.4byte	0xb2d
 3492 0b27 20       		.uleb128 0x20
 3493 0b28 83090000 		.4byte	0x983
 3494 0b2c 00       		.byte	0
 3495 0b2d 21       		.uleb128 0x21
 3496 0b2e 0B090000 		.4byte	0x90b
 3497 0b32 60000000 		.4byte	.LBB83
 3498 0b36 40000000 		.4byte	.LBE83-.LBB83
 3499 0b3a 01       		.byte	0x1
 3500 0b3b C301     		.2byte	0x1c3
 3501 0b3d 22       		.uleb128 0x22
 3502 0b3e 28090000 		.4byte	0x928
 3503 0b42 03       		.uleb128 0x3
 3504 0b43 91       		.byte	0x91
 3505 0b44 B87F     		.sleb128 -72
 3506 0b46 20       		.uleb128 0x20
 3507 0b47 1C090000 		.4byte	0x91c
 3508 0b4b 23       		.uleb128 0x23
 3509 0b4c 60000000 		.4byte	.LBB84
 3510 0b50 40000000 		.4byte	.LBE84-.LBB84
 3511 0b54 24       		.uleb128 0x24
 3512 0b55 34090000 		.4byte	0x934
 3513 0b59 00       		.byte	0
 3514 0b5a 25       		.uleb128 0x25
 3515 0b5b 40090000 		.4byte	0x940
 3516 0b5f 62000000 		.4byte	.LLST3
 3517 0b63 25       		.uleb128 0x25
 3518 0b64 4C090000 		.4byte	0x94c
 3519 0b68 98000000 		.4byte	.LLST4
 3520 0b6c 23       		.uleb128 0x23
 3521 0b6d 86000000 		.4byte	.LBB85
 3522 0b71 0A000000 		.4byte	.LBE85-.LBB85
 3523 0b75 25       		.uleb128 0x25
 3524 0b76 59090000 		.4byte	0x959
 3525 0b7a AB000000 		.4byte	.LLST5
 3526 0b7e 26       		.uleb128 0x26
ARM GAS  C:\Users\giris\AppData\Local\Temp\cceloVpD.s 			page 87


 3527 0b7f 90000000 		.4byte	.LVL18
 3528 0b83 C11A0000 		.4byte	0x1ac1
 3529 0b87 00       		.byte	0
 3530 0b88 00       		.byte	0
 3531 0b89 00       		.byte	0
 3532 0b8a 00       		.byte	0
 3533 0b8b 1D       		.uleb128 0x1d
 3534 0b8c A9020000 		.4byte	.LASF184
 3535 0b90 01       		.byte	0x1
 3536 0b91 C601     		.2byte	0x1c6
 3537 0b93 00000000 		.4byte	.LFB160
 3538 0b97 6C000000 		.4byte	.LFE160-.LFB160
 3539 0b9b 01       		.uleb128 0x1
 3540 0b9c 9C       		.byte	0x9c
 3541 0b9d 280C0000 		.4byte	0xc28
 3542 0ba1 1E       		.uleb128 0x1e
 3543 0ba2 51030000 		.4byte	.LASF185
 3544 0ba6 01       		.byte	0x1
 3545 0ba7 CA01     		.2byte	0x1ca
 3546 0ba9 B3070000 		.4byte	0x7b3
 3547 0bad 02       		.uleb128 0x2
 3548 0bae 91       		.byte	0x91
 3549 0baf 50       		.sleb128 -48
 3550 0bb0 1F       		.uleb128 0x1f
 3551 0bb1 72090000 		.4byte	0x972
 3552 0bb5 04000000 		.4byte	.LBB86
 3553 0bb9 22000000 		.4byte	.LBE86-.LBB86
 3554 0bbd 01       		.byte	0x1
 3555 0bbe CA01     		.2byte	0x1ca
 3556 0bc0 CA0B0000 		.4byte	0xbca
 3557 0bc4 20       		.uleb128 0x20
 3558 0bc5 83090000 		.4byte	0x983
 3559 0bc9 00       		.byte	0
 3560 0bca 21       		.uleb128 0x21
 3561 0bcb 0B090000 		.4byte	0x90b
 3562 0bcf 26000000 		.4byte	.LBB88
 3563 0bd3 3C000000 		.4byte	.LBE88-.LBB88
 3564 0bd7 01       		.byte	0x1
 3565 0bd8 CC01     		.2byte	0x1cc
 3566 0bda 22       		.uleb128 0x22
 3567 0bdb 28090000 		.4byte	0x928
 3568 0bdf 03       		.uleb128 0x3
 3569 0be0 91       		.byte	0x91
 3570 0be1 B87F     		.sleb128 -72
 3571 0be3 20       		.uleb128 0x20
 3572 0be4 1C090000 		.4byte	0x91c
 3573 0be8 23       		.uleb128 0x23
 3574 0be9 26000000 		.4byte	.LBB89
 3575 0bed 3C000000 		.4byte	.LBE89-.LBB89
 3576 0bf1 24       		.uleb128 0x24
 3577 0bf2 34090000 		.4byte	0x934
 3578 0bf6 00       		.byte	0
 3579 0bf7 25       		.uleb128 0x25
 3580 0bf8 40090000 		.4byte	0x940
 3581 0bfc C4000000 		.4byte	.LLST6
 3582 0c00 25       		.uleb128 0x25
 3583 0c01 4C090000 		.4byte	0x94c
ARM GAS  C:\Users\giris\AppData\Local\Temp\cceloVpD.s 			page 88


 3584 0c05 FA000000 		.4byte	.LLST7
 3585 0c09 23       		.uleb128 0x23
 3586 0c0a 48000000 		.4byte	.LBB90
 3587 0c0e 0A000000 		.4byte	.LBE90-.LBB90
 3588 0c12 25       		.uleb128 0x25
 3589 0c13 59090000 		.4byte	0x959
 3590 0c17 0D010000 		.4byte	.LLST8
 3591 0c1b 26       		.uleb128 0x26
 3592 0c1c 52000000 		.4byte	.LVL29
 3593 0c20 C11A0000 		.4byte	0x1ac1
 3594 0c24 00       		.byte	0
 3595 0c25 00       		.byte	0
 3596 0c26 00       		.byte	0
 3597 0c27 00       		.byte	0
 3598 0c28 1D       		.uleb128 0x1d
 3599 0c29 400D0000 		.4byte	.LASF186
 3600 0c2d 01       		.byte	0x1
 3601 0c2e D001     		.2byte	0x1d0
 3602 0c30 00000000 		.4byte	.LFB161
 3603 0c34 C4000000 		.4byte	.LFE161-.LFB161
 3604 0c38 01       		.uleb128 0x1
 3605 0c39 9C       		.byte	0x9c
 3606 0c3a C50C0000 		.4byte	0xcc5
 3607 0c3e 1E       		.uleb128 0x1e
 3608 0c3f 25020000 		.4byte	.LASF187
 3609 0c43 01       		.byte	0x1
 3610 0c44 D401     		.2byte	0x1d4
 3611 0c46 B3070000 		.4byte	0x7b3
 3612 0c4a 02       		.uleb128 0x2
 3613 0c4b 91       		.byte	0x91
 3614 0c4c 50       		.sleb128 -48
 3615 0c4d 1F       		.uleb128 0x1f
 3616 0c4e 72090000 		.4byte	0x972
 3617 0c52 04000000 		.4byte	.LBB91
 3618 0c56 10000000 		.4byte	.LBE91-.LBB91
 3619 0c5a 01       		.byte	0x1
 3620 0c5b D401     		.2byte	0x1d4
 3621 0c5d 670C0000 		.4byte	0xc67
 3622 0c61 20       		.uleb128 0x20
 3623 0c62 83090000 		.4byte	0x983
 3624 0c66 00       		.byte	0
 3625 0c67 21       		.uleb128 0x21
 3626 0c68 0B090000 		.4byte	0x90b
 3627 0c6c 74000000 		.4byte	.LBB93
 3628 0c70 40000000 		.4byte	.LBE93-.LBB93
 3629 0c74 01       		.byte	0x1
 3630 0c75 E001     		.2byte	0x1e0
 3631 0c77 22       		.uleb128 0x22
 3632 0c78 28090000 		.4byte	0x928
 3633 0c7c 03       		.uleb128 0x3
 3634 0c7d 91       		.byte	0x91
 3635 0c7e B87F     		.sleb128 -72
 3636 0c80 20       		.uleb128 0x20
 3637 0c81 1C090000 		.4byte	0x91c
 3638 0c85 23       		.uleb128 0x23
 3639 0c86 74000000 		.4byte	.LBB94
 3640 0c8a 40000000 		.4byte	.LBE94-.LBB94
ARM GAS  C:\Users\giris\AppData\Local\Temp\cceloVpD.s 			page 89


 3641 0c8e 24       		.uleb128 0x24
 3642 0c8f 34090000 		.4byte	0x934
 3643 0c93 00       		.byte	0
 3644 0c94 25       		.uleb128 0x25
 3645 0c95 40090000 		.4byte	0x940
 3646 0c99 26010000 		.4byte	.LLST9
 3647 0c9d 25       		.uleb128 0x25
 3648 0c9e 4C090000 		.4byte	0x94c
 3649 0ca2 5C010000 		.4byte	.LLST10
 3650 0ca6 23       		.uleb128 0x23
 3651 0ca7 9A000000 		.4byte	.LBB95
 3652 0cab 0A000000 		.4byte	.LBE95-.LBB95
 3653 0caf 25       		.uleb128 0x25
 3654 0cb0 59090000 		.4byte	0x959
 3655 0cb4 6F010000 		.4byte	.LLST11
 3656 0cb8 26       		.uleb128 0x26
 3657 0cb9 A4000000 		.4byte	.LVL41
 3658 0cbd C11A0000 		.4byte	0x1ac1
 3659 0cc1 00       		.byte	0
 3660 0cc2 00       		.byte	0
 3661 0cc3 00       		.byte	0
 3662 0cc4 00       		.byte	0
 3663 0cc5 1D       		.uleb128 0x1d
 3664 0cc6 1D0C0000 		.4byte	.LASF188
 3665 0cca 01       		.byte	0x1
 3666 0ccb 2B01     		.2byte	0x12b
 3667 0ccd 00000000 		.4byte	.LFB148
 3668 0cd1 08000000 		.4byte	.LFE148-.LFB148
 3669 0cd5 01       		.uleb128 0x1
 3670 0cd6 9C       		.byte	0x9c
 3671 0cd7 E50C0000 		.4byte	0xce5
 3672 0cdb 26       		.uleb128 0x26
 3673 0cdc 06000000 		.4byte	.LVL47
 3674 0ce0 280C0000 		.4byte	0xc28
 3675 0ce4 00       		.byte	0
 3676 0ce5 1D       		.uleb128 0x1d
 3677 0ce6 D2040000 		.4byte	.LASF189
 3678 0cea 01       		.byte	0x1
 3679 0ceb E301     		.2byte	0x1e3
 3680 0ced 00000000 		.4byte	.LFB162
 3681 0cf1 9C000000 		.4byte	.LFE162-.LFB162
 3682 0cf5 01       		.uleb128 0x1
 3683 0cf6 9C       		.byte	0x9c
 3684 0cf7 8F0D0000 		.4byte	0xd8f
 3685 0cfb 1E       		.uleb128 0x1e
 3686 0cfc 350D0000 		.4byte	.LASF190
 3687 0d00 01       		.byte	0x1
 3688 0d01 E501     		.2byte	0x1e5
 3689 0d03 B3070000 		.4byte	0x7b3
 3690 0d07 02       		.uleb128 0x2
 3691 0d08 91       		.byte	0x91
 3692 0d09 50       		.sleb128 -48
 3693 0d0a 1F       		.uleb128 0x1f
 3694 0d0b 72090000 		.4byte	0x972
 3695 0d0f 04000000 		.4byte	.LBB96
 3696 0d13 10000000 		.4byte	.LBE96-.LBB96
 3697 0d17 01       		.byte	0x1
ARM GAS  C:\Users\giris\AppData\Local\Temp\cceloVpD.s 			page 90


 3698 0d18 E501     		.2byte	0x1e5
 3699 0d1a 240D0000 		.4byte	0xd24
 3700 0d1e 20       		.uleb128 0x20
 3701 0d1f 83090000 		.4byte	0x983
 3702 0d23 00       		.byte	0
 3703 0d24 1F       		.uleb128 0x1f
 3704 0d25 0B090000 		.4byte	0x90b
 3705 0d29 50000000 		.4byte	.LBB98
 3706 0d2d 40000000 		.4byte	.LBE98-.LBB98
 3707 0d31 01       		.byte	0x1
 3708 0d32 F601     		.2byte	0x1f6
 3709 0d34 850D0000 		.4byte	0xd85
 3710 0d38 22       		.uleb128 0x22
 3711 0d39 28090000 		.4byte	0x928
 3712 0d3d 03       		.uleb128 0x3
 3713 0d3e 91       		.byte	0x91
 3714 0d3f B87F     		.sleb128 -72
 3715 0d41 20       		.uleb128 0x20
 3716 0d42 1C090000 		.4byte	0x91c
 3717 0d46 23       		.uleb128 0x23
 3718 0d47 50000000 		.4byte	.LBB99
 3719 0d4b 40000000 		.4byte	.LBE99-.LBB99
 3720 0d4f 24       		.uleb128 0x24
 3721 0d50 34090000 		.4byte	0x934
 3722 0d54 00       		.byte	0
 3723 0d55 25       		.uleb128 0x25
 3724 0d56 40090000 		.4byte	0x940
 3725 0d5a 88010000 		.4byte	.LLST12
 3726 0d5e 25       		.uleb128 0x25
 3727 0d5f 4C090000 		.4byte	0x94c
 3728 0d63 BE010000 		.4byte	.LLST13
 3729 0d67 23       		.uleb128 0x23
 3730 0d68 76000000 		.4byte	.LBB100
 3731 0d6c 0A000000 		.4byte	.LBE100-.LBB100
 3732 0d70 25       		.uleb128 0x25
 3733 0d71 59090000 		.4byte	0x959
 3734 0d75 D1010000 		.4byte	.LLST14
 3735 0d79 26       		.uleb128 0x26
 3736 0d7a 80000000 		.4byte	.LVL54
 3737 0d7e C11A0000 		.4byte	0x1ac1
 3738 0d82 00       		.byte	0
 3739 0d83 00       		.byte	0
 3740 0d84 00       		.byte	0
 3741 0d85 26       		.uleb128 0x26
 3742 0d86 40000000 		.4byte	.LVL50
 3743 0d8a 8B0B0000 		.4byte	0xb8b
 3744 0d8e 00       		.byte	0
 3745 0d8f 1D       		.uleb128 0x1d
 3746 0d90 0A090000 		.4byte	.LASF191
 3747 0d94 01       		.byte	0x1
 3748 0d95 F901     		.2byte	0x1f9
 3749 0d97 00000000 		.4byte	.LFB163
 3750 0d9b A0000000 		.4byte	.LFE163-.LFB163
 3751 0d9f 01       		.uleb128 0x1
 3752 0da0 9C       		.byte	0x9c
 3753 0da1 420E0000 		.4byte	0xe42
 3754 0da5 1E       		.uleb128 0x1e
ARM GAS  C:\Users\giris\AppData\Local\Temp\cceloVpD.s 			page 91


 3755 0da6 D30E0000 		.4byte	.LASF192
 3756 0daa 01       		.byte	0x1
 3757 0dab FB01     		.2byte	0x1fb
 3758 0dad B3070000 		.4byte	0x7b3
 3759 0db1 02       		.uleb128 0x2
 3760 0db2 91       		.byte	0x91
 3761 0db3 50       		.sleb128 -48
 3762 0db4 1F       		.uleb128 0x1f
 3763 0db5 72090000 		.4byte	0x972
 3764 0db9 04000000 		.4byte	.LBB101
 3765 0dbd 10000000 		.4byte	.LBE101-.LBB101
 3766 0dc1 01       		.byte	0x1
 3767 0dc2 FB01     		.2byte	0x1fb
 3768 0dc4 CE0D0000 		.4byte	0xdce
 3769 0dc8 20       		.uleb128 0x20
 3770 0dc9 83090000 		.4byte	0x983
 3771 0dcd 00       		.byte	0
 3772 0dce 1F       		.uleb128 0x1f
 3773 0dcf 0B090000 		.4byte	0x90b
 3774 0dd3 54000000 		.4byte	.LBB103
 3775 0dd7 40000000 		.4byte	.LBE103-.LBB103
 3776 0ddb 01       		.byte	0x1
 3777 0ddc 0D02     		.2byte	0x20d
 3778 0dde 2F0E0000 		.4byte	0xe2f
 3779 0de2 22       		.uleb128 0x22
 3780 0de3 28090000 		.4byte	0x928
 3781 0de7 03       		.uleb128 0x3
 3782 0de8 91       		.byte	0x91
 3783 0de9 B87F     		.sleb128 -72
 3784 0deb 20       		.uleb128 0x20
 3785 0dec 1C090000 		.4byte	0x91c
 3786 0df0 23       		.uleb128 0x23
 3787 0df1 54000000 		.4byte	.LBB104
 3788 0df5 40000000 		.4byte	.LBE104-.LBB104
 3789 0df9 24       		.uleb128 0x24
 3790 0dfa 34090000 		.4byte	0x934
 3791 0dfe 00       		.byte	0
 3792 0dff 25       		.uleb128 0x25
 3793 0e00 40090000 		.4byte	0x940
 3794 0e04 EA010000 		.4byte	.LLST15
 3795 0e08 25       		.uleb128 0x25
 3796 0e09 4C090000 		.4byte	0x94c
 3797 0e0d 20020000 		.4byte	.LLST16
 3798 0e11 23       		.uleb128 0x23
 3799 0e12 7A000000 		.4byte	.LBB105
 3800 0e16 0A000000 		.4byte	.LBE105-.LBB105
 3801 0e1a 25       		.uleb128 0x25
 3802 0e1b 59090000 		.4byte	0x959
 3803 0e1f 33020000 		.4byte	.LLST17
 3804 0e23 26       		.uleb128 0x26
 3805 0e24 84000000 		.4byte	.LVL67
 3806 0e28 C11A0000 		.4byte	0x1ac1
 3807 0e2c 00       		.byte	0
 3808 0e2d 00       		.byte	0
 3809 0e2e 00       		.byte	0
 3810 0e2f 26       		.uleb128 0x26
 3811 0e30 40000000 		.4byte	.LVL62
ARM GAS  C:\Users\giris\AppData\Local\Temp\cceloVpD.s 			page 92


 3812 0e34 E50C0000 		.4byte	0xce5
 3813 0e38 26       		.uleb128 0x26
 3814 0e39 44000000 		.4byte	.LVL63
 3815 0e3d 8B0B0000 		.4byte	0xb8b
 3816 0e41 00       		.byte	0
 3817 0e42 1D       		.uleb128 0x1d
 3818 0e43 5F020000 		.4byte	.LASF193
 3819 0e47 01       		.byte	0x1
 3820 0e48 7E01     		.2byte	0x17e
 3821 0e4a 00000000 		.4byte	.LFB157
 3822 0e4e 2C000000 		.4byte	.LFE157-.LFB157
 3823 0e52 01       		.uleb128 0x1
 3824 0e53 9C       		.byte	0x9c
 3825 0e54 AC0E0000 		.4byte	0xeac
 3826 0e58 1E       		.uleb128 0x1e
 3827 0e59 E00E0000 		.4byte	.LASF194
 3828 0e5d 01       		.byte	0x1
 3829 0e5e 8201     		.2byte	0x182
 3830 0e60 1B060000 		.4byte	0x61b
 3831 0e64 03       		.uleb128 0x3
 3832 0e65 91       		.byte	0x91
 3833 0e66 B47F     		.sleb128 -76
 3834 0e68 1F       		.uleb128 0x1f
 3835 0e69 A0090000 		.4byte	0x9a0
 3836 0e6d 04000000 		.4byte	.LBB106
 3837 0e71 0A000000 		.4byte	.LBE106-.LBB106
 3838 0e75 01       		.byte	0x1
 3839 0e76 8201     		.2byte	0x182
 3840 0e78 990E0000 		.4byte	0xe99
 3841 0e7c 20       		.uleb128 0x20
 3842 0e7d B1090000 		.4byte	0x9b1
 3843 0e81 28       		.uleb128 0x28
 3844 0e82 0E000000 		.4byte	.LVL74
 3845 0e86 CD1A0000 		.4byte	0x1acd
 3846 0e8a 29       		.uleb128 0x29
 3847 0e8b 01       		.uleb128 0x1
 3848 0e8c 50       		.byte	0x50
 3849 0e8d 03       		.uleb128 0x3
 3850 0e8e 91       		.byte	0x91
 3851 0e8f B47F     		.sleb128 -76
 3852 0e91 29       		.uleb128 0x29
 3853 0e92 01       		.uleb128 0x1
 3854 0e93 52       		.byte	0x52
 3855 0e94 02       		.uleb128 0x2
 3856 0e95 08       		.byte	0x8
 3857 0e96 44       		.byte	0x44
 3858 0e97 00       		.byte	0
 3859 0e98 00       		.byte	0
 3860 0e99 26       		.uleb128 0x26
 3861 0e9a 18000000 		.4byte	.LVL75
 3862 0e9e E50C0000 		.4byte	0xce5
 3863 0ea2 26       		.uleb128 0x26
 3864 0ea3 22000000 		.4byte	.LVL76
 3865 0ea7 8F0D0000 		.4byte	0xd8f
 3866 0eab 00       		.byte	0
 3867 0eac 2A       		.uleb128 0x2a
 3868 0ead F0000000 		.4byte	.LASF235
ARM GAS  C:\Users\giris\AppData\Local\Temp\cceloVpD.s 			page 93


 3869 0eb1 01       		.byte	0x1
 3870 0eb2 E9       		.byte	0xe9
 3871 0eb3 00000000 		.4byte	.LFB146
 3872 0eb7 88010000 		.4byte	.LFE146-.LFB146
 3873 0ebb 01       		.uleb128 0x1
 3874 0ebc 9C       		.byte	0x9c
 3875 0ebd 67120000 		.4byte	0x1267
 3876 0ec1 2B       		.uleb128 0x2b
 3877 0ec2 657600   		.ascii	"ev\000"
 3878 0ec5 01       		.byte	0x1
 3879 0ec6 E9       		.byte	0xe9
 3880 0ec7 69020000 		.4byte	0x269
 3881 0ecb 4C020000 		.4byte	.LLST18
 3882 0ecf 2C       		.uleb128 0x2c
 3883 0ed0 D10A0000 		.4byte	.LASF195
 3884 0ed4 01       		.byte	0x1
 3885 0ed5 E9       		.byte	0xe9
 3886 0ed6 CF020000 		.4byte	0x2cf
 3887 0eda 6D020000 		.4byte	.LLST19
 3888 0ede 2D       		.uleb128 0x2d
 3889 0edf E00E0000 		.4byte	.LASF194
 3890 0ee3 01       		.byte	0x1
 3891 0ee4 EB       		.byte	0xeb
 3892 0ee5 1B060000 		.4byte	0x61b
 3893 0ee9 03       		.uleb128 0x3
 3894 0eea 91       		.byte	0x91
 3895 0eeb 9C7F     		.sleb128 -100
 3896 0eed 2E       		.uleb128 0x2e
 3897 0eee A0090000 		.4byte	0x9a0
 3898 0ef2 0A000000 		.4byte	.LBB108
 3899 0ef6 0E000000 		.4byte	.LBE108-.LBB108
 3900 0efa 01       		.byte	0x1
 3901 0efb EB       		.byte	0xeb
 3902 0efc 230F0000 		.4byte	0xf23
 3903 0f00 20       		.uleb128 0x20
 3904 0f01 B1090000 		.4byte	0x9b1
 3905 0f05 28       		.uleb128 0x28
 3906 0f06 18000000 		.4byte	.LVL81
 3907 0f0a CD1A0000 		.4byte	0x1acd
 3908 0f0e 29       		.uleb128 0x29
 3909 0f0f 01       		.uleb128 0x1
 3910 0f10 50       		.byte	0x50
 3911 0f11 03       		.uleb128 0x3
 3912 0f12 91       		.byte	0x91
 3913 0f13 9C7F     		.sleb128 -100
 3914 0f15 29       		.uleb128 0x29
 3915 0f16 01       		.uleb128 0x1
 3916 0f17 51       		.byte	0x51
 3917 0f18 02       		.uleb128 0x2
 3918 0f19 74       		.byte	0x74
 3919 0f1a 00       		.sleb128 0
 3920 0f1b 29       		.uleb128 0x29
 3921 0f1c 01       		.uleb128 0x1
 3922 0f1d 52       		.byte	0x52
 3923 0f1e 02       		.uleb128 0x2
 3924 0f1f 75       		.byte	0x75
 3925 0f20 00       		.sleb128 0
ARM GAS  C:\Users\giris\AppData\Local\Temp\cceloVpD.s 			page 94


 3926 0f21 00       		.byte	0
 3927 0f22 00       		.byte	0
 3928 0f23 2E       		.uleb128 0x2e
 3929 0f24 CE090000 		.4byte	0x9ce
 3930 0f28 2E000000 		.4byte	.LBB110
 3931 0f2c 40000000 		.4byte	.LBE110-.LBB110
 3932 0f30 01       		.byte	0x1
 3933 0f31 F1       		.byte	0xf1
 3934 0f32 A40F0000 		.4byte	0xfa4
 3935 0f36 22       		.uleb128 0x22
 3936 0f37 EB090000 		.4byte	0x9eb
 3937 0f3b 03       		.uleb128 0x3
 3938 0f3c 91       		.byte	0x91
 3939 0f3d C87C     		.sleb128 -440
 3940 0f3f 20       		.uleb128 0x20
 3941 0f40 DF090000 		.4byte	0x9df
 3942 0f44 23       		.uleb128 0x23
 3943 0f45 2E000000 		.4byte	.LBB111
 3944 0f49 40000000 		.4byte	.LBE111-.LBB111
 3945 0f4d 24       		.uleb128 0x24
 3946 0f4e F7090000 		.4byte	0x9f7
 3947 0f52 00       		.byte	0
 3948 0f53 25       		.uleb128 0x25
 3949 0f54 030A0000 		.4byte	0xa03
 3950 0f58 8E020000 		.4byte	.LLST20
 3951 0f5c 25       		.uleb128 0x25
 3952 0f5d 0F0A0000 		.4byte	0xa0f
 3953 0f61 C4020000 		.4byte	.LLST21
 3954 0f65 2F       		.uleb128 0x2f
 3955 0f66 54000000 		.4byte	.LBB112
 3956 0f6a 0A000000 		.4byte	.LBE112-.LBB112
 3957 0f6e 850F0000 		.4byte	0xf85
 3958 0f72 25       		.uleb128 0x25
 3959 0f73 1C0A0000 		.4byte	0xa1c
 3960 0f77 D7020000 		.4byte	.LLST22
 3961 0f7b 26       		.uleb128 0x26
 3962 0f7c 5E000000 		.4byte	.LVL87
 3963 0f80 C11A0000 		.4byte	0x1ac1
 3964 0f84 00       		.byte	0
 3965 0f85 28       		.uleb128 0x28
 3966 0f86 3C000000 		.4byte	.LVL84
 3967 0f8a CD1A0000 		.4byte	0x1acd
 3968 0f8e 29       		.uleb128 0x29
 3969 0f8f 01       		.uleb128 0x1
 3970 0f90 50       		.byte	0x50
 3971 0f91 02       		.uleb128 0x2
 3972 0f92 74       		.byte	0x74
 3973 0f93 00       		.sleb128 0
 3974 0f94 29       		.uleb128 0x29
 3975 0f95 01       		.uleb128 0x1
 3976 0f96 51       		.byte	0x51
 3977 0f97 03       		.uleb128 0x3
 3978 0f98 91       		.byte	0x91
 3979 0f99 C87C     		.sleb128 -440
 3980 0f9b 29       		.uleb128 0x29
 3981 0f9c 01       		.uleb128 0x1
 3982 0f9d 52       		.byte	0x52
ARM GAS  C:\Users\giris\AppData\Local\Temp\cceloVpD.s 			page 95


 3983 0f9e 02       		.uleb128 0x2
 3984 0f9f 75       		.byte	0x75
 3985 0fa0 00       		.sleb128 0
 3986 0fa1 00       		.byte	0
 3987 0fa2 00       		.byte	0
 3988 0fa3 00       		.byte	0
 3989 0fa4 2F       		.uleb128 0x2f
 3990 0fa5 72000000 		.4byte	.LBB113
 3991 0fa9 84000000 		.4byte	.LBE113-.LBB113
 3992 0fad D4100000 		.4byte	0x10d4
 3993 0fb1 2D       		.uleb128 0x2d
 3994 0fb2 08010000 		.4byte	.LASF196
 3995 0fb6 01       		.byte	0x1
 3996 0fb7 FC       		.byte	0xfc
 3997 0fb8 71030000 		.4byte	0x371
 3998 0fbc 03       		.uleb128 0x3
 3999 0fbd 91       		.byte	0x91
 4000 0fbe D87E     		.sleb128 -168
 4001 0fc0 1F       		.uleb128 0x1f
 4002 0fc1 A0090000 		.4byte	0x9a0
 4003 0fc5 8E000000 		.4byte	.LBB114
 4004 0fc9 0E000000 		.4byte	.LBE114-.LBB114
 4005 0fcd 01       		.byte	0x1
 4006 0fce 0501     		.2byte	0x105
 4007 0fd0 F70F0000 		.4byte	0xff7
 4008 0fd4 20       		.uleb128 0x20
 4009 0fd5 B1090000 		.4byte	0x9b1
 4010 0fd9 28       		.uleb128 0x28
 4011 0fda 9C000000 		.4byte	.LVL93
 4012 0fde CD1A0000 		.4byte	0x1acd
 4013 0fe2 29       		.uleb128 0x29
 4014 0fe3 01       		.uleb128 0x1
 4015 0fe4 50       		.byte	0x50
 4016 0fe5 03       		.uleb128 0x3
 4017 0fe6 91       		.byte	0x91
 4018 0fe7 D07D     		.sleb128 -304
 4019 0fe9 29       		.uleb128 0x29
 4020 0fea 01       		.uleb128 0x1
 4021 0feb 51       		.byte	0x51
 4022 0fec 02       		.uleb128 0x2
 4023 0fed 74       		.byte	0x74
 4024 0fee 00       		.sleb128 0
 4025 0fef 29       		.uleb128 0x29
 4026 0ff0 01       		.uleb128 0x1
 4027 0ff1 52       		.byte	0x52
 4028 0ff2 02       		.uleb128 0x2
 4029 0ff3 75       		.byte	0x75
 4030 0ff4 00       		.sleb128 0
 4031 0ff5 00       		.byte	0
 4032 0ff6 00       		.byte	0
 4033 0ff7 1F       		.uleb128 0x1f
 4034 0ff8 CE090000 		.4byte	0x9ce
 4035 0ffc B8000000 		.4byte	.LBB116
 4036 1000 3E000000 		.4byte	.LBE116-.LBB116
 4037 1004 01       		.byte	0x1
 4038 1005 0901     		.2byte	0x109
 4039 1007 7C100000 		.4byte	0x107c
ARM GAS  C:\Users\giris\AppData\Local\Temp\cceloVpD.s 			page 96


 4040 100b 22       		.uleb128 0x22
 4041 100c EB090000 		.4byte	0x9eb
 4042 1010 03       		.uleb128 0x3
 4043 1011 91       		.byte	0x91
 4044 1012 8C7D     		.sleb128 -372
 4045 1014 20       		.uleb128 0x20
 4046 1015 DF090000 		.4byte	0x9df
 4047 1019 23       		.uleb128 0x23
 4048 101a B8000000 		.4byte	.LBB117
 4049 101e 3E000000 		.4byte	.LBE117-.LBB117
 4050 1022 25       		.uleb128 0x25
 4051 1023 F7090000 		.4byte	0x9f7
 4052 1027 F0020000 		.4byte	.LLST23
 4053 102b 25       		.uleb128 0x25
 4054 102c 030A0000 		.4byte	0xa03
 4055 1030 04030000 		.4byte	.LLST24
 4056 1034 25       		.uleb128 0x25
 4057 1035 0F0A0000 		.4byte	0xa0f
 4058 1039 3A030000 		.4byte	.LLST25
 4059 103d 2F       		.uleb128 0x2f
 4060 103e DA000000 		.4byte	.LBB118
 4061 1042 0A000000 		.4byte	.LBE118-.LBB118
 4062 1046 5D100000 		.4byte	0x105d
 4063 104a 25       		.uleb128 0x25
 4064 104b 1C0A0000 		.4byte	0xa1c
 4065 104f 4D030000 		.4byte	.LLST26
 4066 1053 26       		.uleb128 0x26
 4067 1054 E4000000 		.4byte	.LVL100
 4068 1058 C11A0000 		.4byte	0x1ac1
 4069 105c 00       		.byte	0
 4070 105d 28       		.uleb128 0x28
 4071 105e C4000000 		.4byte	.LVL97
 4072 1062 CD1A0000 		.4byte	0x1acd
 4073 1066 29       		.uleb128 0x29
 4074 1067 01       		.uleb128 0x1
 4075 1068 50       		.byte	0x50
 4076 1069 02       		.uleb128 0x2
 4077 106a 74       		.byte	0x74
 4078 106b 00       		.sleb128 0
 4079 106c 29       		.uleb128 0x29
 4080 106d 01       		.uleb128 0x1
 4081 106e 51       		.byte	0x51
 4082 106f 03       		.uleb128 0x3
 4083 1070 91       		.byte	0x91
 4084 1071 8C7D     		.sleb128 -372
 4085 1073 29       		.uleb128 0x29
 4086 1074 01       		.uleb128 0x1
 4087 1075 52       		.byte	0x52
 4088 1076 02       		.uleb128 0x2
 4089 1077 75       		.byte	0x75
 4090 1078 00       		.sleb128 0
 4091 1079 00       		.byte	0
 4092 107a 00       		.byte	0
 4093 107b 00       		.byte	0
 4094 107c 30       		.uleb128 0x30
 4095 107d 8E000000 		.4byte	.LVL92
 4096 1081 D61A0000 		.4byte	0x1ad6
ARM GAS  C:\Users\giris\AppData\Local\Temp\cceloVpD.s 			page 97


 4097 1085 B5100000 		.4byte	0x10b5
 4098 1089 29       		.uleb128 0x29
 4099 108a 01       		.uleb128 0x1
 4100 108b 50       		.byte	0x50
 4101 108c 05       		.uleb128 0x5
 4102 108d 03       		.byte	0x3
 4103 108e 24000000 		.4byte	.LANCHOR0+36
 4104 1092 29       		.uleb128 0x29
 4105 1093 01       		.uleb128 0x1
 4106 1094 51       		.byte	0x51
 4107 1095 01       		.uleb128 0x1
 4108 1096 33       		.byte	0x33
 4109 1097 29       		.uleb128 0x29
 4110 1098 01       		.uleb128 0x1
 4111 1099 52       		.byte	0x52
 4112 109a 05       		.uleb128 0x5
 4113 109b 03       		.byte	0x3
 4114 109c 00000000 		.4byte	.LANCHOR0
 4115 10a0 29       		.uleb128 0x29
 4116 10a1 01       		.uleb128 0x1
 4117 10a2 53       		.byte	0x53
 4118 10a3 01       		.uleb128 0x1
 4119 10a4 33       		.byte	0x33
 4120 10a5 29       		.uleb128 0x29
 4121 10a6 02       		.uleb128 0x2
 4122 10a7 7D       		.byte	0x7d
 4123 10a8 00       		.sleb128 0
 4124 10a9 02       		.uleb128 0x2
 4125 10aa 77       		.byte	0x77
 4126 10ab 00       		.sleb128 0
 4127 10ac 29       		.uleb128 0x29
 4128 10ad 02       		.uleb128 0x2
 4129 10ae 7D       		.byte	0x7d
 4130 10af 04       		.sleb128 4
 4131 10b0 03       		.uleb128 0x3
 4132 10b1 91       		.byte	0x91
 4133 10b2 D87E     		.sleb128 -168
 4134 10b4 00       		.byte	0
 4135 10b5 28       		.uleb128 0x28
 4136 10b6 A6000000 		.4byte	.LVL94
 4137 10ba CD1A0000 		.4byte	0x1acd
 4138 10be 29       		.uleb128 0x29
 4139 10bf 01       		.uleb128 0x1
 4140 10c0 50       		.byte	0x50
 4141 10c1 03       		.uleb128 0x3
 4142 10c2 91       		.byte	0x91
 4143 10c3 9C7F     		.sleb128 -100
 4144 10c5 29       		.uleb128 0x29
 4145 10c6 01       		.uleb128 0x1
 4146 10c7 51       		.byte	0x51
 4147 10c8 03       		.uleb128 0x3
 4148 10c9 91       		.byte	0x91
 4149 10ca D07D     		.sleb128 -304
 4150 10cc 29       		.uleb128 0x29
 4151 10cd 01       		.uleb128 0x1
 4152 10ce 52       		.byte	0x52
 4153 10cf 02       		.uleb128 0x2
ARM GAS  C:\Users\giris\AppData\Local\Temp\cceloVpD.s 			page 98


 4154 10d0 75       		.byte	0x75
 4155 10d1 00       		.sleb128 0
 4156 10d2 00       		.byte	0
 4157 10d3 00       		.byte	0
 4158 10d4 2F       		.uleb128 0x2f
 4159 10d5 FA000000 		.4byte	.LBB119
 4160 10d9 7E000000 		.4byte	.LBE119-.LBB119
 4161 10dd 04120000 		.4byte	0x1204
 4162 10e1 1E       		.uleb128 0x1e
 4163 10e2 08010000 		.4byte	.LASF196
 4164 10e6 01       		.byte	0x1
 4165 10e7 0D01     		.2byte	0x10d
 4166 10e9 71030000 		.4byte	0x371
 4167 10ed 03       		.uleb128 0x3
 4168 10ee 91       		.byte	0x91
 4169 10ef D07D     		.sleb128 -304
 4170 10f1 1F       		.uleb128 0x1f
 4171 10f2 A0090000 		.4byte	0x9a0
 4172 10f6 16010000 		.4byte	.LBB120
 4173 10fa 0E000000 		.4byte	.LBE120-.LBB120
 4174 10fe 01       		.byte	0x1
 4175 10ff 1601     		.2byte	0x116
 4176 1101 28110000 		.4byte	0x1128
 4177 1105 20       		.uleb128 0x20
 4178 1106 B1090000 		.4byte	0x9b1
 4179 110a 28       		.uleb128 0x28
 4180 110b 24010000 		.4byte	.LVL106
 4181 110f CD1A0000 		.4byte	0x1acd
 4182 1113 29       		.uleb128 0x29
 4183 1114 01       		.uleb128 0x1
 4184 1115 50       		.byte	0x50
 4185 1116 03       		.uleb128 0x3
 4186 1117 91       		.byte	0x91
 4187 1118 D87E     		.sleb128 -168
 4188 111a 29       		.uleb128 0x29
 4189 111b 01       		.uleb128 0x1
 4190 111c 51       		.byte	0x51
 4191 111d 02       		.uleb128 0x2
 4192 111e 74       		.byte	0x74
 4193 111f 00       		.sleb128 0
 4194 1120 29       		.uleb128 0x29
 4195 1121 01       		.uleb128 0x1
 4196 1122 52       		.byte	0x52
 4197 1123 02       		.uleb128 0x2
 4198 1124 75       		.byte	0x75
 4199 1125 00       		.sleb128 0
 4200 1126 00       		.byte	0
 4201 1127 00       		.byte	0
 4202 1128 1F       		.uleb128 0x1f
 4203 1129 CE090000 		.4byte	0x9ce
 4204 112d 3E010000 		.4byte	.LBB122
 4205 1131 3A000000 		.4byte	.LBE122-.LBB122
 4206 1135 01       		.byte	0x1
 4207 1136 1A01     		.2byte	0x11a
 4208 1138 AD110000 		.4byte	0x11ad
 4209 113c 22       		.uleb128 0x22
 4210 113d EB090000 		.4byte	0x9eb
ARM GAS  C:\Users\giris\AppData\Local\Temp\cceloVpD.s 			page 99


 4211 1141 03       		.uleb128 0x3
 4212 1142 91       		.byte	0x91
 4213 1143 947E     		.sleb128 -236
 4214 1145 20       		.uleb128 0x20
 4215 1146 DF090000 		.4byte	0x9df
 4216 114a 23       		.uleb128 0x23
 4217 114b 3E010000 		.4byte	.LBB123
 4218 114f 3A000000 		.4byte	.LBE123-.LBB123
 4219 1153 25       		.uleb128 0x25
 4220 1154 F7090000 		.4byte	0x9f7
 4221 1158 66030000 		.4byte	.LLST27
 4222 115c 25       		.uleb128 0x25
 4223 115d 030A0000 		.4byte	0xa03
 4224 1161 7A030000 		.4byte	.LLST28
 4225 1165 25       		.uleb128 0x25
 4226 1166 0F0A0000 		.4byte	0xa0f
 4227 116a B0030000 		.4byte	.LLST29
 4228 116e 2F       		.uleb128 0x2f
 4229 116f 5E010000 		.4byte	.LBB124
 4230 1173 0A000000 		.4byte	.LBE124-.LBB124
 4231 1177 8E110000 		.4byte	0x118e
 4232 117b 25       		.uleb128 0x25
 4233 117c 1C0A0000 		.4byte	0xa1c
 4234 1180 C3030000 		.4byte	.LLST30
 4235 1184 26       		.uleb128 0x26
 4236 1185 68010000 		.4byte	.LVL113
 4237 1189 C11A0000 		.4byte	0x1ac1
 4238 118d 00       		.byte	0
 4239 118e 28       		.uleb128 0x28
 4240 118f 4A010000 		.4byte	.LVL110
 4241 1193 CD1A0000 		.4byte	0x1acd
 4242 1197 29       		.uleb128 0x29
 4243 1198 01       		.uleb128 0x1
 4244 1199 50       		.byte	0x50
 4245 119a 02       		.uleb128 0x2
 4246 119b 74       		.byte	0x74
 4247 119c 00       		.sleb128 0
 4248 119d 29       		.uleb128 0x29
 4249 119e 01       		.uleb128 0x1
 4250 119f 51       		.byte	0x51
 4251 11a0 03       		.uleb128 0x3
 4252 11a1 91       		.byte	0x91
 4253 11a2 947E     		.sleb128 -236
 4254 11a4 29       		.uleb128 0x29
 4255 11a5 01       		.uleb128 0x1
 4256 11a6 52       		.byte	0x52
 4257 11a7 02       		.uleb128 0x2
 4258 11a8 75       		.byte	0x75
 4259 11a9 00       		.sleb128 0
 4260 11aa 00       		.byte	0
 4261 11ab 00       		.byte	0
 4262 11ac 00       		.byte	0
 4263 11ad 30       		.uleb128 0x30
 4264 11ae 16010000 		.4byte	.LVL105
 4265 11b2 D61A0000 		.4byte	0x1ad6
 4266 11b6 E5110000 		.4byte	0x11e5
 4267 11ba 29       		.uleb128 0x29
ARM GAS  C:\Users\giris\AppData\Local\Temp\cceloVpD.s 			page 100


 4268 11bb 01       		.uleb128 0x1
 4269 11bc 50       		.byte	0x50
 4270 11bd 05       		.uleb128 0x5
 4271 11be 03       		.byte	0x3
 4272 11bf 24000000 		.4byte	.LANCHOR0+36
 4273 11c3 29       		.uleb128 0x29
 4274 11c4 01       		.uleb128 0x1
 4275 11c5 51       		.byte	0x51
 4276 11c6 01       		.uleb128 0x1
 4277 11c7 33       		.byte	0x33
 4278 11c8 29       		.uleb128 0x29
 4279 11c9 01       		.uleb128 0x1
 4280 11ca 52       		.byte	0x52
 4281 11cb 05       		.uleb128 0x5
 4282 11cc 03       		.byte	0x3
 4283 11cd 00000000 		.4byte	.LANCHOR0
 4284 11d1 29       		.uleb128 0x29
 4285 11d2 01       		.uleb128 0x1
 4286 11d3 53       		.byte	0x53
 4287 11d4 01       		.uleb128 0x1
 4288 11d5 33       		.byte	0x33
 4289 11d6 29       		.uleb128 0x29
 4290 11d7 02       		.uleb128 0x2
 4291 11d8 7D       		.byte	0x7d
 4292 11d9 00       		.sleb128 0
 4293 11da 02       		.uleb128 0x2
 4294 11db 77       		.byte	0x77
 4295 11dc 00       		.sleb128 0
 4296 11dd 29       		.uleb128 0x29
 4297 11de 02       		.uleb128 0x2
 4298 11df 7D       		.byte	0x7d
 4299 11e0 04       		.sleb128 4
 4300 11e1 02       		.uleb128 0x2
 4301 11e2 76       		.byte	0x76
 4302 11e3 00       		.sleb128 0
 4303 11e4 00       		.byte	0
 4304 11e5 28       		.uleb128 0x28
 4305 11e6 2E010000 		.4byte	.LVL107
 4306 11ea CD1A0000 		.4byte	0x1acd
 4307 11ee 29       		.uleb128 0x29
 4308 11ef 01       		.uleb128 0x1
 4309 11f0 50       		.byte	0x50
 4310 11f1 03       		.uleb128 0x3
 4311 11f2 91       		.byte	0x91
 4312 11f3 9C7F     		.sleb128 -100
 4313 11f5 29       		.uleb128 0x29
 4314 11f6 01       		.uleb128 0x1
 4315 11f7 51       		.byte	0x51
 4316 11f8 03       		.uleb128 0x3
 4317 11f9 91       		.byte	0x91
 4318 11fa D87E     		.sleb128 -168
 4319 11fc 29       		.uleb128 0x29
 4320 11fd 01       		.uleb128 0x1
 4321 11fe 52       		.byte	0x52
 4322 11ff 02       		.uleb128 0x2
 4323 1200 75       		.byte	0x75
 4324 1201 00       		.sleb128 0
ARM GAS  C:\Users\giris\AppData\Local\Temp\cceloVpD.s 			page 101


 4325 1202 00       		.byte	0
 4326 1203 00       		.byte	0
 4327 1204 30       		.uleb128 0x30
 4328 1205 2E000000 		.4byte	.LVL83
 4329 1209 CD1A0000 		.4byte	0x1acd
 4330 120d 26120000 		.4byte	0x1226
 4331 1211 29       		.uleb128 0x29
 4332 1212 01       		.uleb128 0x1
 4333 1213 50       		.byte	0x50
 4334 1214 03       		.uleb128 0x3
 4335 1215 91       		.byte	0x91
 4336 1216 C87C     		.sleb128 -440
 4337 1218 29       		.uleb128 0x29
 4338 1219 01       		.uleb128 0x1
 4339 121a 51       		.byte	0x51
 4340 121b 03       		.uleb128 0x3
 4341 121c 91       		.byte	0x91
 4342 121d 9C7F     		.sleb128 -100
 4343 121f 29       		.uleb128 0x29
 4344 1220 01       		.uleb128 0x1
 4345 1221 52       		.byte	0x52
 4346 1222 02       		.uleb128 0x2
 4347 1223 75       		.byte	0x75
 4348 1224 00       		.sleb128 0
 4349 1225 00       		.byte	0
 4350 1226 30       		.uleb128 0x30
 4351 1227 B8000000 		.4byte	.LVL96
 4352 122b CD1A0000 		.4byte	0x1acd
 4353 122f 48120000 		.4byte	0x1248
 4354 1233 29       		.uleb128 0x29
 4355 1234 01       		.uleb128 0x1
 4356 1235 50       		.byte	0x50
 4357 1236 03       		.uleb128 0x3
 4358 1237 91       		.byte	0x91
 4359 1238 8C7D     		.sleb128 -372
 4360 123a 29       		.uleb128 0x29
 4361 123b 01       		.uleb128 0x1
 4362 123c 51       		.byte	0x51
 4363 123d 03       		.uleb128 0x3
 4364 123e 91       		.byte	0x91
 4365 123f 9C7F     		.sleb128 -100
 4366 1241 29       		.uleb128 0x29
 4367 1242 01       		.uleb128 0x1
 4368 1243 52       		.byte	0x52
 4369 1244 02       		.uleb128 0x2
 4370 1245 75       		.byte	0x75
 4371 1246 00       		.sleb128 0
 4372 1247 00       		.byte	0
 4373 1248 28       		.uleb128 0x28
 4374 1249 3E010000 		.4byte	.LVL109
 4375 124d CD1A0000 		.4byte	0x1acd
 4376 1251 29       		.uleb128 0x29
 4377 1252 01       		.uleb128 0x1
 4378 1253 50       		.byte	0x50
 4379 1254 03       		.uleb128 0x3
 4380 1255 91       		.byte	0x91
 4381 1256 947E     		.sleb128 -236
ARM GAS  C:\Users\giris\AppData\Local\Temp\cceloVpD.s 			page 102


 4382 1258 29       		.uleb128 0x29
 4383 1259 01       		.uleb128 0x1
 4384 125a 51       		.byte	0x51
 4385 125b 03       		.uleb128 0x3
 4386 125c 91       		.byte	0x91
 4387 125d 9C7F     		.sleb128 -100
 4388 125f 29       		.uleb128 0x29
 4389 1260 01       		.uleb128 0x1
 4390 1261 52       		.byte	0x52
 4391 1262 02       		.uleb128 0x2
 4392 1263 75       		.byte	0x75
 4393 1264 00       		.sleb128 0
 4394 1265 00       		.byte	0
 4395 1266 00       		.byte	0
 4396 1267 1D       		.uleb128 0x1d
 4397 1268 D1010000 		.4byte	.LASF197
 4398 126c 01       		.byte	0x1
 4399 126d 1E01     		.2byte	0x11e
 4400 126f 00000000 		.4byte	.LFB147
 4401 1273 70000000 		.4byte	.LFE147-.LFB147
 4402 1277 01       		.uleb128 0x1
 4403 1278 9C       		.byte	0x9c
 4404 1279 85130000 		.4byte	0x1385
 4405 127d 1E       		.uleb128 0x1e
 4406 127e E00E0000 		.4byte	.LASF194
 4407 1282 01       		.byte	0x1
 4408 1283 2201     		.2byte	0x122
 4409 1285 1B060000 		.4byte	0x61b
 4410 1289 03       		.uleb128 0x3
 4411 128a 91       		.byte	0x91
 4412 128b AC7F     		.sleb128 -84
 4413 128d 1F       		.uleb128 0x1f
 4414 128e A0090000 		.4byte	0x9a0
 4415 1292 04000000 		.4byte	.LBB125
 4416 1296 10000000 		.4byte	.LBE125-.LBB125
 4417 129a 01       		.byte	0x1
 4418 129b 2201     		.2byte	0x122
 4419 129d C9120000 		.4byte	0x12c9
 4420 12a1 20       		.uleb128 0x20
 4421 12a2 B1090000 		.4byte	0x9b1
 4422 12a6 28       		.uleb128 0x28
 4423 12a7 14000000 		.4byte	.LVL119
 4424 12ab CD1A0000 		.4byte	0x1acd
 4425 12af 29       		.uleb128 0x29
 4426 12b0 01       		.uleb128 0x1
 4427 12b1 50       		.byte	0x50
 4428 12b2 08       		.uleb128 0x8
 4429 12b3 91       		.byte	0x91
 4430 12b4 00       		.sleb128 0
 4431 12b5 75       		.byte	0x75
 4432 12b6 00       		.sleb128 0
 4433 12b7 22       		.byte	0x22
 4434 12b8 08       		.byte	0x8
 4435 12b9 98       		.byte	0x98
 4436 12ba 1C       		.byte	0x1c
 4437 12bb 29       		.uleb128 0x29
 4438 12bc 01       		.uleb128 0x1
ARM GAS  C:\Users\giris\AppData\Local\Temp\cceloVpD.s 			page 103


 4439 12bd 51       		.byte	0x51
 4440 12be 02       		.uleb128 0x2
 4441 12bf 74       		.byte	0x74
 4442 12c0 00       		.sleb128 0
 4443 12c1 29       		.uleb128 0x29
 4444 12c2 01       		.uleb128 0x1
 4445 12c3 52       		.byte	0x52
 4446 12c4 02       		.uleb128 0x2
 4447 12c5 75       		.byte	0x75
 4448 12c6 00       		.sleb128 0
 4449 12c7 00       		.byte	0
 4450 12c8 00       		.byte	0
 4451 12c9 1F       		.uleb128 0x1f
 4452 12ca CE090000 		.4byte	0x9ce
 4453 12ce 26000000 		.4byte	.LBB127
 4454 12d2 3A000000 		.4byte	.LBE127-.LBB127
 4455 12d6 01       		.byte	0x1
 4456 12d7 2601     		.2byte	0x126
 4457 12d9 4A130000 		.4byte	0x134a
 4458 12dd 22       		.uleb128 0x22
 4459 12de EB090000 		.4byte	0x9eb
 4460 12e2 03       		.uleb128 0x3
 4461 12e3 91       		.byte	0x91
 4462 12e4 E87E     		.sleb128 -152
 4463 12e6 20       		.uleb128 0x20
 4464 12e7 DF090000 		.4byte	0x9df
 4465 12eb 23       		.uleb128 0x23
 4466 12ec 26000000 		.4byte	.LBB128
 4467 12f0 3A000000 		.4byte	.LBE128-.LBB128
 4468 12f4 24       		.uleb128 0x24
 4469 12f5 F7090000 		.4byte	0x9f7
 4470 12f9 00       		.byte	0
 4471 12fa 25       		.uleb128 0x25
 4472 12fb 030A0000 		.4byte	0xa03
 4473 12ff DC030000 		.4byte	.LLST31
 4474 1303 25       		.uleb128 0x25
 4475 1304 0F0A0000 		.4byte	0xa0f
 4476 1308 12040000 		.4byte	.LLST32
 4477 130c 2F       		.uleb128 0x2f
 4478 130d 46000000 		.4byte	.LBB129
 4479 1311 0A000000 		.4byte	.LBE129-.LBB129
 4480 1315 2C130000 		.4byte	0x132c
 4481 1319 25       		.uleb128 0x25
 4482 131a 1C0A0000 		.4byte	0xa1c
 4483 131e 25040000 		.4byte	.LLST33
 4484 1322 26       		.uleb128 0x26
 4485 1323 50000000 		.4byte	.LVL125
 4486 1327 C11A0000 		.4byte	0x1ac1
 4487 132b 00       		.byte	0
 4488 132c 28       		.uleb128 0x28
 4489 132d 32000000 		.4byte	.LVL122
 4490 1331 CD1A0000 		.4byte	0x1acd
 4491 1335 29       		.uleb128 0x29
 4492 1336 01       		.uleb128 0x1
 4493 1337 50       		.byte	0x50
 4494 1338 02       		.uleb128 0x2
 4495 1339 74       		.byte	0x74
ARM GAS  C:\Users\giris\AppData\Local\Temp\cceloVpD.s 			page 104


 4496 133a 00       		.sleb128 0
 4497 133b 29       		.uleb128 0x29
 4498 133c 01       		.uleb128 0x1
 4499 133d 51       		.byte	0x51
 4500 133e 02       		.uleb128 0x2
 4501 133f 7D       		.byte	0x7d
 4502 1340 00       		.sleb128 0
 4503 1341 29       		.uleb128 0x29
 4504 1342 01       		.uleb128 0x1
 4505 1343 52       		.byte	0x52
 4506 1344 02       		.uleb128 0x2
 4507 1345 75       		.byte	0x75
 4508 1346 00       		.sleb128 0
 4509 1347 00       		.byte	0
 4510 1348 00       		.byte	0
 4511 1349 00       		.byte	0
 4512 134a 30       		.uleb128 0x30
 4513 134b 26000000 		.4byte	.LVL121
 4514 134f CD1A0000 		.4byte	0x1acd
 4515 1353 70130000 		.4byte	0x1370
 4516 1357 29       		.uleb128 0x29
 4517 1358 01       		.uleb128 0x1
 4518 1359 50       		.byte	0x50
 4519 135a 02       		.uleb128 0x2
 4520 135b 7D       		.byte	0x7d
 4521 135c 00       		.sleb128 0
 4522 135d 29       		.uleb128 0x29
 4523 135e 01       		.uleb128 0x1
 4524 135f 51       		.byte	0x51
 4525 1360 08       		.uleb128 0x8
 4526 1361 91       		.byte	0x91
 4527 1362 00       		.sleb128 0
 4528 1363 75       		.byte	0x75
 4529 1364 00       		.sleb128 0
 4530 1365 22       		.byte	0x22
 4531 1366 08       		.byte	0x8
 4532 1367 98       		.byte	0x98
 4533 1368 1C       		.byte	0x1c
 4534 1369 29       		.uleb128 0x29
 4535 136a 01       		.uleb128 0x1
 4536 136b 52       		.byte	0x52
 4537 136c 02       		.uleb128 0x2
 4538 136d 75       		.byte	0x75
 4539 136e 00       		.sleb128 0
 4540 136f 00       		.byte	0
 4541 1370 28       		.uleb128 0x28
 4542 1371 68000000 		.4byte	.LVL130
 4543 1375 AC0E0000 		.4byte	0xeac
 4544 1379 29       		.uleb128 0x29
 4545 137a 01       		.uleb128 0x1
 4546 137b 50       		.byte	0x50
 4547 137c 01       		.uleb128 0x1
 4548 137d 31       		.byte	0x31
 4549 137e 29       		.uleb128 0x29
 4550 137f 01       		.uleb128 0x1
 4551 1380 51       		.byte	0x51
 4552 1381 01       		.uleb128 0x1
ARM GAS  C:\Users\giris\AppData\Local\Temp\cceloVpD.s 			page 105


 4553 1382 30       		.byte	0x30
 4554 1383 00       		.byte	0
 4555 1384 00       		.byte	0
 4556 1385 1D       		.uleb128 0x1d
 4557 1386 8E010000 		.4byte	.LASF198
 4558 138a 01       		.byte	0x1
 4559 138b 5501     		.2byte	0x155
 4560 138d 00000000 		.4byte	.LFB152
 4561 1391 0C000000 		.4byte	.LFE152-.LFB152
 4562 1395 01       		.uleb128 0x1
 4563 1396 9C       		.byte	0x9c
 4564 1397 B0130000 		.4byte	0x13b0
 4565 139b 28       		.uleb128 0x28
 4566 139c 0A000000 		.4byte	.LVL131
 4567 13a0 AC0E0000 		.4byte	0xeac
 4568 13a4 29       		.uleb128 0x29
 4569 13a5 01       		.uleb128 0x1
 4570 13a6 50       		.byte	0x50
 4571 13a7 01       		.uleb128 0x1
 4572 13a8 34       		.byte	0x34
 4573 13a9 29       		.uleb128 0x29
 4574 13aa 01       		.uleb128 0x1
 4575 13ab 51       		.byte	0x51
 4576 13ac 01       		.uleb128 0x1
 4577 13ad 30       		.byte	0x30
 4578 13ae 00       		.byte	0
 4579 13af 00       		.byte	0
 4580 13b0 1D       		.uleb128 0x1d
 4581 13b1 52060000 		.4byte	.LASF199
 4582 13b5 01       		.byte	0x1
 4583 13b6 4801     		.2byte	0x148
 4584 13b8 00000000 		.4byte	.LFB151
 4585 13bc 70000000 		.4byte	.LFE151-.LFB151
 4586 13c0 01       		.uleb128 0x1
 4587 13c1 9C       		.byte	0x9c
 4588 13c2 CE140000 		.4byte	0x14ce
 4589 13c6 1E       		.uleb128 0x1e
 4590 13c7 E00E0000 		.4byte	.LASF194
 4591 13cb 01       		.byte	0x1
 4592 13cc 4C01     		.2byte	0x14c
 4593 13ce 1B060000 		.4byte	0x61b
 4594 13d2 03       		.uleb128 0x3
 4595 13d3 91       		.byte	0x91
 4596 13d4 AC7F     		.sleb128 -84
 4597 13d6 1F       		.uleb128 0x1f
 4598 13d7 A0090000 		.4byte	0x9a0
 4599 13db 04000000 		.4byte	.LBB130
 4600 13df 10000000 		.4byte	.LBE130-.LBB130
 4601 13e3 01       		.byte	0x1
 4602 13e4 4C01     		.2byte	0x14c
 4603 13e6 12140000 		.4byte	0x1412
 4604 13ea 20       		.uleb128 0x20
 4605 13eb B1090000 		.4byte	0x9b1
 4606 13ef 28       		.uleb128 0x28
 4607 13f0 14000000 		.4byte	.LVL133
 4608 13f4 CD1A0000 		.4byte	0x1acd
 4609 13f8 29       		.uleb128 0x29
ARM GAS  C:\Users\giris\AppData\Local\Temp\cceloVpD.s 			page 106


 4610 13f9 01       		.uleb128 0x1
 4611 13fa 50       		.byte	0x50
 4612 13fb 08       		.uleb128 0x8
 4613 13fc 91       		.byte	0x91
 4614 13fd 00       		.sleb128 0
 4615 13fe 75       		.byte	0x75
 4616 13ff 00       		.sleb128 0
 4617 1400 22       		.byte	0x22
 4618 1401 08       		.byte	0x8
 4619 1402 98       		.byte	0x98
 4620 1403 1C       		.byte	0x1c
 4621 1404 29       		.uleb128 0x29
 4622 1405 01       		.uleb128 0x1
 4623 1406 51       		.byte	0x51
 4624 1407 02       		.uleb128 0x2
 4625 1408 74       		.byte	0x74
 4626 1409 00       		.sleb128 0
 4627 140a 29       		.uleb128 0x29
 4628 140b 01       		.uleb128 0x1
 4629 140c 52       		.byte	0x52
 4630 140d 02       		.uleb128 0x2
 4631 140e 75       		.byte	0x75
 4632 140f 00       		.sleb128 0
 4633 1410 00       		.byte	0
 4634 1411 00       		.byte	0
 4635 1412 1F       		.uleb128 0x1f
 4636 1413 CE090000 		.4byte	0x9ce
 4637 1417 26000000 		.4byte	.LBB132
 4638 141b 3A000000 		.4byte	.LBE132-.LBB132
 4639 141f 01       		.byte	0x1
 4640 1420 5001     		.2byte	0x150
 4641 1422 93140000 		.4byte	0x1493
 4642 1426 22       		.uleb128 0x22
 4643 1427 EB090000 		.4byte	0x9eb
 4644 142b 03       		.uleb128 0x3
 4645 142c 91       		.byte	0x91
 4646 142d E87E     		.sleb128 -152
 4647 142f 20       		.uleb128 0x20
 4648 1430 DF090000 		.4byte	0x9df
 4649 1434 23       		.uleb128 0x23
 4650 1435 26000000 		.4byte	.LBB133
 4651 1439 3A000000 		.4byte	.LBE133-.LBB133
 4652 143d 24       		.uleb128 0x24
 4653 143e F7090000 		.4byte	0x9f7
 4654 1442 00       		.byte	0
 4655 1443 25       		.uleb128 0x25
 4656 1444 030A0000 		.4byte	0xa03
 4657 1448 3E040000 		.4byte	.LLST34
 4658 144c 25       		.uleb128 0x25
 4659 144d 0F0A0000 		.4byte	0xa0f
 4660 1451 74040000 		.4byte	.LLST35
 4661 1455 2F       		.uleb128 0x2f
 4662 1456 46000000 		.4byte	.LBB134
 4663 145a 0A000000 		.4byte	.LBE134-.LBB134
 4664 145e 75140000 		.4byte	0x1475
 4665 1462 25       		.uleb128 0x25
 4666 1463 1C0A0000 		.4byte	0xa1c
ARM GAS  C:\Users\giris\AppData\Local\Temp\cceloVpD.s 			page 107


 4667 1467 87040000 		.4byte	.LLST36
 4668 146b 26       		.uleb128 0x26
 4669 146c 50000000 		.4byte	.LVL139
 4670 1470 C11A0000 		.4byte	0x1ac1
 4671 1474 00       		.byte	0
 4672 1475 28       		.uleb128 0x28
 4673 1476 32000000 		.4byte	.LVL136
 4674 147a CD1A0000 		.4byte	0x1acd
 4675 147e 29       		.uleb128 0x29
 4676 147f 01       		.uleb128 0x1
 4677 1480 50       		.byte	0x50
 4678 1481 02       		.uleb128 0x2
 4679 1482 74       		.byte	0x74
 4680 1483 00       		.sleb128 0
 4681 1484 29       		.uleb128 0x29
 4682 1485 01       		.uleb128 0x1
 4683 1486 51       		.byte	0x51
 4684 1487 02       		.uleb128 0x2
 4685 1488 7D       		.byte	0x7d
 4686 1489 00       		.sleb128 0
 4687 148a 29       		.uleb128 0x29
 4688 148b 01       		.uleb128 0x1
 4689 148c 52       		.byte	0x52
 4690 148d 02       		.uleb128 0x2
 4691 148e 75       		.byte	0x75
 4692 148f 00       		.sleb128 0
 4693 1490 00       		.byte	0
 4694 1491 00       		.byte	0
 4695 1492 00       		.byte	0
 4696 1493 30       		.uleb128 0x30
 4697 1494 26000000 		.4byte	.LVL135
 4698 1498 CD1A0000 		.4byte	0x1acd
 4699 149c B9140000 		.4byte	0x14b9
 4700 14a0 29       		.uleb128 0x29
 4701 14a1 01       		.uleb128 0x1
 4702 14a2 50       		.byte	0x50
 4703 14a3 02       		.uleb128 0x2
 4704 14a4 7D       		.byte	0x7d
 4705 14a5 00       		.sleb128 0
 4706 14a6 29       		.uleb128 0x29
 4707 14a7 01       		.uleb128 0x1
 4708 14a8 51       		.byte	0x51
 4709 14a9 08       		.uleb128 0x8
 4710 14aa 91       		.byte	0x91
 4711 14ab 00       		.sleb128 0
 4712 14ac 75       		.byte	0x75
 4713 14ad 00       		.sleb128 0
 4714 14ae 22       		.byte	0x22
 4715 14af 08       		.byte	0x8
 4716 14b0 98       		.byte	0x98
 4717 14b1 1C       		.byte	0x1c
 4718 14b2 29       		.uleb128 0x29
 4719 14b3 01       		.uleb128 0x1
 4720 14b4 52       		.byte	0x52
 4721 14b5 02       		.uleb128 0x2
 4722 14b6 75       		.byte	0x75
 4723 14b7 00       		.sleb128 0
ARM GAS  C:\Users\giris\AppData\Local\Temp\cceloVpD.s 			page 108


 4724 14b8 00       		.byte	0
 4725 14b9 28       		.uleb128 0x28
 4726 14ba 68000000 		.4byte	.LVL144
 4727 14be AC0E0000 		.4byte	0xeac
 4728 14c2 29       		.uleb128 0x29
 4729 14c3 01       		.uleb128 0x1
 4730 14c4 50       		.byte	0x50
 4731 14c5 01       		.uleb128 0x1
 4732 14c6 33       		.byte	0x33
 4733 14c7 29       		.uleb128 0x29
 4734 14c8 01       		.uleb128 0x1
 4735 14c9 51       		.byte	0x51
 4736 14ca 01       		.uleb128 0x1
 4737 14cb 30       		.byte	0x30
 4738 14cc 00       		.byte	0
 4739 14cd 00       		.byte	0
 4740 14ce 1D       		.uleb128 0x1d
 4741 14cf F40A0000 		.4byte	.LASF200
 4742 14d3 01       		.byte	0x1
 4743 14d4 4101     		.2byte	0x141
 4744 14d6 00000000 		.4byte	.LFB150
 4745 14da 0C000000 		.4byte	.LFE150-.LFB150
 4746 14de 01       		.uleb128 0x1
 4747 14df 9C       		.byte	0x9c
 4748 14e0 F9140000 		.4byte	0x14f9
 4749 14e4 28       		.uleb128 0x28
 4750 14e5 0A000000 		.4byte	.LVL145
 4751 14e9 AC0E0000 		.4byte	0xeac
 4752 14ed 29       		.uleb128 0x29
 4753 14ee 01       		.uleb128 0x1
 4754 14ef 50       		.byte	0x50
 4755 14f0 01       		.uleb128 0x1
 4756 14f1 32       		.byte	0x32
 4757 14f2 29       		.uleb128 0x29
 4758 14f3 01       		.uleb128 0x1
 4759 14f4 51       		.byte	0x51
 4760 14f5 01       		.uleb128 0x1
 4761 14f6 30       		.byte	0x30
 4762 14f7 00       		.byte	0
 4763 14f8 00       		.byte	0
 4764 14f9 1D       		.uleb128 0x1d
 4765 14fa 0A040000 		.4byte	.LASF201
 4766 14fe 01       		.byte	0x1
 4767 14ff 3201     		.2byte	0x132
 4768 1501 00000000 		.4byte	.LFB149
 4769 1505 80000000 		.4byte	.LFE149-.LFB149
 4770 1509 01       		.uleb128 0x1
 4771 150a 9C       		.byte	0x9c
 4772 150b 2F160000 		.4byte	0x162f
 4773 150f 1E       		.uleb128 0x1e
 4774 1510 E00E0000 		.4byte	.LASF194
 4775 1514 01       		.byte	0x1
 4776 1515 3601     		.2byte	0x136
 4777 1517 1B060000 		.4byte	0x61b
 4778 151b 03       		.uleb128 0x3
 4779 151c 91       		.byte	0x91
 4780 151d AC7F     		.sleb128 -84
ARM GAS  C:\Users\giris\AppData\Local\Temp\cceloVpD.s 			page 109


 4781 151f 1F       		.uleb128 0x1f
 4782 1520 A0090000 		.4byte	0x9a0
 4783 1524 04000000 		.4byte	.LBB135
 4784 1528 10000000 		.4byte	.LBE135-.LBB135
 4785 152c 01       		.byte	0x1
 4786 152d 3601     		.2byte	0x136
 4787 152f 5B150000 		.4byte	0x155b
 4788 1533 20       		.uleb128 0x20
 4789 1534 B1090000 		.4byte	0x9b1
 4790 1538 28       		.uleb128 0x28
 4791 1539 14000000 		.4byte	.LVL147
 4792 153d CD1A0000 		.4byte	0x1acd
 4793 1541 29       		.uleb128 0x29
 4794 1542 01       		.uleb128 0x1
 4795 1543 50       		.byte	0x50
 4796 1544 08       		.uleb128 0x8
 4797 1545 91       		.byte	0x91
 4798 1546 00       		.sleb128 0
 4799 1547 75       		.byte	0x75
 4800 1548 00       		.sleb128 0
 4801 1549 22       		.byte	0x22
 4802 154a 08       		.byte	0x8
 4803 154b 98       		.byte	0x98
 4804 154c 1C       		.byte	0x1c
 4805 154d 29       		.uleb128 0x29
 4806 154e 01       		.uleb128 0x1
 4807 154f 51       		.byte	0x51
 4808 1550 02       		.uleb128 0x2
 4809 1551 74       		.byte	0x74
 4810 1552 00       		.sleb128 0
 4811 1553 29       		.uleb128 0x29
 4812 1554 01       		.uleb128 0x1
 4813 1555 52       		.byte	0x52
 4814 1556 02       		.uleb128 0x2
 4815 1557 75       		.byte	0x75
 4816 1558 00       		.sleb128 0
 4817 1559 00       		.byte	0
 4818 155a 00       		.byte	0
 4819 155b 1F       		.uleb128 0x1f
 4820 155c CE090000 		.4byte	0x9ce
 4821 1560 2C000000 		.4byte	.LBB137
 4822 1564 3A000000 		.4byte	.LBE137-.LBB137
 4823 1568 01       		.byte	0x1
 4824 1569 3B01     		.2byte	0x13b
 4825 156b DC150000 		.4byte	0x15dc
 4826 156f 22       		.uleb128 0x22
 4827 1570 EB090000 		.4byte	0x9eb
 4828 1574 03       		.uleb128 0x3
 4829 1575 91       		.byte	0x91
 4830 1576 E87E     		.sleb128 -152
 4831 1578 20       		.uleb128 0x20
 4832 1579 DF090000 		.4byte	0x9df
 4833 157d 23       		.uleb128 0x23
 4834 157e 2C000000 		.4byte	.LBB138
 4835 1582 3A000000 		.4byte	.LBE138-.LBB138
 4836 1586 24       		.uleb128 0x24
 4837 1587 F7090000 		.4byte	0x9f7
ARM GAS  C:\Users\giris\AppData\Local\Temp\cceloVpD.s 			page 110


 4838 158b 00       		.byte	0
 4839 158c 25       		.uleb128 0x25
 4840 158d 030A0000 		.4byte	0xa03
 4841 1591 A0040000 		.4byte	.LLST37
 4842 1595 25       		.uleb128 0x25
 4843 1596 0F0A0000 		.4byte	0xa0f
 4844 159a D6040000 		.4byte	.LLST38
 4845 159e 2F       		.uleb128 0x2f
 4846 159f 4C000000 		.4byte	.LBB139
 4847 15a3 0A000000 		.4byte	.LBE139-.LBB139
 4848 15a7 BE150000 		.4byte	0x15be
 4849 15ab 25       		.uleb128 0x25
 4850 15ac 1C0A0000 		.4byte	0xa1c
 4851 15b0 E9040000 		.4byte	.LLST39
 4852 15b4 26       		.uleb128 0x26
 4853 15b5 56000000 		.4byte	.LVL153
 4854 15b9 C11A0000 		.4byte	0x1ac1
 4855 15bd 00       		.byte	0
 4856 15be 28       		.uleb128 0x28
 4857 15bf 38000000 		.4byte	.LVL150
 4858 15c3 CD1A0000 		.4byte	0x1acd
 4859 15c7 29       		.uleb128 0x29
 4860 15c8 01       		.uleb128 0x1
 4861 15c9 50       		.byte	0x50
 4862 15ca 02       		.uleb128 0x2
 4863 15cb 74       		.byte	0x74
 4864 15cc 00       		.sleb128 0
 4865 15cd 29       		.uleb128 0x29
 4866 15ce 01       		.uleb128 0x1
 4867 15cf 51       		.byte	0x51
 4868 15d0 02       		.uleb128 0x2
 4869 15d1 7D       		.byte	0x7d
 4870 15d2 00       		.sleb128 0
 4871 15d3 29       		.uleb128 0x29
 4872 15d4 01       		.uleb128 0x1
 4873 15d5 52       		.byte	0x52
 4874 15d6 02       		.uleb128 0x2
 4875 15d7 75       		.byte	0x75
 4876 15d8 00       		.sleb128 0
 4877 15d9 00       		.byte	0
 4878 15da 00       		.byte	0
 4879 15db 00       		.byte	0
 4880 15dc 30       		.uleb128 0x30
 4881 15dd 2C000000 		.4byte	.LVL149
 4882 15e1 CD1A0000 		.4byte	0x1acd
 4883 15e5 02160000 		.4byte	0x1602
 4884 15e9 29       		.uleb128 0x29
 4885 15ea 01       		.uleb128 0x1
 4886 15eb 50       		.byte	0x50
 4887 15ec 02       		.uleb128 0x2
 4888 15ed 7D       		.byte	0x7d
 4889 15ee 00       		.sleb128 0
 4890 15ef 29       		.uleb128 0x29
 4891 15f0 01       		.uleb128 0x1
 4892 15f1 51       		.byte	0x51
 4893 15f2 08       		.uleb128 0x8
 4894 15f3 91       		.byte	0x91
ARM GAS  C:\Users\giris\AppData\Local\Temp\cceloVpD.s 			page 111


 4895 15f4 00       		.sleb128 0
 4896 15f5 75       		.byte	0x75
 4897 15f6 00       		.sleb128 0
 4898 15f7 22       		.byte	0x22
 4899 15f8 08       		.byte	0x8
 4900 15f9 98       		.byte	0x98
 4901 15fa 1C       		.byte	0x1c
 4902 15fb 29       		.uleb128 0x29
 4903 15fc 01       		.uleb128 0x1
 4904 15fd 52       		.byte	0x52
 4905 15fe 02       		.uleb128 0x2
 4906 15ff 75       		.byte	0x75
 4907 1600 00       		.sleb128 0
 4908 1601 00       		.byte	0
 4909 1602 30       		.uleb128 0x30
 4910 1603 6E000000 		.4byte	.LVL158
 4911 1607 AC0E0000 		.4byte	0xeac
 4912 160b 1A160000 		.4byte	0x161a
 4913 160f 29       		.uleb128 0x29
 4914 1610 01       		.uleb128 0x1
 4915 1611 50       		.byte	0x50
 4916 1612 01       		.uleb128 0x1
 4917 1613 31       		.byte	0x31
 4918 1614 29       		.uleb128 0x29
 4919 1615 01       		.uleb128 0x1
 4920 1616 51       		.byte	0x51
 4921 1617 01       		.uleb128 0x1
 4922 1618 30       		.byte	0x30
 4923 1619 00       		.byte	0
 4924 161a 28       		.uleb128 0x28
 4925 161b 76000000 		.4byte	.LVL159
 4926 161f AC0E0000 		.4byte	0xeac
 4927 1623 29       		.uleb128 0x29
 4928 1624 01       		.uleb128 0x1
 4929 1625 50       		.byte	0x50
 4930 1626 01       		.uleb128 0x1
 4931 1627 31       		.byte	0x31
 4932 1628 29       		.uleb128 0x29
 4933 1629 01       		.uleb128 0x1
 4934 162a 51       		.byte	0x51
 4935 162b 01       		.uleb128 0x1
 4936 162c 31       		.byte	0x31
 4937 162d 00       		.byte	0
 4938 162e 00       		.byte	0
 4939 162f 1D       		.uleb128 0x1d
 4940 1630 98040000 		.4byte	.LASF202
 4941 1634 01       		.byte	0x1
 4942 1635 7701     		.2byte	0x177
 4943 1637 00000000 		.4byte	.LFB156
 4944 163b 0C000000 		.4byte	.LFE156-.LFB156
 4945 163f 01       		.uleb128 0x1
 4946 1640 9C       		.byte	0x9c
 4947 1641 5A160000 		.4byte	0x165a
 4948 1645 28       		.uleb128 0x28
 4949 1646 0A000000 		.4byte	.LVL160
 4950 164a AC0E0000 		.4byte	0xeac
 4951 164e 29       		.uleb128 0x29
ARM GAS  C:\Users\giris\AppData\Local\Temp\cceloVpD.s 			page 112


 4952 164f 01       		.uleb128 0x1
 4953 1650 50       		.byte	0x50
 4954 1651 01       		.uleb128 0x1
 4955 1652 34       		.byte	0x34
 4956 1653 29       		.uleb128 0x29
 4957 1654 01       		.uleb128 0x1
 4958 1655 51       		.byte	0x51
 4959 1656 01       		.uleb128 0x1
 4960 1657 31       		.byte	0x31
 4961 1658 00       		.byte	0
 4962 1659 00       		.byte	0
 4963 165a 1D       		.uleb128 0x1d
 4964 165b 25060000 		.4byte	.LASF203
 4965 165f 01       		.byte	0x1
 4966 1660 6A01     		.2byte	0x16a
 4967 1662 00000000 		.4byte	.LFB155
 4968 1666 70000000 		.4byte	.LFE155-.LFB155
 4969 166a 01       		.uleb128 0x1
 4970 166b 9C       		.byte	0x9c
 4971 166c 78170000 		.4byte	0x1778
 4972 1670 1E       		.uleb128 0x1e
 4973 1671 E00E0000 		.4byte	.LASF194
 4974 1675 01       		.byte	0x1
 4975 1676 6E01     		.2byte	0x16e
 4976 1678 1B060000 		.4byte	0x61b
 4977 167c 03       		.uleb128 0x3
 4978 167d 91       		.byte	0x91
 4979 167e AC7F     		.sleb128 -84
 4980 1680 1F       		.uleb128 0x1f
 4981 1681 A0090000 		.4byte	0x9a0
 4982 1685 04000000 		.4byte	.LBB140
 4983 1689 10000000 		.4byte	.LBE140-.LBB140
 4984 168d 01       		.byte	0x1
 4985 168e 6E01     		.2byte	0x16e
 4986 1690 BC160000 		.4byte	0x16bc
 4987 1694 20       		.uleb128 0x20
 4988 1695 B1090000 		.4byte	0x9b1
 4989 1699 28       		.uleb128 0x28
 4990 169a 14000000 		.4byte	.LVL162
 4991 169e CD1A0000 		.4byte	0x1acd
 4992 16a2 29       		.uleb128 0x29
 4993 16a3 01       		.uleb128 0x1
 4994 16a4 50       		.byte	0x50
 4995 16a5 08       		.uleb128 0x8
 4996 16a6 91       		.byte	0x91
 4997 16a7 00       		.sleb128 0
 4998 16a8 75       		.byte	0x75
 4999 16a9 00       		.sleb128 0
 5000 16aa 22       		.byte	0x22
 5001 16ab 08       		.byte	0x8
 5002 16ac 98       		.byte	0x98
 5003 16ad 1C       		.byte	0x1c
 5004 16ae 29       		.uleb128 0x29
 5005 16af 01       		.uleb128 0x1
 5006 16b0 51       		.byte	0x51
 5007 16b1 02       		.uleb128 0x2
 5008 16b2 74       		.byte	0x74
ARM GAS  C:\Users\giris\AppData\Local\Temp\cceloVpD.s 			page 113


 5009 16b3 00       		.sleb128 0
 5010 16b4 29       		.uleb128 0x29
 5011 16b5 01       		.uleb128 0x1
 5012 16b6 52       		.byte	0x52
 5013 16b7 02       		.uleb128 0x2
 5014 16b8 75       		.byte	0x75
 5015 16b9 00       		.sleb128 0
 5016 16ba 00       		.byte	0
 5017 16bb 00       		.byte	0
 5018 16bc 1F       		.uleb128 0x1f
 5019 16bd CE090000 		.4byte	0x9ce
 5020 16c1 26000000 		.4byte	.LBB142
 5021 16c5 3A000000 		.4byte	.LBE142-.LBB142
 5022 16c9 01       		.byte	0x1
 5023 16ca 7201     		.2byte	0x172
 5024 16cc 3D170000 		.4byte	0x173d
 5025 16d0 22       		.uleb128 0x22
 5026 16d1 EB090000 		.4byte	0x9eb
 5027 16d5 03       		.uleb128 0x3
 5028 16d6 91       		.byte	0x91
 5029 16d7 E87E     		.sleb128 -152
 5030 16d9 20       		.uleb128 0x20
 5031 16da DF090000 		.4byte	0x9df
 5032 16de 23       		.uleb128 0x23
 5033 16df 26000000 		.4byte	.LBB143
 5034 16e3 3A000000 		.4byte	.LBE143-.LBB143
 5035 16e7 24       		.uleb128 0x24
 5036 16e8 F7090000 		.4byte	0x9f7
 5037 16ec 00       		.byte	0
 5038 16ed 25       		.uleb128 0x25
 5039 16ee 030A0000 		.4byte	0xa03
 5040 16f2 02050000 		.4byte	.LLST40
 5041 16f6 25       		.uleb128 0x25
 5042 16f7 0F0A0000 		.4byte	0xa0f
 5043 16fb 38050000 		.4byte	.LLST41
 5044 16ff 2F       		.uleb128 0x2f
 5045 1700 46000000 		.4byte	.LBB144
 5046 1704 0A000000 		.4byte	.LBE144-.LBB144
 5047 1708 1F170000 		.4byte	0x171f
 5048 170c 25       		.uleb128 0x25
 5049 170d 1C0A0000 		.4byte	0xa1c
 5050 1711 4B050000 		.4byte	.LLST42
 5051 1715 26       		.uleb128 0x26
 5052 1716 50000000 		.4byte	.LVL168
 5053 171a C11A0000 		.4byte	0x1ac1
 5054 171e 00       		.byte	0
 5055 171f 28       		.uleb128 0x28
 5056 1720 32000000 		.4byte	.LVL165
 5057 1724 CD1A0000 		.4byte	0x1acd
 5058 1728 29       		.uleb128 0x29
 5059 1729 01       		.uleb128 0x1
 5060 172a 50       		.byte	0x50
 5061 172b 02       		.uleb128 0x2
 5062 172c 74       		.byte	0x74
 5063 172d 00       		.sleb128 0
 5064 172e 29       		.uleb128 0x29
 5065 172f 01       		.uleb128 0x1
ARM GAS  C:\Users\giris\AppData\Local\Temp\cceloVpD.s 			page 114


 5066 1730 51       		.byte	0x51
 5067 1731 02       		.uleb128 0x2
 5068 1732 7D       		.byte	0x7d
 5069 1733 00       		.sleb128 0
 5070 1734 29       		.uleb128 0x29
 5071 1735 01       		.uleb128 0x1
 5072 1736 52       		.byte	0x52
 5073 1737 02       		.uleb128 0x2
 5074 1738 75       		.byte	0x75
 5075 1739 00       		.sleb128 0
 5076 173a 00       		.byte	0
 5077 173b 00       		.byte	0
 5078 173c 00       		.byte	0
 5079 173d 30       		.uleb128 0x30
 5080 173e 26000000 		.4byte	.LVL164
 5081 1742 CD1A0000 		.4byte	0x1acd
 5082 1746 63170000 		.4byte	0x1763
 5083 174a 29       		.uleb128 0x29
 5084 174b 01       		.uleb128 0x1
 5085 174c 50       		.byte	0x50
 5086 174d 02       		.uleb128 0x2
 5087 174e 7D       		.byte	0x7d
 5088 174f 00       		.sleb128 0
 5089 1750 29       		.uleb128 0x29
 5090 1751 01       		.uleb128 0x1
 5091 1752 51       		.byte	0x51
 5092 1753 08       		.uleb128 0x8
 5093 1754 91       		.byte	0x91
 5094 1755 00       		.sleb128 0
 5095 1756 75       		.byte	0x75
 5096 1757 00       		.sleb128 0
 5097 1758 22       		.byte	0x22
 5098 1759 08       		.byte	0x8
 5099 175a 98       		.byte	0x98
 5100 175b 1C       		.byte	0x1c
 5101 175c 29       		.uleb128 0x29
 5102 175d 01       		.uleb128 0x1
 5103 175e 52       		.byte	0x52
 5104 175f 02       		.uleb128 0x2
 5105 1760 75       		.byte	0x75
 5106 1761 00       		.sleb128 0
 5107 1762 00       		.byte	0
 5108 1763 28       		.uleb128 0x28
 5109 1764 68000000 		.4byte	.LVL173
 5110 1768 AC0E0000 		.4byte	0xeac
 5111 176c 29       		.uleb128 0x29
 5112 176d 01       		.uleb128 0x1
 5113 176e 50       		.byte	0x50
 5114 176f 01       		.uleb128 0x1
 5115 1770 33       		.byte	0x33
 5116 1771 29       		.uleb128 0x29
 5117 1772 01       		.uleb128 0x1
 5118 1773 51       		.byte	0x51
 5119 1774 01       		.uleb128 0x1
 5120 1775 31       		.byte	0x31
 5121 1776 00       		.byte	0
 5122 1777 00       		.byte	0
ARM GAS  C:\Users\giris\AppData\Local\Temp\cceloVpD.s 			page 115


 5123 1778 1D       		.uleb128 0x1d
 5124 1779 460B0000 		.4byte	.LASF204
 5125 177d 01       		.byte	0x1
 5126 177e 6301     		.2byte	0x163
 5127 1780 00000000 		.4byte	.LFB154
 5128 1784 0C000000 		.4byte	.LFE154-.LFB154
 5129 1788 01       		.uleb128 0x1
 5130 1789 9C       		.byte	0x9c
 5131 178a A3170000 		.4byte	0x17a3
 5132 178e 28       		.uleb128 0x28
 5133 178f 0A000000 		.4byte	.LVL174
 5134 1793 AC0E0000 		.4byte	0xeac
 5135 1797 29       		.uleb128 0x29
 5136 1798 01       		.uleb128 0x1
 5137 1799 50       		.byte	0x50
 5138 179a 01       		.uleb128 0x1
 5139 179b 32       		.byte	0x32
 5140 179c 29       		.uleb128 0x29
 5141 179d 01       		.uleb128 0x1
 5142 179e 51       		.byte	0x51
 5143 179f 01       		.uleb128 0x1
 5144 17a0 31       		.byte	0x31
 5145 17a1 00       		.byte	0
 5146 17a2 00       		.byte	0
 5147 17a3 1D       		.uleb128 0x1d
 5148 17a4 910E0000 		.4byte	.LASF205
 5149 17a8 01       		.byte	0x1
 5150 17a9 5C01     		.2byte	0x15c
 5151 17ab 00000000 		.4byte	.LFB153
 5152 17af 0C000000 		.4byte	.LFE153-.LFB153
 5153 17b3 01       		.uleb128 0x1
 5154 17b4 9C       		.byte	0x9c
 5155 17b5 CE170000 		.4byte	0x17ce
 5156 17b9 28       		.uleb128 0x28
 5157 17ba 0A000000 		.4byte	.LVL175
 5158 17be AC0E0000 		.4byte	0xeac
 5159 17c2 29       		.uleb128 0x29
 5160 17c3 01       		.uleb128 0x1
 5161 17c4 50       		.byte	0x50
 5162 17c5 01       		.uleb128 0x1
 5163 17c6 31       		.byte	0x31
 5164 17c7 29       		.uleb128 0x29
 5165 17c8 01       		.uleb128 0x1
 5166 17c9 51       		.byte	0x51
 5167 17ca 01       		.uleb128 0x1
 5168 17cb 31       		.byte	0x31
 5169 17cc 00       		.byte	0
 5170 17cd 00       		.byte	0
 5171 17ce 31       		.uleb128 0x31
 5172 17cf D80A0000 		.4byte	.LASF236
 5173 17d3 01       		.byte	0x1
 5174 17d4 BE       		.byte	0xbe
 5175 17d5 00000000 		.4byte	.LFB144
 5176 17d9 A8000000 		.4byte	.LFE144-.LFB144
 5177 17dd 01       		.uleb128 0x1
 5178 17de 9C       		.byte	0x9c
 5179 17df 67180000 		.4byte	0x1867
ARM GAS  C:\Users\giris\AppData\Local\Temp\cceloVpD.s 			page 116


 5180 17e3 2D       		.uleb128 0x2d
 5181 17e4 EA0A0000 		.4byte	.LASF183
 5182 17e8 01       		.byte	0x1
 5183 17e9 C2       		.byte	0xc2
 5184 17ea B3070000 		.4byte	0x7b3
 5185 17ee 02       		.uleb128 0x2
 5186 17ef 91       		.byte	0x91
 5187 17f0 50       		.sleb128 -48
 5188 17f1 2E       		.uleb128 0x2e
 5189 17f2 72090000 		.4byte	0x972
 5190 17f6 04000000 		.4byte	.LBB145
 5191 17fa 12000000 		.4byte	.LBE145-.LBB145
 5192 17fe 01       		.byte	0x1
 5193 17ff C4       		.byte	0xc4
 5194 1800 0A180000 		.4byte	0x180a
 5195 1804 20       		.uleb128 0x20
 5196 1805 83090000 		.4byte	0x983
 5197 1809 00       		.byte	0
 5198 180a 32       		.uleb128 0x32
 5199 180b 0B090000 		.4byte	0x90b
 5200 180f 5C000000 		.4byte	.LBB147
 5201 1813 44000000 		.4byte	.LBE147-.LBB147
 5202 1817 01       		.byte	0x1
 5203 1818 DA       		.byte	0xda
 5204 1819 22       		.uleb128 0x22
 5205 181a 28090000 		.4byte	0x928
 5206 181e 03       		.uleb128 0x3
 5207 181f 91       		.byte	0x91
 5208 1820 B87F     		.sleb128 -72
 5209 1822 20       		.uleb128 0x20
 5210 1823 1C090000 		.4byte	0x91c
 5211 1827 23       		.uleb128 0x23
 5212 1828 5C000000 		.4byte	.LBB148
 5213 182c 44000000 		.4byte	.LBE148-.LBB148
 5214 1830 24       		.uleb128 0x24
 5215 1831 34090000 		.4byte	0x934
 5216 1835 00       		.byte	0
 5217 1836 25       		.uleb128 0x25
 5218 1837 40090000 		.4byte	0x940
 5219 183b 64050000 		.4byte	.LLST43
 5220 183f 25       		.uleb128 0x25
 5221 1840 4C090000 		.4byte	0x94c
 5222 1844 9A050000 		.4byte	.LLST44
 5223 1848 23       		.uleb128 0x23
 5224 1849 86000000 		.4byte	.LBB149
 5225 184d 0A000000 		.4byte	.LBE149-.LBB149
 5226 1851 25       		.uleb128 0x25
 5227 1852 59090000 		.4byte	0x959
 5228 1856 AD050000 		.4byte	.LLST45
 5229 185a 26       		.uleb128 0x26
 5230 185b 90000000 		.4byte	.LVL182
 5231 185f C11A0000 		.4byte	0x1ac1
 5232 1863 00       		.byte	0
 5233 1864 00       		.byte	0
 5234 1865 00       		.byte	0
 5235 1866 00       		.byte	0
 5236 1867 33       		.uleb128 0x33
ARM GAS  C:\Users\giris\AppData\Local\Temp\cceloVpD.s 			page 117


 5237 1868 64090000 		.4byte	.LASF237
 5238 186c 01       		.byte	0x1
 5239 186d DD       		.byte	0xdd
 5240 186e 00000000 		.4byte	.LFB145
 5241 1872 28000000 		.4byte	.LFE145-.LFB145
 5242 1876 01       		.uleb128 0x1
 5243 1877 9C       		.byte	0x9c
 5244 1878 C7180000 		.4byte	0x18c7
 5245 187c 2C       		.uleb128 0x2c
 5246 187d 8A060000 		.4byte	.LASF115
 5247 1881 01       		.byte	0x1
 5248 1882 DD       		.byte	0xdd
 5249 1883 66030000 		.4byte	0x366
 5250 1887 C6050000 		.4byte	.LLST46
 5251 188b 34       		.uleb128 0x34
 5252 188c CB060000 		.4byte	.LASF206
 5253 1890 01       		.byte	0x1
 5254 1891 DF       		.byte	0xdf
 5255 1892 66030000 		.4byte	0x366
 5256 1896 E7050000 		.4byte	.LLST47
 5257 189a 28       		.uleb128 0x28
 5258 189b 1C000000 		.4byte	.LVL191
 5259 189f D61A0000 		.4byte	0x1ad6
 5260 18a3 29       		.uleb128 0x29
 5261 18a4 01       		.uleb128 0x1
 5262 18a5 50       		.byte	0x50
 5263 18a6 03       		.uleb128 0x3
 5264 18a7 74       		.byte	0x74
 5265 18a8 D400     		.sleb128 84
 5266 18aa 29       		.uleb128 0x29
 5267 18ab 01       		.uleb128 0x1
 5268 18ac 51       		.byte	0x51
 5269 18ad 01       		.uleb128 0x1
 5270 18ae 33       		.byte	0x33
 5271 18af 29       		.uleb128 0x29
 5272 18b0 01       		.uleb128 0x1
 5273 18b1 52       		.byte	0x52
 5274 18b2 03       		.uleb128 0x3
 5275 18b3 74       		.byte	0x74
 5276 18b4 C800     		.sleb128 72
 5277 18b6 29       		.uleb128 0x29
 5278 18b7 01       		.uleb128 0x1
 5279 18b8 53       		.byte	0x53
 5280 18b9 01       		.uleb128 0x1
 5281 18ba 31       		.byte	0x31
 5282 18bb 29       		.uleb128 0x29
 5283 18bc 02       		.uleb128 0x2
 5284 18bd 7D       		.byte	0x7d
 5285 18be 04       		.sleb128 4
 5286 18bf 05       		.uleb128 0x5
 5287 18c0 03       		.byte	0x3
 5288 18c1 00000000 		.4byte	.LANCHOR1
 5289 18c5 00       		.byte	0
 5290 18c6 00       		.byte	0
 5291 18c7 0E       		.uleb128 0xe
 5292 18c8 D7180000 		.4byte	0x18d7
 5293 18cc D7180000 		.4byte	0x18d7
ARM GAS  C:\Users\giris\AppData\Local\Temp\cceloVpD.s 			page 118


 5294 18d0 27       		.uleb128 0x27
 5295 18d1 7D010000 		.4byte	0x17d
 5296 18d5 02       		.byte	0x2
 5297 18d6 00       		.byte	0
 5298 18d7 14       		.uleb128 0x14
 5299 18d8 E7040000 		.4byte	0x4e7
 5300 18dc 2D       		.uleb128 0x2d
 5301 18dd 55010000 		.4byte	.LASF207
 5302 18e1 01       		.byte	0x1
 5303 18e2 7E       		.byte	0x7e
 5304 18e3 ED180000 		.4byte	0x18ed
 5305 18e7 05       		.uleb128 0x5
 5306 18e8 03       		.byte	0x3
 5307 18e9 54000000 		.4byte	CLOCK_Container_Transitions
 5308 18ed 14       		.uleb128 0x14
 5309 18ee C7180000 		.4byte	0x18c7
 5310 18f2 35       		.uleb128 0x35
 5311 18f3 BA090000 		.4byte	.LASF208
 5312 18f7 01       		.byte	0x1
 5313 18f8 85       		.byte	0x85
 5314 18f9 E2040000 		.4byte	0x4e2
 5315 18fd 03       		.byte	0x3
 5316 18fe 0E       		.uleb128 0xe
 5317 18ff 0E190000 		.4byte	0x190e
 5318 1903 0E190000 		.4byte	0x190e
 5319 1907 27       		.uleb128 0x27
 5320 1908 7D010000 		.4byte	0x17d
 5321 190c 00       		.byte	0
 5322 190d 00       		.byte	0
 5323 190e 14       		.uleb128 0x14
 5324 190f 1F050000 		.4byte	0x51f
 5325 1913 2D       		.uleb128 0x2d
 5326 1914 71090000 		.4byte	.LASF209
 5327 1918 01       		.byte	0x1
 5328 1919 88       		.byte	0x88
 5329 191a 24190000 		.4byte	0x1924
 5330 191e 05       		.uleb128 0x5
 5331 191f 03       		.byte	0x3
 5332 1920 48000000 		.4byte	CLOCK_Container_Actions
 5333 1924 14       		.uleb128 0x14
 5334 1925 FE180000 		.4byte	0x18fe
 5335 1929 35       		.uleb128 0x35
 5336 192a 1F0F0000 		.4byte	.LASF210
 5337 192e 01       		.byte	0x1
 5338 192f 8D       		.byte	0x8d
 5339 1930 E2040000 		.4byte	0x4e2
 5340 1934 01       		.byte	0x1
 5341 1935 2D       		.uleb128 0x2d
 5342 1936 D7060000 		.4byte	.LASF211
 5343 193a 01       		.byte	0x1
 5344 193b A9       		.byte	0xa9
 5345 193c 46190000 		.4byte	0x1946
 5346 1940 05       		.uleb128 0x5
 5347 1941 03       		.byte	0x3
 5348 1942 24000000 		.4byte	CLOCK_Widget_Transitions
 5349 1946 14       		.uleb128 0x14
 5350 1947 C7180000 		.4byte	0x18c7
ARM GAS  C:\Users\giris\AppData\Local\Temp\cceloVpD.s 			page 119


 5351 194b 35       		.uleb128 0x35
 5352 194c 82070000 		.4byte	.LASF212
 5353 1950 01       		.byte	0x1
 5354 1951 B0       		.byte	0xb0
 5355 1952 E2040000 		.4byte	0x4e2
 5356 1956 03       		.byte	0x3
 5357 1957 0E       		.uleb128 0xe
 5358 1958 0E190000 		.4byte	0x190e
 5359 195c 67190000 		.4byte	0x1967
 5360 1960 27       		.uleb128 0x27
 5361 1961 7D010000 		.4byte	0x17d
 5362 1965 02       		.byte	0x2
 5363 1966 00       		.byte	0
 5364 1967 2D       		.uleb128 0x2d
 5365 1968 320E0000 		.4byte	.LASF213
 5366 196c 01       		.byte	0x1
 5367 196d B3       		.byte	0xb3
 5368 196e 78190000 		.4byte	0x1978
 5369 1972 05       		.uleb128 0x5
 5370 1973 03       		.byte	0x3
 5371 1974 00000000 		.4byte	CLOCK_Widget_Actions
 5372 1978 14       		.uleb128 0x14
 5373 1979 57190000 		.4byte	0x1957
 5374 197d 35       		.uleb128 0x35
 5375 197e DD050000 		.4byte	.LASF214
 5376 1982 01       		.byte	0x1
 5377 1983 BA       		.byte	0xba
 5378 1984 E2040000 		.4byte	0x4e2
 5379 1988 03       		.byte	0x3
 5380 1989 36       		.uleb128 0x36
 5381 198a 9E060000 		.4byte	.LASF215
 5382 198e 12       		.byte	0x12
 5383 198f 40       		.byte	0x40
 5384 1990 92030000 		.4byte	0x392
 5385 1994 36       		.uleb128 0x36
 5386 1995 50080000 		.4byte	.LASF216
 5387 1999 12       		.byte	0x12
 5388 199a 47       		.byte	0x47
 5389 199b 9D030000 		.4byte	0x39d
 5390 199f 36       		.uleb128 0x36
 5391 19a0 A1080000 		.4byte	.LASF217
 5392 19a4 12       		.byte	0x12
 5393 19a5 4A       		.byte	0x4a
 5394 19a6 92030000 		.4byte	0x392
 5395 19aa 36       		.uleb128 0x36
 5396 19ab 7F040000 		.4byte	.LASF218
 5397 19af 13       		.byte	0x13
 5398 19b0 48       		.byte	0x48
 5399 19b1 A8030000 		.4byte	0x3a8
 5400 19b5 36       		.uleb128 0x36
 5401 19b6 130E0000 		.4byte	.LASF219
 5402 19ba 14       		.byte	0x14
 5403 19bb 44       		.byte	0x44
 5404 19bc 92030000 		.4byte	0x392
 5405 19c0 37       		.uleb128 0x37
 5406 19c1 05020000 		.4byte	.LASF220
 5407 19c5 15       		.byte	0x15
ARM GAS  C:\Users\giris\AppData\Local\Temp\cceloVpD.s 			page 120


 5408 19c6 1207     		.2byte	0x712
 5409 19c8 CC190000 		.4byte	0x19cc
 5410 19cc 38       		.uleb128 0x38
 5411 19cd 84010000 		.4byte	0x184
 5412 19d1 36       		.uleb128 0x36
 5413 19d2 F0060000 		.4byte	.LASF221
 5414 19d6 16       		.byte	0x16
 5415 19d7 29       		.byte	0x29
 5416 19d8 87070000 		.4byte	0x787
 5417 19dc 36       		.uleb128 0x36
 5418 19dd CE070000 		.4byte	.LASF222
 5419 19e1 16       		.byte	0x16
 5420 19e2 38       		.byte	0x38
 5421 19e3 00090000 		.4byte	0x900
 5422 19e7 39       		.uleb128 0x39
 5423 19e8 02060000 		.4byte	.LASF223
 5424 19ec 01       		.byte	0x1
 5425 19ed 2A       		.byte	0x2a
 5426 19ee 71030000 		.4byte	0x371
 5427 19f2 05       		.uleb128 0x5
 5428 19f3 03       		.byte	0x3
 5429 19f4 00000000 		.4byte	init_state
 5430 19f8 0E       		.uleb128 0xe
 5431 19f9 081A0000 		.4byte	0x1a08
 5432 19fd 081A0000 		.4byte	0x1a08
 5433 1a01 27       		.uleb128 0x27
 5434 1a02 7D010000 		.4byte	0x17d
 5435 1a06 01       		.byte	0x1
 5436 1a07 00       		.byte	0
 5437 1a08 14       		.uleb128 0x14
 5438 1a09 89040000 		.4byte	0x489
 5439 1a0d 39       		.uleb128 0x39
 5440 1a0e BC000000 		.4byte	.LASF224
 5441 1a12 01       		.byte	0x1
 5442 1a13 63       		.byte	0x63
 5443 1a14 1E1A0000 		.4byte	0x1a1e
 5444 1a18 05       		.uleb128 0x5
 5445 1a19 03       		.byte	0x3
 5446 1a1a 00000000 		.4byte	STATE_CLOCK_C_ISDISPLAYING_Transitions
 5447 1a1e 14       		.uleb128 0x14
 5448 1a1f F8190000 		.4byte	0x19f8
 5449 1a23 0E       		.uleb128 0xe
 5450 1a24 081A0000 		.4byte	0x1a08
 5451 1a28 331A0000 		.4byte	0x1a33
 5452 1a2c 27       		.uleb128 0x27
 5453 1a2d 7D010000 		.4byte	0x17d
 5454 1a31 03       		.byte	0x3
 5455 1a32 00       		.byte	0
 5456 1a33 39       		.uleb128 0x39
 5457 1a34 83000000 		.4byte	.LASF225
 5458 1a38 01       		.byte	0x1
 5459 1a39 6B       		.byte	0x6b
 5460 1a3a 441A0000 		.4byte	0x1a44
 5461 1a3e 05       		.uleb128 0x5
 5462 1a3f 03       		.byte	0x3
 5463 1a40 00000000 		.4byte	STATE_CLOCK_C_ISEDITINGHOURS_Transitions
 5464 1a44 14       		.uleb128 0x14
ARM GAS  C:\Users\giris\AppData\Local\Temp\cceloVpD.s 			page 121


 5465 1a45 231A0000 		.4byte	0x1a23
 5466 1a49 39       		.uleb128 0x39
 5467 1a4a 5E030000 		.4byte	.LASF226
 5468 1a4e 01       		.byte	0x1
 5469 1a4f 75       		.byte	0x75
 5470 1a50 5A1A0000 		.4byte	0x1a5a
 5471 1a54 05       		.uleb128 0x5
 5472 1a55 03       		.byte	0x3
 5473 1a56 00000000 		.4byte	STATE_CLOCK_C_ISEDITINGMINUTES_Transitions
 5474 1a5a 14       		.uleb128 0x14
 5475 1a5b 231A0000 		.4byte	0x1a23
 5476 1a5f 0E       		.uleb128 0xe
 5477 1a60 081A0000 		.4byte	0x1a08
 5478 1a64 6F1A0000 		.4byte	0x1a6f
 5479 1a68 27       		.uleb128 0x27
 5480 1a69 7D010000 		.4byte	0x17d
 5481 1a6d 00       		.byte	0
 5482 1a6e 00       		.byte	0
 5483 1a6f 39       		.uleb128 0x39
 5484 1a70 DD020000 		.4byte	.LASF227
 5485 1a74 01       		.byte	0x1
 5486 1a75 92       		.byte	0x92
 5487 1a76 801A0000 		.4byte	0x1a80
 5488 1a7a 05       		.uleb128 0x5
 5489 1a7b 03       		.byte	0x3
 5490 1a7c 00000000 		.4byte	STATE_CLOCK_W_ISDISPLAYING_Transitions
 5491 1a80 14       		.uleb128 0x14
 5492 1a81 5F1A0000 		.4byte	0x1a5f
 5493 1a85 0E       		.uleb128 0xe
 5494 1a86 081A0000 		.4byte	0x1a08
 5495 1a8a 951A0000 		.4byte	0x1a95
 5496 1a8e 27       		.uleb128 0x27
 5497 1a8f 7D010000 		.4byte	0x17d
 5498 1a93 02       		.byte	0x2
 5499 1a94 00       		.byte	0
 5500 1a95 39       		.uleb128 0x39
 5501 1a96 A40A0000 		.4byte	.LASF228
 5502 1a9a 01       		.byte	0x1
 5503 1a9b 99       		.byte	0x99
 5504 1a9c A61A0000 		.4byte	0x1aa6
 5505 1aa0 05       		.uleb128 0x5
 5506 1aa1 03       		.byte	0x3
 5507 1aa2 00000000 		.4byte	STATE_CLOCK_W_ISEDITING_Transitions
 5508 1aa6 14       		.uleb128 0x14
 5509 1aa7 851A0000 		.4byte	0x1a85
 5510 1aab 39       		.uleb128 0x39
 5511 1aac ED090000 		.4byte	.LASF229
 5512 1ab0 01       		.byte	0x1
 5513 1ab1 A2       		.byte	0xa2
 5514 1ab2 BC1A0000 		.4byte	0x1abc
 5515 1ab6 05       		.uleb128 0x5
 5516 1ab7 03       		.byte	0x3
 5517 1ab8 00000000 		.4byte	STATE_CLOCK_W_ISAUTOINCREMENT_Transitions
 5518 1abc 14       		.uleb128 0x14
 5519 1abd F8190000 		.4byte	0x19f8
 5520 1ac1 3A       		.uleb128 0x3a
 5521 1ac2 7F010000 		.4byte	.LASF230
ARM GAS  C:\Users\giris\AppData\Local\Temp\cceloVpD.s 			page 122


 5522 1ac6 7F010000 		.4byte	.LASF230
 5523 1aca 17       		.byte	0x17
 5524 1acb 4A01     		.2byte	0x14a
 5525 1acd 3B       		.uleb128 0x3b
 5526 1ace B8030000 		.4byte	.LASF238
 5527 1ad2 B8030000 		.4byte	.LASF238
 5528 1ad6 3C       		.uleb128 0x3c
 5529 1ad7 57050000 		.4byte	.LASF231
 5530 1adb 57050000 		.4byte	.LASF231
 5531 1adf 0F       		.byte	0xf
 5532 1ae0 9B       		.byte	0x9b
 5533 1ae1 00       		.byte	0
 5534              		.section	.debug_abbrev,"",%progbits
 5535              	.Ldebug_abbrev0:
 5536 0000 01       		.uleb128 0x1
 5537 0001 11       		.uleb128 0x11
 5538 0002 01       		.byte	0x1
 5539 0003 25       		.uleb128 0x25
 5540 0004 0E       		.uleb128 0xe
 5541 0005 13       		.uleb128 0x13
 5542 0006 0B       		.uleb128 0xb
 5543 0007 03       		.uleb128 0x3
 5544 0008 0E       		.uleb128 0xe
 5545 0009 1B       		.uleb128 0x1b
 5546 000a 0E       		.uleb128 0xe
 5547 000b 55       		.uleb128 0x55
 5548 000c 17       		.uleb128 0x17
 5549 000d 11       		.uleb128 0x11
 5550 000e 01       		.uleb128 0x1
 5551 000f 10       		.uleb128 0x10
 5552 0010 17       		.uleb128 0x17
 5553 0011 00       		.byte	0
 5554 0012 00       		.byte	0
 5555 0013 02       		.uleb128 0x2
 5556 0014 24       		.uleb128 0x24
 5557 0015 00       		.byte	0
 5558 0016 0B       		.uleb128 0xb
 5559 0017 0B       		.uleb128 0xb
 5560 0018 3E       		.uleb128 0x3e
 5561 0019 0B       		.uleb128 0xb
 5562 001a 03       		.uleb128 0x3
 5563 001b 0E       		.uleb128 0xe
 5564 001c 00       		.byte	0
 5565 001d 00       		.byte	0
 5566 001e 03       		.uleb128 0x3
 5567 001f 16       		.uleb128 0x16
 5568 0020 00       		.byte	0
 5569 0021 03       		.uleb128 0x3
 5570 0022 0E       		.uleb128 0xe
 5571 0023 3A       		.uleb128 0x3a
 5572 0024 0B       		.uleb128 0xb
 5573 0025 3B       		.uleb128 0x3b
 5574 0026 0B       		.uleb128 0xb
 5575 0027 49       		.uleb128 0x49
 5576 0028 13       		.uleb128 0x13
 5577 0029 00       		.byte	0
 5578 002a 00       		.byte	0
ARM GAS  C:\Users\giris\AppData\Local\Temp\cceloVpD.s 			page 123


 5579 002b 04       		.uleb128 0x4
 5580 002c 04       		.uleb128 0x4
 5581 002d 01       		.byte	0x1
 5582 002e 0B       		.uleb128 0xb
 5583 002f 0B       		.uleb128 0xb
 5584 0030 49       		.uleb128 0x49
 5585 0031 13       		.uleb128 0x13
 5586 0032 3A       		.uleb128 0x3a
 5587 0033 0B       		.uleb128 0xb
 5588 0034 3B       		.uleb128 0x3b
 5589 0035 0B       		.uleb128 0xb
 5590 0036 01       		.uleb128 0x1
 5591 0037 13       		.uleb128 0x13
 5592 0038 00       		.byte	0
 5593 0039 00       		.byte	0
 5594 003a 05       		.uleb128 0x5
 5595 003b 28       		.uleb128 0x28
 5596 003c 00       		.byte	0
 5597 003d 03       		.uleb128 0x3
 5598 003e 0E       		.uleb128 0xe
 5599 003f 1C       		.uleb128 0x1c
 5600 0040 0B       		.uleb128 0xb
 5601 0041 00       		.byte	0
 5602 0042 00       		.byte	0
 5603 0043 06       		.uleb128 0x6
 5604 0044 28       		.uleb128 0x28
 5605 0045 00       		.byte	0
 5606 0046 03       		.uleb128 0x3
 5607 0047 0E       		.uleb128 0xe
 5608 0048 1C       		.uleb128 0x1c
 5609 0049 0D       		.uleb128 0xd
 5610 004a 00       		.byte	0
 5611 004b 00       		.byte	0
 5612 004c 07       		.uleb128 0x7
 5613 004d 24       		.uleb128 0x24
 5614 004e 00       		.byte	0
 5615 004f 0B       		.uleb128 0xb
 5616 0050 0B       		.uleb128 0xb
 5617 0051 3E       		.uleb128 0x3e
 5618 0052 0B       		.uleb128 0xb
 5619 0053 03       		.uleb128 0x3
 5620 0054 08       		.uleb128 0x8
 5621 0055 00       		.byte	0
 5622 0056 00       		.byte	0
 5623 0057 08       		.uleb128 0x8
 5624 0058 28       		.uleb128 0x28
 5625 0059 00       		.byte	0
 5626 005a 03       		.uleb128 0x3
 5627 005b 0E       		.uleb128 0xe
 5628 005c 1C       		.uleb128 0x1c
 5629 005d 05       		.uleb128 0x5
 5630 005e 00       		.byte	0
 5631 005f 00       		.byte	0
 5632 0060 09       		.uleb128 0x9
 5633 0061 28       		.uleb128 0x28
 5634 0062 00       		.byte	0
 5635 0063 03       		.uleb128 0x3
ARM GAS  C:\Users\giris\AppData\Local\Temp\cceloVpD.s 			page 124


 5636 0064 08       		.uleb128 0x8
 5637 0065 1C       		.uleb128 0x1c
 5638 0066 0B       		.uleb128 0xb
 5639 0067 00       		.byte	0
 5640 0068 00       		.byte	0
 5641 0069 0A       		.uleb128 0xa
 5642 006a 13       		.uleb128 0x13
 5643 006b 01       		.byte	0x1
 5644 006c 0B       		.uleb128 0xb
 5645 006d 0B       		.uleb128 0xb
 5646 006e 3A       		.uleb128 0x3a
 5647 006f 0B       		.uleb128 0xb
 5648 0070 3B       		.uleb128 0x3b
 5649 0071 0B       		.uleb128 0xb
 5650 0072 01       		.uleb128 0x1
 5651 0073 13       		.uleb128 0x13
 5652 0074 00       		.byte	0
 5653 0075 00       		.byte	0
 5654 0076 0B       		.uleb128 0xb
 5655 0077 0D       		.uleb128 0xd
 5656 0078 00       		.byte	0
 5657 0079 03       		.uleb128 0x3
 5658 007a 0E       		.uleb128 0xe
 5659 007b 3A       		.uleb128 0x3a
 5660 007c 0B       		.uleb128 0xb
 5661 007d 3B       		.uleb128 0x3b
 5662 007e 0B       		.uleb128 0xb
 5663 007f 49       		.uleb128 0x49
 5664 0080 13       		.uleb128 0x13
 5665 0081 38       		.uleb128 0x38
 5666 0082 0B       		.uleb128 0xb
 5667 0083 00       		.byte	0
 5668 0084 00       		.byte	0
 5669 0085 0C       		.uleb128 0xc
 5670 0086 13       		.uleb128 0x13
 5671 0087 01       		.byte	0x1
 5672 0088 03       		.uleb128 0x3
 5673 0089 0E       		.uleb128 0xe
 5674 008a 0B       		.uleb128 0xb
 5675 008b 0B       		.uleb128 0xb
 5676 008c 3A       		.uleb128 0x3a
 5677 008d 0B       		.uleb128 0xb
 5678 008e 3B       		.uleb128 0x3b
 5679 008f 0B       		.uleb128 0xb
 5680 0090 01       		.uleb128 0x1
 5681 0091 13       		.uleb128 0x13
 5682 0092 00       		.byte	0
 5683 0093 00       		.byte	0
 5684 0094 0D       		.uleb128 0xd
 5685 0095 16       		.uleb128 0x16
 5686 0096 00       		.byte	0
 5687 0097 03       		.uleb128 0x3
 5688 0098 0E       		.uleb128 0xe
 5689 0099 3A       		.uleb128 0x3a
 5690 009a 0B       		.uleb128 0xb
 5691 009b 3B       		.uleb128 0x3b
 5692 009c 05       		.uleb128 0x5
ARM GAS  C:\Users\giris\AppData\Local\Temp\cceloVpD.s 			page 125


 5693 009d 49       		.uleb128 0x49
 5694 009e 13       		.uleb128 0x13
 5695 009f 00       		.byte	0
 5696 00a0 00       		.byte	0
 5697 00a1 0E       		.uleb128 0xe
 5698 00a2 01       		.uleb128 0x1
 5699 00a3 01       		.byte	0x1
 5700 00a4 49       		.uleb128 0x49
 5701 00a5 13       		.uleb128 0x13
 5702 00a6 01       		.uleb128 0x1
 5703 00a7 13       		.uleb128 0x13
 5704 00a8 00       		.byte	0
 5705 00a9 00       		.byte	0
 5706 00aa 0F       		.uleb128 0xf
 5707 00ab 21       		.uleb128 0x21
 5708 00ac 00       		.byte	0
 5709 00ad 00       		.byte	0
 5710 00ae 00       		.byte	0
 5711 00af 10       		.uleb128 0x10
 5712 00b0 0F       		.uleb128 0xf
 5713 00b1 00       		.byte	0
 5714 00b2 0B       		.uleb128 0xb
 5715 00b3 0B       		.uleb128 0xb
 5716 00b4 49       		.uleb128 0x49
 5717 00b5 13       		.uleb128 0x13
 5718 00b6 00       		.byte	0
 5719 00b7 00       		.byte	0
 5720 00b8 11       		.uleb128 0x11
 5721 00b9 15       		.uleb128 0x15
 5722 00ba 01       		.byte	0x1
 5723 00bb 01       		.uleb128 0x1
 5724 00bc 13       		.uleb128 0x13
 5725 00bd 00       		.byte	0
 5726 00be 00       		.byte	0
 5727 00bf 12       		.uleb128 0x12
 5728 00c0 18       		.uleb128 0x18
 5729 00c1 00       		.byte	0
 5730 00c2 00       		.byte	0
 5731 00c3 00       		.byte	0
 5732 00c4 13       		.uleb128 0x13
 5733 00c5 15       		.uleb128 0x15
 5734 00c6 01       		.byte	0x1
 5735 00c7 49       		.uleb128 0x49
 5736 00c8 13       		.uleb128 0x13
 5737 00c9 01       		.uleb128 0x1
 5738 00ca 13       		.uleb128 0x13
 5739 00cb 00       		.byte	0
 5740 00cc 00       		.byte	0
 5741 00cd 14       		.uleb128 0x14
 5742 00ce 26       		.uleb128 0x26
 5743 00cf 00       		.byte	0
 5744 00d0 49       		.uleb128 0x49
 5745 00d1 13       		.uleb128 0x13
 5746 00d2 00       		.byte	0
 5747 00d3 00       		.byte	0
 5748 00d4 15       		.uleb128 0x15
 5749 00d5 15       		.uleb128 0x15
ARM GAS  C:\Users\giris\AppData\Local\Temp\cceloVpD.s 			page 126


 5750 00d6 01       		.byte	0x1
 5751 00d7 27       		.uleb128 0x27
 5752 00d8 19       		.uleb128 0x19
 5753 00d9 49       		.uleb128 0x49
 5754 00da 13       		.uleb128 0x13
 5755 00db 01       		.uleb128 0x1
 5756 00dc 13       		.uleb128 0x13
 5757 00dd 00       		.byte	0
 5758 00de 00       		.byte	0
 5759 00df 16       		.uleb128 0x16
 5760 00e0 05       		.uleb128 0x5
 5761 00e1 00       		.byte	0
 5762 00e2 49       		.uleb128 0x49
 5763 00e3 13       		.uleb128 0x13
 5764 00e4 00       		.byte	0
 5765 00e5 00       		.byte	0
 5766 00e6 17       		.uleb128 0x17
 5767 00e7 0D       		.uleb128 0xd
 5768 00e8 00       		.byte	0
 5769 00e9 03       		.uleb128 0x3
 5770 00ea 08       		.uleb128 0x8
 5771 00eb 3A       		.uleb128 0x3a
 5772 00ec 0B       		.uleb128 0xb
 5773 00ed 3B       		.uleb128 0x3b
 5774 00ee 0B       		.uleb128 0xb
 5775 00ef 49       		.uleb128 0x49
 5776 00f0 13       		.uleb128 0x13
 5777 00f1 38       		.uleb128 0x38
 5778 00f2 0B       		.uleb128 0xb
 5779 00f3 00       		.byte	0
 5780 00f4 00       		.byte	0
 5781 00f5 18       		.uleb128 0x18
 5782 00f6 2E       		.uleb128 0x2e
 5783 00f7 01       		.byte	0x1
 5784 00f8 3F       		.uleb128 0x3f
 5785 00f9 19       		.uleb128 0x19
 5786 00fa 03       		.uleb128 0x3
 5787 00fb 0E       		.uleb128 0xe
 5788 00fc 3A       		.uleb128 0x3a
 5789 00fd 0B       		.uleb128 0xb
 5790 00fe 3B       		.uleb128 0x3b
 5791 00ff 05       		.uleb128 0x5
 5792 0100 27       		.uleb128 0x27
 5793 0101 19       		.uleb128 0x19
 5794 0102 49       		.uleb128 0x49
 5795 0103 13       		.uleb128 0x13
 5796 0104 20       		.uleb128 0x20
 5797 0105 0B       		.uleb128 0xb
 5798 0106 01       		.uleb128 0x1
 5799 0107 13       		.uleb128 0x13
 5800 0108 00       		.byte	0
 5801 0109 00       		.byte	0
 5802 010a 19       		.uleb128 0x19
 5803 010b 05       		.uleb128 0x5
 5804 010c 00       		.byte	0
 5805 010d 03       		.uleb128 0x3
 5806 010e 0E       		.uleb128 0xe
ARM GAS  C:\Users\giris\AppData\Local\Temp\cceloVpD.s 			page 127


 5807 010f 3A       		.uleb128 0x3a
 5808 0110 0B       		.uleb128 0xb
 5809 0111 3B       		.uleb128 0x3b
 5810 0112 05       		.uleb128 0x5
 5811 0113 49       		.uleb128 0x49
 5812 0114 13       		.uleb128 0x13
 5813 0115 00       		.byte	0
 5814 0116 00       		.byte	0
 5815 0117 1A       		.uleb128 0x1a
 5816 0118 34       		.uleb128 0x34
 5817 0119 00       		.byte	0
 5818 011a 03       		.uleb128 0x3
 5819 011b 08       		.uleb128 0x8
 5820 011c 3A       		.uleb128 0x3a
 5821 011d 0B       		.uleb128 0xb
 5822 011e 3B       		.uleb128 0x3b
 5823 011f 05       		.uleb128 0x5
 5824 0120 49       		.uleb128 0x49
 5825 0121 13       		.uleb128 0x13
 5826 0122 00       		.byte	0
 5827 0123 00       		.byte	0
 5828 0124 1B       		.uleb128 0x1b
 5829 0125 34       		.uleb128 0x34
 5830 0126 00       		.byte	0
 5831 0127 03       		.uleb128 0x3
 5832 0128 0E       		.uleb128 0xe
 5833 0129 3A       		.uleb128 0x3a
 5834 012a 0B       		.uleb128 0xb
 5835 012b 3B       		.uleb128 0x3b
 5836 012c 05       		.uleb128 0x5
 5837 012d 49       		.uleb128 0x49
 5838 012e 13       		.uleb128 0x13
 5839 012f 00       		.byte	0
 5840 0130 00       		.byte	0
 5841 0131 1C       		.uleb128 0x1c
 5842 0132 0B       		.uleb128 0xb
 5843 0133 01       		.byte	0x1
 5844 0134 00       		.byte	0
 5845 0135 00       		.byte	0
 5846 0136 1D       		.uleb128 0x1d
 5847 0137 2E       		.uleb128 0x2e
 5848 0138 01       		.byte	0x1
 5849 0139 03       		.uleb128 0x3
 5850 013a 0E       		.uleb128 0xe
 5851 013b 3A       		.uleb128 0x3a
 5852 013c 0B       		.uleb128 0xb
 5853 013d 3B       		.uleb128 0x3b
 5854 013e 05       		.uleb128 0x5
 5855 013f 11       		.uleb128 0x11
 5856 0140 01       		.uleb128 0x1
 5857 0141 12       		.uleb128 0x12
 5858 0142 06       		.uleb128 0x6
 5859 0143 40       		.uleb128 0x40
 5860 0144 18       		.uleb128 0x18
 5861 0145 9742     		.uleb128 0x2117
 5862 0147 19       		.uleb128 0x19
 5863 0148 01       		.uleb128 0x1
ARM GAS  C:\Users\giris\AppData\Local\Temp\cceloVpD.s 			page 128


 5864 0149 13       		.uleb128 0x13
 5865 014a 00       		.byte	0
 5866 014b 00       		.byte	0
 5867 014c 1E       		.uleb128 0x1e
 5868 014d 34       		.uleb128 0x34
 5869 014e 00       		.byte	0
 5870 014f 03       		.uleb128 0x3
 5871 0150 0E       		.uleb128 0xe
 5872 0151 3A       		.uleb128 0x3a
 5873 0152 0B       		.uleb128 0xb
 5874 0153 3B       		.uleb128 0x3b
 5875 0154 05       		.uleb128 0x5
 5876 0155 49       		.uleb128 0x49
 5877 0156 13       		.uleb128 0x13
 5878 0157 02       		.uleb128 0x2
 5879 0158 18       		.uleb128 0x18
 5880 0159 00       		.byte	0
 5881 015a 00       		.byte	0
 5882 015b 1F       		.uleb128 0x1f
 5883 015c 1D       		.uleb128 0x1d
 5884 015d 01       		.byte	0x1
 5885 015e 31       		.uleb128 0x31
 5886 015f 13       		.uleb128 0x13
 5887 0160 11       		.uleb128 0x11
 5888 0161 01       		.uleb128 0x1
 5889 0162 12       		.uleb128 0x12
 5890 0163 06       		.uleb128 0x6
 5891 0164 58       		.uleb128 0x58
 5892 0165 0B       		.uleb128 0xb
 5893 0166 59       		.uleb128 0x59
 5894 0167 05       		.uleb128 0x5
 5895 0168 01       		.uleb128 0x1
 5896 0169 13       		.uleb128 0x13
 5897 016a 00       		.byte	0
 5898 016b 00       		.byte	0
 5899 016c 20       		.uleb128 0x20
 5900 016d 05       		.uleb128 0x5
 5901 016e 00       		.byte	0
 5902 016f 31       		.uleb128 0x31
 5903 0170 13       		.uleb128 0x13
 5904 0171 00       		.byte	0
 5905 0172 00       		.byte	0
 5906 0173 21       		.uleb128 0x21
 5907 0174 1D       		.uleb128 0x1d
 5908 0175 01       		.byte	0x1
 5909 0176 31       		.uleb128 0x31
 5910 0177 13       		.uleb128 0x13
 5911 0178 11       		.uleb128 0x11
 5912 0179 01       		.uleb128 0x1
 5913 017a 12       		.uleb128 0x12
 5914 017b 06       		.uleb128 0x6
 5915 017c 58       		.uleb128 0x58
 5916 017d 0B       		.uleb128 0xb
 5917 017e 59       		.uleb128 0x59
 5918 017f 05       		.uleb128 0x5
 5919 0180 00       		.byte	0
 5920 0181 00       		.byte	0
ARM GAS  C:\Users\giris\AppData\Local\Temp\cceloVpD.s 			page 129


 5921 0182 22       		.uleb128 0x22
 5922 0183 05       		.uleb128 0x5
 5923 0184 00       		.byte	0
 5924 0185 31       		.uleb128 0x31
 5925 0186 13       		.uleb128 0x13
 5926 0187 02       		.uleb128 0x2
 5927 0188 18       		.uleb128 0x18
 5928 0189 00       		.byte	0
 5929 018a 00       		.byte	0
 5930 018b 23       		.uleb128 0x23
 5931 018c 0B       		.uleb128 0xb
 5932 018d 01       		.byte	0x1
 5933 018e 11       		.uleb128 0x11
 5934 018f 01       		.uleb128 0x1
 5935 0190 12       		.uleb128 0x12
 5936 0191 06       		.uleb128 0x6
 5937 0192 00       		.byte	0
 5938 0193 00       		.byte	0
 5939 0194 24       		.uleb128 0x24
 5940 0195 34       		.uleb128 0x34
 5941 0196 00       		.byte	0
 5942 0197 31       		.uleb128 0x31
 5943 0198 13       		.uleb128 0x13
 5944 0199 1C       		.uleb128 0x1c
 5945 019a 0B       		.uleb128 0xb
 5946 019b 00       		.byte	0
 5947 019c 00       		.byte	0
 5948 019d 25       		.uleb128 0x25
 5949 019e 34       		.uleb128 0x34
 5950 019f 00       		.byte	0
 5951 01a0 31       		.uleb128 0x31
 5952 01a1 13       		.uleb128 0x13
 5953 01a2 02       		.uleb128 0x2
 5954 01a3 17       		.uleb128 0x17
 5955 01a4 00       		.byte	0
 5956 01a5 00       		.byte	0
 5957 01a6 26       		.uleb128 0x26
 5958 01a7 898201   		.uleb128 0x4109
 5959 01aa 00       		.byte	0
 5960 01ab 11       		.uleb128 0x11
 5961 01ac 01       		.uleb128 0x1
 5962 01ad 31       		.uleb128 0x31
 5963 01ae 13       		.uleb128 0x13
 5964 01af 00       		.byte	0
 5965 01b0 00       		.byte	0
 5966 01b1 27       		.uleb128 0x27
 5967 01b2 21       		.uleb128 0x21
 5968 01b3 00       		.byte	0
 5969 01b4 49       		.uleb128 0x49
 5970 01b5 13       		.uleb128 0x13
 5971 01b6 2F       		.uleb128 0x2f
 5972 01b7 0B       		.uleb128 0xb
 5973 01b8 00       		.byte	0
 5974 01b9 00       		.byte	0
 5975 01ba 28       		.uleb128 0x28
 5976 01bb 898201   		.uleb128 0x4109
 5977 01be 01       		.byte	0x1
ARM GAS  C:\Users\giris\AppData\Local\Temp\cceloVpD.s 			page 130


 5978 01bf 11       		.uleb128 0x11
 5979 01c0 01       		.uleb128 0x1
 5980 01c1 31       		.uleb128 0x31
 5981 01c2 13       		.uleb128 0x13
 5982 01c3 00       		.byte	0
 5983 01c4 00       		.byte	0
 5984 01c5 29       		.uleb128 0x29
 5985 01c6 8A8201   		.uleb128 0x410a
 5986 01c9 00       		.byte	0
 5987 01ca 02       		.uleb128 0x2
 5988 01cb 18       		.uleb128 0x18
 5989 01cc 9142     		.uleb128 0x2111
 5990 01ce 18       		.uleb128 0x18
 5991 01cf 00       		.byte	0
 5992 01d0 00       		.byte	0
 5993 01d1 2A       		.uleb128 0x2a
 5994 01d2 2E       		.uleb128 0x2e
 5995 01d3 01       		.byte	0x1
 5996 01d4 03       		.uleb128 0x3
 5997 01d5 0E       		.uleb128 0xe
 5998 01d6 3A       		.uleb128 0x3a
 5999 01d7 0B       		.uleb128 0xb
 6000 01d8 3B       		.uleb128 0x3b
 6001 01d9 0B       		.uleb128 0xb
 6002 01da 27       		.uleb128 0x27
 6003 01db 19       		.uleb128 0x19
 6004 01dc 11       		.uleb128 0x11
 6005 01dd 01       		.uleb128 0x1
 6006 01de 12       		.uleb128 0x12
 6007 01df 06       		.uleb128 0x6
 6008 01e0 40       		.uleb128 0x40
 6009 01e1 18       		.uleb128 0x18
 6010 01e2 9742     		.uleb128 0x2117
 6011 01e4 19       		.uleb128 0x19
 6012 01e5 01       		.uleb128 0x1
 6013 01e6 13       		.uleb128 0x13
 6014 01e7 00       		.byte	0
 6015 01e8 00       		.byte	0
 6016 01e9 2B       		.uleb128 0x2b
 6017 01ea 05       		.uleb128 0x5
 6018 01eb 00       		.byte	0
 6019 01ec 03       		.uleb128 0x3
 6020 01ed 08       		.uleb128 0x8
 6021 01ee 3A       		.uleb128 0x3a
 6022 01ef 0B       		.uleb128 0xb
 6023 01f0 3B       		.uleb128 0x3b
 6024 01f1 0B       		.uleb128 0xb
 6025 01f2 49       		.uleb128 0x49
 6026 01f3 13       		.uleb128 0x13
 6027 01f4 02       		.uleb128 0x2
 6028 01f5 17       		.uleb128 0x17
 6029 01f6 00       		.byte	0
 6030 01f7 00       		.byte	0
 6031 01f8 2C       		.uleb128 0x2c
 6032 01f9 05       		.uleb128 0x5
 6033 01fa 00       		.byte	0
 6034 01fb 03       		.uleb128 0x3
ARM GAS  C:\Users\giris\AppData\Local\Temp\cceloVpD.s 			page 131


 6035 01fc 0E       		.uleb128 0xe
 6036 01fd 3A       		.uleb128 0x3a
 6037 01fe 0B       		.uleb128 0xb
 6038 01ff 3B       		.uleb128 0x3b
 6039 0200 0B       		.uleb128 0xb
 6040 0201 49       		.uleb128 0x49
 6041 0202 13       		.uleb128 0x13
 6042 0203 02       		.uleb128 0x2
 6043 0204 17       		.uleb128 0x17
 6044 0205 00       		.byte	0
 6045 0206 00       		.byte	0
 6046 0207 2D       		.uleb128 0x2d
 6047 0208 34       		.uleb128 0x34
 6048 0209 00       		.byte	0
 6049 020a 03       		.uleb128 0x3
 6050 020b 0E       		.uleb128 0xe
 6051 020c 3A       		.uleb128 0x3a
 6052 020d 0B       		.uleb128 0xb
 6053 020e 3B       		.uleb128 0x3b
 6054 020f 0B       		.uleb128 0xb
 6055 0210 49       		.uleb128 0x49
 6056 0211 13       		.uleb128 0x13
 6057 0212 02       		.uleb128 0x2
 6058 0213 18       		.uleb128 0x18
 6059 0214 00       		.byte	0
 6060 0215 00       		.byte	0
 6061 0216 2E       		.uleb128 0x2e
 6062 0217 1D       		.uleb128 0x1d
 6063 0218 01       		.byte	0x1
 6064 0219 31       		.uleb128 0x31
 6065 021a 13       		.uleb128 0x13
 6066 021b 11       		.uleb128 0x11
 6067 021c 01       		.uleb128 0x1
 6068 021d 12       		.uleb128 0x12
 6069 021e 06       		.uleb128 0x6
 6070 021f 58       		.uleb128 0x58
 6071 0220 0B       		.uleb128 0xb
 6072 0221 59       		.uleb128 0x59
 6073 0222 0B       		.uleb128 0xb
 6074 0223 01       		.uleb128 0x1
 6075 0224 13       		.uleb128 0x13
 6076 0225 00       		.byte	0
 6077 0226 00       		.byte	0
 6078 0227 2F       		.uleb128 0x2f
 6079 0228 0B       		.uleb128 0xb
 6080 0229 01       		.byte	0x1
 6081 022a 11       		.uleb128 0x11
 6082 022b 01       		.uleb128 0x1
 6083 022c 12       		.uleb128 0x12
 6084 022d 06       		.uleb128 0x6
 6085 022e 01       		.uleb128 0x1
 6086 022f 13       		.uleb128 0x13
 6087 0230 00       		.byte	0
 6088 0231 00       		.byte	0
 6089 0232 30       		.uleb128 0x30
 6090 0233 898201   		.uleb128 0x4109
 6091 0236 01       		.byte	0x1
ARM GAS  C:\Users\giris\AppData\Local\Temp\cceloVpD.s 			page 132


 6092 0237 11       		.uleb128 0x11
 6093 0238 01       		.uleb128 0x1
 6094 0239 31       		.uleb128 0x31
 6095 023a 13       		.uleb128 0x13
 6096 023b 01       		.uleb128 0x1
 6097 023c 13       		.uleb128 0x13
 6098 023d 00       		.byte	0
 6099 023e 00       		.byte	0
 6100 023f 31       		.uleb128 0x31
 6101 0240 2E       		.uleb128 0x2e
 6102 0241 01       		.byte	0x1
 6103 0242 3F       		.uleb128 0x3f
 6104 0243 19       		.uleb128 0x19
 6105 0244 03       		.uleb128 0x3
 6106 0245 0E       		.uleb128 0xe
 6107 0246 3A       		.uleb128 0x3a
 6108 0247 0B       		.uleb128 0xb
 6109 0248 3B       		.uleb128 0x3b
 6110 0249 0B       		.uleb128 0xb
 6111 024a 11       		.uleb128 0x11
 6112 024b 01       		.uleb128 0x1
 6113 024c 12       		.uleb128 0x12
 6114 024d 06       		.uleb128 0x6
 6115 024e 40       		.uleb128 0x40
 6116 024f 18       		.uleb128 0x18
 6117 0250 9742     		.uleb128 0x2117
 6118 0252 19       		.uleb128 0x19
 6119 0253 01       		.uleb128 0x1
 6120 0254 13       		.uleb128 0x13
 6121 0255 00       		.byte	0
 6122 0256 00       		.byte	0
 6123 0257 32       		.uleb128 0x32
 6124 0258 1D       		.uleb128 0x1d
 6125 0259 01       		.byte	0x1
 6126 025a 31       		.uleb128 0x31
 6127 025b 13       		.uleb128 0x13
 6128 025c 11       		.uleb128 0x11
 6129 025d 01       		.uleb128 0x1
 6130 025e 12       		.uleb128 0x12
 6131 025f 06       		.uleb128 0x6
 6132 0260 58       		.uleb128 0x58
 6133 0261 0B       		.uleb128 0xb
 6134 0262 59       		.uleb128 0x59
 6135 0263 0B       		.uleb128 0xb
 6136 0264 00       		.byte	0
 6137 0265 00       		.byte	0
 6138 0266 33       		.uleb128 0x33
 6139 0267 2E       		.uleb128 0x2e
 6140 0268 01       		.byte	0x1
 6141 0269 3F       		.uleb128 0x3f
 6142 026a 19       		.uleb128 0x19
 6143 026b 03       		.uleb128 0x3
 6144 026c 0E       		.uleb128 0xe
 6145 026d 3A       		.uleb128 0x3a
 6146 026e 0B       		.uleb128 0xb
 6147 026f 3B       		.uleb128 0x3b
 6148 0270 0B       		.uleb128 0xb
ARM GAS  C:\Users\giris\AppData\Local\Temp\cceloVpD.s 			page 133


 6149 0271 27       		.uleb128 0x27
 6150 0272 19       		.uleb128 0x19
 6151 0273 11       		.uleb128 0x11
 6152 0274 01       		.uleb128 0x1
 6153 0275 12       		.uleb128 0x12
 6154 0276 06       		.uleb128 0x6
 6155 0277 40       		.uleb128 0x40
 6156 0278 18       		.uleb128 0x18
 6157 0279 9742     		.uleb128 0x2117
 6158 027b 19       		.uleb128 0x19
 6159 027c 01       		.uleb128 0x1
 6160 027d 13       		.uleb128 0x13
 6161 027e 00       		.byte	0
 6162 027f 00       		.byte	0
 6163 0280 34       		.uleb128 0x34
 6164 0281 34       		.uleb128 0x34
 6165 0282 00       		.byte	0
 6166 0283 03       		.uleb128 0x3
 6167 0284 0E       		.uleb128 0xe
 6168 0285 3A       		.uleb128 0x3a
 6169 0286 0B       		.uleb128 0xb
 6170 0287 3B       		.uleb128 0x3b
 6171 0288 0B       		.uleb128 0xb
 6172 0289 49       		.uleb128 0x49
 6173 028a 13       		.uleb128 0x13
 6174 028b 02       		.uleb128 0x2
 6175 028c 17       		.uleb128 0x17
 6176 028d 00       		.byte	0
 6177 028e 00       		.byte	0
 6178 028f 35       		.uleb128 0x35
 6179 0290 34       		.uleb128 0x34
 6180 0291 00       		.byte	0
 6181 0292 03       		.uleb128 0x3
 6182 0293 0E       		.uleb128 0xe
 6183 0294 3A       		.uleb128 0x3a
 6184 0295 0B       		.uleb128 0xb
 6185 0296 3B       		.uleb128 0x3b
 6186 0297 0B       		.uleb128 0xb
 6187 0298 49       		.uleb128 0x49
 6188 0299 13       		.uleb128 0x13
 6189 029a 1C       		.uleb128 0x1c
 6190 029b 0B       		.uleb128 0xb
 6191 029c 00       		.byte	0
 6192 029d 00       		.byte	0
 6193 029e 36       		.uleb128 0x36
 6194 029f 34       		.uleb128 0x34
 6195 02a0 00       		.byte	0
 6196 02a1 03       		.uleb128 0x3
 6197 02a2 0E       		.uleb128 0xe
 6198 02a3 3A       		.uleb128 0x3a
 6199 02a4 0B       		.uleb128 0xb
 6200 02a5 3B       		.uleb128 0x3b
 6201 02a6 0B       		.uleb128 0xb
 6202 02a7 49       		.uleb128 0x49
 6203 02a8 13       		.uleb128 0x13
 6204 02a9 3F       		.uleb128 0x3f
 6205 02aa 19       		.uleb128 0x19
ARM GAS  C:\Users\giris\AppData\Local\Temp\cceloVpD.s 			page 134


 6206 02ab 3C       		.uleb128 0x3c
 6207 02ac 19       		.uleb128 0x19
 6208 02ad 00       		.byte	0
 6209 02ae 00       		.byte	0
 6210 02af 37       		.uleb128 0x37
 6211 02b0 34       		.uleb128 0x34
 6212 02b1 00       		.byte	0
 6213 02b2 03       		.uleb128 0x3
 6214 02b3 0E       		.uleb128 0xe
 6215 02b4 3A       		.uleb128 0x3a
 6216 02b5 0B       		.uleb128 0xb
 6217 02b6 3B       		.uleb128 0x3b
 6218 02b7 05       		.uleb128 0x5
 6219 02b8 49       		.uleb128 0x49
 6220 02b9 13       		.uleb128 0x13
 6221 02ba 3F       		.uleb128 0x3f
 6222 02bb 19       		.uleb128 0x19
 6223 02bc 3C       		.uleb128 0x3c
 6224 02bd 19       		.uleb128 0x19
 6225 02be 00       		.byte	0
 6226 02bf 00       		.byte	0
 6227 02c0 38       		.uleb128 0x38
 6228 02c1 35       		.uleb128 0x35
 6229 02c2 00       		.byte	0
 6230 02c3 49       		.uleb128 0x49
 6231 02c4 13       		.uleb128 0x13
 6232 02c5 00       		.byte	0
 6233 02c6 00       		.byte	0
 6234 02c7 39       		.uleb128 0x39
 6235 02c8 34       		.uleb128 0x34
 6236 02c9 00       		.byte	0
 6237 02ca 03       		.uleb128 0x3
 6238 02cb 0E       		.uleb128 0xe
 6239 02cc 3A       		.uleb128 0x3a
 6240 02cd 0B       		.uleb128 0xb
 6241 02ce 3B       		.uleb128 0x3b
 6242 02cf 0B       		.uleb128 0xb
 6243 02d0 49       		.uleb128 0x49
 6244 02d1 13       		.uleb128 0x13
 6245 02d2 3F       		.uleb128 0x3f
 6246 02d3 19       		.uleb128 0x19
 6247 02d4 02       		.uleb128 0x2
 6248 02d5 18       		.uleb128 0x18
 6249 02d6 00       		.byte	0
 6250 02d7 00       		.byte	0
 6251 02d8 3A       		.uleb128 0x3a
 6252 02d9 2E       		.uleb128 0x2e
 6253 02da 00       		.byte	0
 6254 02db 3F       		.uleb128 0x3f
 6255 02dc 19       		.uleb128 0x19
 6256 02dd 3C       		.uleb128 0x3c
 6257 02de 19       		.uleb128 0x19
 6258 02df 6E       		.uleb128 0x6e
 6259 02e0 0E       		.uleb128 0xe
 6260 02e1 03       		.uleb128 0x3
 6261 02e2 0E       		.uleb128 0xe
 6262 02e3 3A       		.uleb128 0x3a
ARM GAS  C:\Users\giris\AppData\Local\Temp\cceloVpD.s 			page 135


 6263 02e4 0B       		.uleb128 0xb
 6264 02e5 3B       		.uleb128 0x3b
 6265 02e6 05       		.uleb128 0x5
 6266 02e7 00       		.byte	0
 6267 02e8 00       		.byte	0
 6268 02e9 3B       		.uleb128 0x3b
 6269 02ea 2E       		.uleb128 0x2e
 6270 02eb 00       		.byte	0
 6271 02ec 3F       		.uleb128 0x3f
 6272 02ed 19       		.uleb128 0x19
 6273 02ee 3C       		.uleb128 0x3c
 6274 02ef 19       		.uleb128 0x19
 6275 02f0 6E       		.uleb128 0x6e
 6276 02f1 0E       		.uleb128 0xe
 6277 02f2 03       		.uleb128 0x3
 6278 02f3 0E       		.uleb128 0xe
 6279 02f4 00       		.byte	0
 6280 02f5 00       		.byte	0
 6281 02f6 3C       		.uleb128 0x3c
 6282 02f7 2E       		.uleb128 0x2e
 6283 02f8 00       		.byte	0
 6284 02f9 3F       		.uleb128 0x3f
 6285 02fa 19       		.uleb128 0x19
 6286 02fb 3C       		.uleb128 0x3c
 6287 02fc 19       		.uleb128 0x19
 6288 02fd 6E       		.uleb128 0x6e
 6289 02fe 0E       		.uleb128 0xe
 6290 02ff 03       		.uleb128 0x3
 6291 0300 0E       		.uleb128 0xe
 6292 0301 3A       		.uleb128 0x3a
 6293 0302 0B       		.uleb128 0xb
 6294 0303 3B       		.uleb128 0x3b
 6295 0304 0B       		.uleb128 0xb
 6296 0305 00       		.byte	0
 6297 0306 00       		.byte	0
 6298 0307 00       		.byte	0
 6299              		.section	.debug_loc,"",%progbits
 6300              	.Ldebug_loc0:
 6301              	.LLST0:
 6302 0000 3E000000 		.4byte	.LVL3
 6303 0004 68000000 		.4byte	.LVL5
 6304 0008 0200     		.2byte	0x2
 6305 000a 30       		.byte	0x30
 6306 000b 9F       		.byte	0x9f
 6307 000c 68000000 		.4byte	.LVL5
 6308 0010 76000000 		.4byte	.LVL8
 6309 0014 0100     		.2byte	0x1
 6310 0016 54       		.byte	0x54
 6311 0017 76000000 		.4byte	.LVL8
 6312 001b 78000000 		.4byte	.LVL9
 6313 001f 0200     		.2byte	0x2
 6314 0021 30       		.byte	0x30
 6315 0022 9F       		.byte	0x9f
 6316 0023 78000000 		.4byte	.LVL9
 6317 0027 82000000 		.4byte	.LVL10
 6318 002b 0100     		.2byte	0x1
 6319 002d 54       		.byte	0x54
ARM GAS  C:\Users\giris\AppData\Local\Temp\cceloVpD.s 			page 136


 6320 002e 00000000 		.4byte	0
 6321 0032 00000000 		.4byte	0
 6322              	.LLST1:
 6323 0036 5E000000 		.4byte	.LVL4
 6324 003a 86000000 		.4byte	.LVL11
 6325 003e 0100     		.2byte	0x1
 6326 0040 55       		.byte	0x55
 6327 0041 00000000 		.4byte	0
 6328 0045 00000000 		.4byte	0
 6329              	.LLST2:
 6330 0049 68000000 		.4byte	.LVL5
 6331 004d 71000000 		.4byte	.LVL6-1
 6332 0051 0700     		.2byte	0x7
 6333 0053 74       		.byte	0x74
 6334 0054 00       		.sleb128 0
 6335 0055 32       		.byte	0x32
 6336 0056 24       		.byte	0x24
 6337 0057 75       		.byte	0x75
 6338 0058 00       		.sleb128 0
 6339 0059 22       		.byte	0x22
 6340 005a 00000000 		.4byte	0
 6341 005e 00000000 		.4byte	0
 6342              	.LLST3:
 6343 0062 60000000 		.4byte	.LVL15
 6344 0066 86000000 		.4byte	.LVL17
 6345 006a 0200     		.2byte	0x2
 6346 006c 30       		.byte	0x30
 6347 006d 9F       		.byte	0x9f
 6348 006e 86000000 		.4byte	.LVL17
 6349 0072 94000000 		.4byte	.LVL20
 6350 0076 0100     		.2byte	0x1
 6351 0078 54       		.byte	0x54
 6352 0079 94000000 		.4byte	.LVL20
 6353 007d 96000000 		.4byte	.LVL21
 6354 0081 0200     		.2byte	0x2
 6355 0083 30       		.byte	0x30
 6356 0084 9F       		.byte	0x9f
 6357 0085 96000000 		.4byte	.LVL21
 6358 0089 A0000000 		.4byte	.LVL22
 6359 008d 0100     		.2byte	0x1
 6360 008f 54       		.byte	0x54
 6361 0090 00000000 		.4byte	0
 6362 0094 00000000 		.4byte	0
 6363              	.LLST4:
 6364 0098 7E000000 		.4byte	.LVL16
 6365 009c A4000000 		.4byte	.LVL23
 6366 00a0 0100     		.2byte	0x1
 6367 00a2 55       		.byte	0x55
 6368 00a3 00000000 		.4byte	0
 6369 00a7 00000000 		.4byte	0
 6370              	.LLST5:
 6371 00ab 86000000 		.4byte	.LVL17
 6372 00af 8F000000 		.4byte	.LVL18-1
 6373 00b3 0700     		.2byte	0x7
 6374 00b5 74       		.byte	0x74
 6375 00b6 00       		.sleb128 0
 6376 00b7 32       		.byte	0x32
ARM GAS  C:\Users\giris\AppData\Local\Temp\cceloVpD.s 			page 137


 6377 00b8 24       		.byte	0x24
 6378 00b9 75       		.byte	0x75
 6379 00ba 00       		.sleb128 0
 6380 00bb 22       		.byte	0x22
 6381 00bc 00000000 		.4byte	0
 6382 00c0 00000000 		.4byte	0
 6383              	.LLST6:
 6384 00c4 26000000 		.4byte	.LVL26
 6385 00c8 48000000 		.4byte	.LVL28
 6386 00cc 0200     		.2byte	0x2
 6387 00ce 30       		.byte	0x30
 6388 00cf 9F       		.byte	0x9f
 6389 00d0 48000000 		.4byte	.LVL28
 6390 00d4 56000000 		.4byte	.LVL31
 6391 00d8 0100     		.2byte	0x1
 6392 00da 54       		.byte	0x54
 6393 00db 56000000 		.4byte	.LVL31
 6394 00df 58000000 		.4byte	.LVL32
 6395 00e3 0200     		.2byte	0x2
 6396 00e5 30       		.byte	0x30
 6397 00e6 9F       		.byte	0x9f
 6398 00e7 58000000 		.4byte	.LVL32
 6399 00eb 62000000 		.4byte	.LVL33
 6400 00ef 0100     		.2byte	0x1
 6401 00f1 54       		.byte	0x54
 6402 00f2 00000000 		.4byte	0
 6403 00f6 00000000 		.4byte	0
 6404              	.LLST7:
 6405 00fa 3E000000 		.4byte	.LVL27
 6406 00fe 66000000 		.4byte	.LVL34
 6407 0102 0100     		.2byte	0x1
 6408 0104 55       		.byte	0x55
 6409 0105 00000000 		.4byte	0
 6410 0109 00000000 		.4byte	0
 6411              	.LLST8:
 6412 010d 48000000 		.4byte	.LVL28
 6413 0111 51000000 		.4byte	.LVL29-1
 6414 0115 0700     		.2byte	0x7
 6415 0117 74       		.byte	0x74
 6416 0118 00       		.sleb128 0
 6417 0119 32       		.byte	0x32
 6418 011a 24       		.byte	0x24
 6419 011b 75       		.byte	0x75
 6420 011c 00       		.sleb128 0
 6421 011d 22       		.byte	0x22
 6422 011e 00000000 		.4byte	0
 6423 0122 00000000 		.4byte	0
 6424              	.LLST9:
 6425 0126 74000000 		.4byte	.LVL38
 6426 012a 9A000000 		.4byte	.LVL40
 6427 012e 0200     		.2byte	0x2
 6428 0130 30       		.byte	0x30
 6429 0131 9F       		.byte	0x9f
 6430 0132 9A000000 		.4byte	.LVL40
 6431 0136 A8000000 		.4byte	.LVL43
 6432 013a 0100     		.2byte	0x1
 6433 013c 54       		.byte	0x54
ARM GAS  C:\Users\giris\AppData\Local\Temp\cceloVpD.s 			page 138


 6434 013d A8000000 		.4byte	.LVL43
 6435 0141 AA000000 		.4byte	.LVL44
 6436 0145 0200     		.2byte	0x2
 6437 0147 30       		.byte	0x30
 6438 0148 9F       		.byte	0x9f
 6439 0149 AA000000 		.4byte	.LVL44
 6440 014d B4000000 		.4byte	.LVL45
 6441 0151 0100     		.2byte	0x1
 6442 0153 54       		.byte	0x54
 6443 0154 00000000 		.4byte	0
 6444 0158 00000000 		.4byte	0
 6445              	.LLST10:
 6446 015c 92000000 		.4byte	.LVL39
 6447 0160 B8000000 		.4byte	.LVL46
 6448 0164 0100     		.2byte	0x1
 6449 0166 55       		.byte	0x55
 6450 0167 00000000 		.4byte	0
 6451 016b 00000000 		.4byte	0
 6452              	.LLST11:
 6453 016f 9A000000 		.4byte	.LVL40
 6454 0173 A3000000 		.4byte	.LVL41-1
 6455 0177 0700     		.2byte	0x7
 6456 0179 74       		.byte	0x74
 6457 017a 00       		.sleb128 0
 6458 017b 32       		.byte	0x32
 6459 017c 24       		.byte	0x24
 6460 017d 75       		.byte	0x75
 6461 017e 00       		.sleb128 0
 6462 017f 22       		.byte	0x22
 6463 0180 00000000 		.4byte	0
 6464 0184 00000000 		.4byte	0
 6465              	.LLST12:
 6466 0188 50000000 		.4byte	.LVL51
 6467 018c 76000000 		.4byte	.LVL53
 6468 0190 0200     		.2byte	0x2
 6469 0192 30       		.byte	0x30
 6470 0193 9F       		.byte	0x9f
 6471 0194 76000000 		.4byte	.LVL53
 6472 0198 84000000 		.4byte	.LVL56
 6473 019c 0100     		.2byte	0x1
 6474 019e 54       		.byte	0x54
 6475 019f 84000000 		.4byte	.LVL56
 6476 01a3 86000000 		.4byte	.LVL57
 6477 01a7 0200     		.2byte	0x2
 6478 01a9 30       		.byte	0x30
 6479 01aa 9F       		.byte	0x9f
 6480 01ab 86000000 		.4byte	.LVL57
 6481 01af 90000000 		.4byte	.LVL58
 6482 01b3 0100     		.2byte	0x1
 6483 01b5 54       		.byte	0x54
 6484 01b6 00000000 		.4byte	0
 6485 01ba 00000000 		.4byte	0
 6486              	.LLST13:
 6487 01be 6E000000 		.4byte	.LVL52
 6488 01c2 94000000 		.4byte	.LVL59
 6489 01c6 0100     		.2byte	0x1
 6490 01c8 55       		.byte	0x55
ARM GAS  C:\Users\giris\AppData\Local\Temp\cceloVpD.s 			page 139


 6491 01c9 00000000 		.4byte	0
 6492 01cd 00000000 		.4byte	0
 6493              	.LLST14:
 6494 01d1 76000000 		.4byte	.LVL53
 6495 01d5 7F000000 		.4byte	.LVL54-1
 6496 01d9 0700     		.2byte	0x7
 6497 01db 74       		.byte	0x74
 6498 01dc 00       		.sleb128 0
 6499 01dd 32       		.byte	0x32
 6500 01de 24       		.byte	0x24
 6501 01df 75       		.byte	0x75
 6502 01e0 00       		.sleb128 0
 6503 01e1 22       		.byte	0x22
 6504 01e2 00000000 		.4byte	0
 6505 01e6 00000000 		.4byte	0
 6506              	.LLST15:
 6507 01ea 54000000 		.4byte	.LVL64
 6508 01ee 7A000000 		.4byte	.LVL66
 6509 01f2 0200     		.2byte	0x2
 6510 01f4 30       		.byte	0x30
 6511 01f5 9F       		.byte	0x9f
 6512 01f6 7A000000 		.4byte	.LVL66
 6513 01fa 88000000 		.4byte	.LVL69
 6514 01fe 0100     		.2byte	0x1
 6515 0200 54       		.byte	0x54
 6516 0201 88000000 		.4byte	.LVL69
 6517 0205 8A000000 		.4byte	.LVL70
 6518 0209 0200     		.2byte	0x2
 6519 020b 30       		.byte	0x30
 6520 020c 9F       		.byte	0x9f
 6521 020d 8A000000 		.4byte	.LVL70
 6522 0211 94000000 		.4byte	.LVL71
 6523 0215 0100     		.2byte	0x1
 6524 0217 54       		.byte	0x54
 6525 0218 00000000 		.4byte	0
 6526 021c 00000000 		.4byte	0
 6527              	.LLST16:
 6528 0220 72000000 		.4byte	.LVL65
 6529 0224 98000000 		.4byte	.LVL72
 6530 0228 0100     		.2byte	0x1
 6531 022a 55       		.byte	0x55
 6532 022b 00000000 		.4byte	0
 6533 022f 00000000 		.4byte	0
 6534              	.LLST17:
 6535 0233 7A000000 		.4byte	.LVL66
 6536 0237 83000000 		.4byte	.LVL67-1
 6537 023b 0700     		.2byte	0x7
 6538 023d 74       		.byte	0x74
 6539 023e 00       		.sleb128 0
 6540 023f 32       		.byte	0x32
 6541 0240 24       		.byte	0x24
 6542 0241 75       		.byte	0x75
 6543 0242 00       		.sleb128 0
 6544 0243 22       		.byte	0x22
 6545 0244 00000000 		.4byte	0
 6546 0248 00000000 		.4byte	0
 6547              	.LLST18:
ARM GAS  C:\Users\giris\AppData\Local\Temp\cceloVpD.s 			page 140


 6548 024c 00000000 		.4byte	.LVL77
 6549 0250 14000000 		.4byte	.LVL80
 6550 0254 0100     		.2byte	0x1
 6551 0256 50       		.byte	0x50
 6552 0257 14000000 		.4byte	.LVL80
 6553 025b 88010000 		.4byte	.LFE146
 6554 025f 0400     		.2byte	0x4
 6555 0261 F3       		.byte	0xf3
 6556 0262 01       		.uleb128 0x1
 6557 0263 50       		.byte	0x50
 6558 0264 9F       		.byte	0x9f
 6559 0265 00000000 		.4byte	0
 6560 0269 00000000 		.4byte	0
 6561              	.LLST19:
 6562 026d 00000000 		.4byte	.LVL77
 6563 0271 12000000 		.4byte	.LVL79
 6564 0275 0100     		.2byte	0x1
 6565 0277 51       		.byte	0x51
 6566 0278 12000000 		.4byte	.LVL79
 6567 027c 88010000 		.4byte	.LFE146
 6568 0280 0400     		.2byte	0x4
 6569 0282 F3       		.byte	0xf3
 6570 0283 01       		.uleb128 0x1
 6571 0284 51       		.byte	0x51
 6572 0285 9F       		.byte	0x9f
 6573 0286 00000000 		.4byte	0
 6574 028a 00000000 		.4byte	0
 6575              	.LLST20:
 6576 028e 2E000000 		.4byte	.LVL83
 6577 0292 54000000 		.4byte	.LVL86
 6578 0296 0200     		.2byte	0x2
 6579 0298 30       		.byte	0x30
 6580 0299 9F       		.byte	0x9f
 6581 029a 54000000 		.4byte	.LVL86
 6582 029e 62000000 		.4byte	.LVL89
 6583 02a2 0100     		.2byte	0x1
 6584 02a4 54       		.byte	0x54
 6585 02a5 62000000 		.4byte	.LVL89
 6586 02a9 64000000 		.4byte	.LVL90
 6587 02ad 0200     		.2byte	0x2
 6588 02af 30       		.byte	0x30
 6589 02b0 9F       		.byte	0x9f
 6590 02b1 64000000 		.4byte	.LVL90
 6591 02b5 6E000000 		.4byte	.LVL91
 6592 02b9 0100     		.2byte	0x1
 6593 02bb 54       		.byte	0x54
 6594 02bc 00000000 		.4byte	0
 6595 02c0 00000000 		.4byte	0
 6596              	.LLST21:
 6597 02c4 4A000000 		.4byte	.LVL85
 6598 02c8 6E000000 		.4byte	.LVL91
 6599 02cc 0100     		.2byte	0x1
 6600 02ce 55       		.byte	0x55
 6601 02cf 00000000 		.4byte	0
 6602 02d3 00000000 		.4byte	0
 6603              	.LLST22:
 6604 02d7 54000000 		.4byte	.LVL86
ARM GAS  C:\Users\giris\AppData\Local\Temp\cceloVpD.s 			page 141


 6605 02db 5D000000 		.4byte	.LVL87-1
 6606 02df 0700     		.2byte	0x7
 6607 02e1 74       		.byte	0x74
 6608 02e2 00       		.sleb128 0
 6609 02e3 32       		.byte	0x32
 6610 02e4 24       		.byte	0x24
 6611 02e5 75       		.byte	0x75
 6612 02e6 00       		.sleb128 0
 6613 02e7 22       		.byte	0x22
 6614 02e8 00000000 		.4byte	0
 6615 02ec 00000000 		.4byte	0
 6616              	.LLST23:
 6617 02f0 B8000000 		.4byte	.LVL96
 6618 02f4 F6000000 		.4byte	.LVL104
 6619 02f8 0200     		.2byte	0x2
 6620 02fa 30       		.byte	0x30
 6621 02fb 9F       		.byte	0x9f
 6622 02fc 00000000 		.4byte	0
 6623 0300 00000000 		.4byte	0
 6624              	.LLST24:
 6625 0304 B8000000 		.4byte	.LVL96
 6626 0308 DA000000 		.4byte	.LVL99
 6627 030c 0200     		.2byte	0x2
 6628 030e 30       		.byte	0x30
 6629 030f 9F       		.byte	0x9f
 6630 0310 DA000000 		.4byte	.LVL99
 6631 0314 E8000000 		.4byte	.LVL102
 6632 0318 0100     		.2byte	0x1
 6633 031a 54       		.byte	0x54
 6634 031b E8000000 		.4byte	.LVL102
 6635 031f EA000000 		.4byte	.LVL103
 6636 0323 0200     		.2byte	0x2
 6637 0325 30       		.byte	0x30
 6638 0326 9F       		.byte	0x9f
 6639 0327 EA000000 		.4byte	.LVL103
 6640 032b F6000000 		.4byte	.LVL104
 6641 032f 0100     		.2byte	0x1
 6642 0331 54       		.byte	0x54
 6643 0332 00000000 		.4byte	0
 6644 0336 00000000 		.4byte	0
 6645              	.LLST25:
 6646 033a D0000000 		.4byte	.LVL98
 6647 033e F6000000 		.4byte	.LVL104
 6648 0342 0100     		.2byte	0x1
 6649 0344 55       		.byte	0x55
 6650 0345 00000000 		.4byte	0
 6651 0349 00000000 		.4byte	0
 6652              	.LLST26:
 6653 034d DA000000 		.4byte	.LVL99
 6654 0351 E3000000 		.4byte	.LVL100-1
 6655 0355 0700     		.2byte	0x7
 6656 0357 74       		.byte	0x74
 6657 0358 00       		.sleb128 0
 6658 0359 32       		.byte	0x32
 6659 035a 24       		.byte	0x24
 6660 035b 75       		.byte	0x75
 6661 035c 00       		.sleb128 0
ARM GAS  C:\Users\giris\AppData\Local\Temp\cceloVpD.s 			page 142


 6662 035d 22       		.byte	0x22
 6663 035e 00000000 		.4byte	0
 6664 0362 00000000 		.4byte	0
 6665              	.LLST27:
 6666 0366 3E010000 		.4byte	.LVL109
 6667 036a 78010000 		.4byte	.LVL117
 6668 036e 0200     		.2byte	0x2
 6669 0370 30       		.byte	0x30
 6670 0371 9F       		.byte	0x9f
 6671 0372 00000000 		.4byte	0
 6672 0376 00000000 		.4byte	0
 6673              	.LLST28:
 6674 037a 3E010000 		.4byte	.LVL109
 6675 037e 5E010000 		.4byte	.LVL112
 6676 0382 0200     		.2byte	0x2
 6677 0384 30       		.byte	0x30
 6678 0385 9F       		.byte	0x9f
 6679 0386 5E010000 		.4byte	.LVL112
 6680 038a 6C010000 		.4byte	.LVL115
 6681 038e 0100     		.2byte	0x1
 6682 0390 54       		.byte	0x54
 6683 0391 6C010000 		.4byte	.LVL115
 6684 0395 6E010000 		.4byte	.LVL116
 6685 0399 0200     		.2byte	0x2
 6686 039b 30       		.byte	0x30
 6687 039c 9F       		.byte	0x9f
 6688 039d 6E010000 		.4byte	.LVL116
 6689 03a1 78010000 		.4byte	.LVL117
 6690 03a5 0100     		.2byte	0x1
 6691 03a7 54       		.byte	0x54
 6692 03a8 00000000 		.4byte	0
 6693 03ac 00000000 		.4byte	0
 6694              	.LLST29:
 6695 03b0 56010000 		.4byte	.LVL111
 6696 03b4 78010000 		.4byte	.LVL117
 6697 03b8 0100     		.2byte	0x1
 6698 03ba 55       		.byte	0x55
 6699 03bb 00000000 		.4byte	0
 6700 03bf 00000000 		.4byte	0
 6701              	.LLST30:
 6702 03c3 5E010000 		.4byte	.LVL112
 6703 03c7 67010000 		.4byte	.LVL113-1
 6704 03cb 0700     		.2byte	0x7
 6705 03cd 74       		.byte	0x74
 6706 03ce 00       		.sleb128 0
 6707 03cf 32       		.byte	0x32
 6708 03d0 24       		.byte	0x24
 6709 03d1 75       		.byte	0x75
 6710 03d2 00       		.sleb128 0
 6711 03d3 22       		.byte	0x22
 6712 03d4 00000000 		.4byte	0
 6713 03d8 00000000 		.4byte	0
 6714              	.LLST31:
 6715 03dc 26000000 		.4byte	.LVL121
 6716 03e0 46000000 		.4byte	.LVL124
 6717 03e4 0200     		.2byte	0x2
 6718 03e6 30       		.byte	0x30
ARM GAS  C:\Users\giris\AppData\Local\Temp\cceloVpD.s 			page 143


 6719 03e7 9F       		.byte	0x9f
 6720 03e8 46000000 		.4byte	.LVL124
 6721 03ec 54000000 		.4byte	.LVL127
 6722 03f0 0100     		.2byte	0x1
 6723 03f2 54       		.byte	0x54
 6724 03f3 54000000 		.4byte	.LVL127
 6725 03f7 56000000 		.4byte	.LVL128
 6726 03fb 0200     		.2byte	0x2
 6727 03fd 30       		.byte	0x30
 6728 03fe 9F       		.byte	0x9f
 6729 03ff 56000000 		.4byte	.LVL128
 6730 0403 60000000 		.4byte	.LVL129
 6731 0407 0100     		.2byte	0x1
 6732 0409 54       		.byte	0x54
 6733 040a 00000000 		.4byte	0
 6734 040e 00000000 		.4byte	0
 6735              	.LLST32:
 6736 0412 3E000000 		.4byte	.LVL123
 6737 0416 60000000 		.4byte	.LVL129
 6738 041a 0100     		.2byte	0x1
 6739 041c 55       		.byte	0x55
 6740 041d 00000000 		.4byte	0
 6741 0421 00000000 		.4byte	0
 6742              	.LLST33:
 6743 0425 46000000 		.4byte	.LVL124
 6744 0429 4F000000 		.4byte	.LVL125-1
 6745 042d 0700     		.2byte	0x7
 6746 042f 74       		.byte	0x74
 6747 0430 00       		.sleb128 0
 6748 0431 32       		.byte	0x32
 6749 0432 24       		.byte	0x24
 6750 0433 75       		.byte	0x75
 6751 0434 00       		.sleb128 0
 6752 0435 22       		.byte	0x22
 6753 0436 00000000 		.4byte	0
 6754 043a 00000000 		.4byte	0
 6755              	.LLST34:
 6756 043e 26000000 		.4byte	.LVL135
 6757 0442 46000000 		.4byte	.LVL138
 6758 0446 0200     		.2byte	0x2
 6759 0448 30       		.byte	0x30
 6760 0449 9F       		.byte	0x9f
 6761 044a 46000000 		.4byte	.LVL138
 6762 044e 54000000 		.4byte	.LVL141
 6763 0452 0100     		.2byte	0x1
 6764 0454 54       		.byte	0x54
 6765 0455 54000000 		.4byte	.LVL141
 6766 0459 56000000 		.4byte	.LVL142
 6767 045d 0200     		.2byte	0x2
 6768 045f 30       		.byte	0x30
 6769 0460 9F       		.byte	0x9f
 6770 0461 56000000 		.4byte	.LVL142
 6771 0465 60000000 		.4byte	.LVL143
 6772 0469 0100     		.2byte	0x1
 6773 046b 54       		.byte	0x54
 6774 046c 00000000 		.4byte	0
 6775 0470 00000000 		.4byte	0
ARM GAS  C:\Users\giris\AppData\Local\Temp\cceloVpD.s 			page 144


 6776              	.LLST35:
 6777 0474 3E000000 		.4byte	.LVL137
 6778 0478 60000000 		.4byte	.LVL143
 6779 047c 0100     		.2byte	0x1
 6780 047e 55       		.byte	0x55
 6781 047f 00000000 		.4byte	0
 6782 0483 00000000 		.4byte	0
 6783              	.LLST36:
 6784 0487 46000000 		.4byte	.LVL138
 6785 048b 4F000000 		.4byte	.LVL139-1
 6786 048f 0700     		.2byte	0x7
 6787 0491 74       		.byte	0x74
 6788 0492 00       		.sleb128 0
 6789 0493 32       		.byte	0x32
 6790 0494 24       		.byte	0x24
 6791 0495 75       		.byte	0x75
 6792 0496 00       		.sleb128 0
 6793 0497 22       		.byte	0x22
 6794 0498 00000000 		.4byte	0
 6795 049c 00000000 		.4byte	0
 6796              	.LLST37:
 6797 04a0 2C000000 		.4byte	.LVL149
 6798 04a4 4C000000 		.4byte	.LVL152
 6799 04a8 0200     		.2byte	0x2
 6800 04aa 30       		.byte	0x30
 6801 04ab 9F       		.byte	0x9f
 6802 04ac 4C000000 		.4byte	.LVL152
 6803 04b0 5A000000 		.4byte	.LVL155
 6804 04b4 0100     		.2byte	0x1
 6805 04b6 54       		.byte	0x54
 6806 04b7 5A000000 		.4byte	.LVL155
 6807 04bb 5C000000 		.4byte	.LVL156
 6808 04bf 0200     		.2byte	0x2
 6809 04c1 30       		.byte	0x30
 6810 04c2 9F       		.byte	0x9f
 6811 04c3 5C000000 		.4byte	.LVL156
 6812 04c7 66000000 		.4byte	.LVL157
 6813 04cb 0100     		.2byte	0x1
 6814 04cd 54       		.byte	0x54
 6815 04ce 00000000 		.4byte	0
 6816 04d2 00000000 		.4byte	0
 6817              	.LLST38:
 6818 04d6 44000000 		.4byte	.LVL151
 6819 04da 66000000 		.4byte	.LVL157
 6820 04de 0100     		.2byte	0x1
 6821 04e0 55       		.byte	0x55
 6822 04e1 00000000 		.4byte	0
 6823 04e5 00000000 		.4byte	0
 6824              	.LLST39:
 6825 04e9 4C000000 		.4byte	.LVL152
 6826 04ed 55000000 		.4byte	.LVL153-1
 6827 04f1 0700     		.2byte	0x7
 6828 04f3 74       		.byte	0x74
 6829 04f4 00       		.sleb128 0
 6830 04f5 32       		.byte	0x32
 6831 04f6 24       		.byte	0x24
 6832 04f7 75       		.byte	0x75
ARM GAS  C:\Users\giris\AppData\Local\Temp\cceloVpD.s 			page 145


 6833 04f8 00       		.sleb128 0
 6834 04f9 22       		.byte	0x22
 6835 04fa 00000000 		.4byte	0
 6836 04fe 00000000 		.4byte	0
 6837              	.LLST40:
 6838 0502 26000000 		.4byte	.LVL164
 6839 0506 46000000 		.4byte	.LVL167
 6840 050a 0200     		.2byte	0x2
 6841 050c 30       		.byte	0x30
 6842 050d 9F       		.byte	0x9f
 6843 050e 46000000 		.4byte	.LVL167
 6844 0512 54000000 		.4byte	.LVL170
 6845 0516 0100     		.2byte	0x1
 6846 0518 54       		.byte	0x54
 6847 0519 54000000 		.4byte	.LVL170
 6848 051d 56000000 		.4byte	.LVL171
 6849 0521 0200     		.2byte	0x2
 6850 0523 30       		.byte	0x30
 6851 0524 9F       		.byte	0x9f
 6852 0525 56000000 		.4byte	.LVL171
 6853 0529 60000000 		.4byte	.LVL172
 6854 052d 0100     		.2byte	0x1
 6855 052f 54       		.byte	0x54
 6856 0530 00000000 		.4byte	0
 6857 0534 00000000 		.4byte	0
 6858              	.LLST41:
 6859 0538 3E000000 		.4byte	.LVL166
 6860 053c 60000000 		.4byte	.LVL172
 6861 0540 0100     		.2byte	0x1
 6862 0542 55       		.byte	0x55
 6863 0543 00000000 		.4byte	0
 6864 0547 00000000 		.4byte	0
 6865              	.LLST42:
 6866 054b 46000000 		.4byte	.LVL167
 6867 054f 4F000000 		.4byte	.LVL168-1
 6868 0553 0700     		.2byte	0x7
 6869 0555 74       		.byte	0x74
 6870 0556 00       		.sleb128 0
 6871 0557 32       		.byte	0x32
 6872 0558 24       		.byte	0x24
 6873 0559 75       		.byte	0x75
 6874 055a 00       		.sleb128 0
 6875 055b 22       		.byte	0x22
 6876 055c 00000000 		.4byte	0
 6877 0560 00000000 		.4byte	0
 6878              	.LLST43:
 6879 0564 5C000000 		.4byte	.LVL179
 6880 0568 86000000 		.4byte	.LVL181
 6881 056c 0200     		.2byte	0x2
 6882 056e 30       		.byte	0x30
 6883 056f 9F       		.byte	0x9f
 6884 0570 86000000 		.4byte	.LVL181
 6885 0574 94000000 		.4byte	.LVL184
 6886 0578 0100     		.2byte	0x1
 6887 057a 54       		.byte	0x54
 6888 057b 94000000 		.4byte	.LVL184
 6889 057f 96000000 		.4byte	.LVL185
ARM GAS  C:\Users\giris\AppData\Local\Temp\cceloVpD.s 			page 146


 6890 0583 0200     		.2byte	0x2
 6891 0585 30       		.byte	0x30
 6892 0586 9F       		.byte	0x9f
 6893 0587 96000000 		.4byte	.LVL185
 6894 058b A0000000 		.4byte	.LVL186
 6895 058f 0100     		.2byte	0x1
 6896 0591 54       		.byte	0x54
 6897 0592 00000000 		.4byte	0
 6898 0596 00000000 		.4byte	0
 6899              	.LLST44:
 6900 059a 7C000000 		.4byte	.LVL180
 6901 059e A4000000 		.4byte	.LVL187
 6902 05a2 0100     		.2byte	0x1
 6903 05a4 55       		.byte	0x55
 6904 05a5 00000000 		.4byte	0
 6905 05a9 00000000 		.4byte	0
 6906              	.LLST45:
 6907 05ad 86000000 		.4byte	.LVL181
 6908 05b1 8F000000 		.4byte	.LVL182-1
 6909 05b5 0700     		.2byte	0x7
 6910 05b7 74       		.byte	0x74
 6911 05b8 00       		.sleb128 0
 6912 05b9 32       		.byte	0x32
 6913 05ba 24       		.byte	0x24
 6914 05bb 75       		.byte	0x75
 6915 05bc 00       		.sleb128 0
 6916 05bd 22       		.byte	0x22
 6917 05be 00000000 		.4byte	0
 6918 05c2 00000000 		.4byte	0
 6919              	.LLST46:
 6920 05c6 00000000 		.4byte	.LVL188
 6921 05ca 18000000 		.4byte	.LVL190
 6922 05ce 0100     		.2byte	0x1
 6923 05d0 50       		.byte	0x50
 6924 05d1 18000000 		.4byte	.LVL190
 6925 05d5 28000000 		.4byte	.LFE145
 6926 05d9 0400     		.2byte	0x4
 6927 05db F3       		.byte	0xf3
 6928 05dc 01       		.uleb128 0x1
 6929 05dd 50       		.byte	0x50
 6930 05de 9F       		.byte	0x9f
 6931 05df 00000000 		.4byte	0
 6932 05e3 00000000 		.4byte	0
 6933              	.LLST47:
 6934 05e7 04000000 		.4byte	.LVL189
 6935 05eb 18000000 		.4byte	.LVL190
 6936 05ef 0100     		.2byte	0x1
 6937 05f1 50       		.byte	0x50
 6938 05f2 18000000 		.4byte	.LVL190
 6939 05f6 28000000 		.4byte	.LFE145
 6940 05fa 0400     		.2byte	0x4
 6941 05fc F3       		.byte	0xf3
 6942 05fd 01       		.uleb128 0x1
 6943 05fe 50       		.byte	0x50
 6944 05ff 9F       		.byte	0x9f
 6945 0600 00000000 		.4byte	0
 6946 0604 00000000 		.4byte	0
ARM GAS  C:\Users\giris\AppData\Local\Temp\cceloVpD.s 			page 147


 6947              		.section	.debug_aranges,"",%progbits
 6948 0000 B4000000 		.4byte	0xb4
 6949 0004 0200     		.2byte	0x2
 6950 0006 00000000 		.4byte	.Ldebug_info0
 6951 000a 04       		.byte	0x4
 6952 000b 00       		.byte	0
 6953 000c 0000     		.2byte	0
 6954 000e 0000     		.2byte	0
 6955 0010 00000000 		.4byte	.LFB158
 6956 0014 8C000000 		.4byte	.LFE158-.LFB158
 6957 0018 00000000 		.4byte	.LFB159
 6958 001c A8000000 		.4byte	.LFE159-.LFB159
 6959 0020 00000000 		.4byte	.LFB160
 6960 0024 6C000000 		.4byte	.LFE160-.LFB160
 6961 0028 00000000 		.4byte	.LFB161
 6962 002c C4000000 		.4byte	.LFE161-.LFB161
 6963 0030 00000000 		.4byte	.LFB148
 6964 0034 08000000 		.4byte	.LFE148-.LFB148
 6965 0038 00000000 		.4byte	.LFB162
 6966 003c 9C000000 		.4byte	.LFE162-.LFB162
 6967 0040 00000000 		.4byte	.LFB163
 6968 0044 A0000000 		.4byte	.LFE163-.LFB163
 6969 0048 00000000 		.4byte	.LFB157
 6970 004c 2C000000 		.4byte	.LFE157-.LFB157
 6971 0050 00000000 		.4byte	.LFB146
 6972 0054 88010000 		.4byte	.LFE146-.LFB146
 6973 0058 00000000 		.4byte	.LFB147
 6974 005c 70000000 		.4byte	.LFE147-.LFB147
 6975 0060 00000000 		.4byte	.LFB152
 6976 0064 0C000000 		.4byte	.LFE152-.LFB152
 6977 0068 00000000 		.4byte	.LFB151
 6978 006c 70000000 		.4byte	.LFE151-.LFB151
 6979 0070 00000000 		.4byte	.LFB150
 6980 0074 0C000000 		.4byte	.LFE150-.LFB150
 6981 0078 00000000 		.4byte	.LFB149
 6982 007c 80000000 		.4byte	.LFE149-.LFB149
 6983 0080 00000000 		.4byte	.LFB156
 6984 0084 0C000000 		.4byte	.LFE156-.LFB156
 6985 0088 00000000 		.4byte	.LFB155
 6986 008c 70000000 		.4byte	.LFE155-.LFB155
 6987 0090 00000000 		.4byte	.LFB154
 6988 0094 0C000000 		.4byte	.LFE154-.LFB154
 6989 0098 00000000 		.4byte	.LFB153
 6990 009c 0C000000 		.4byte	.LFE153-.LFB153
 6991 00a0 00000000 		.4byte	.LFB144
 6992 00a4 A8000000 		.4byte	.LFE144-.LFB144
 6993 00a8 00000000 		.4byte	.LFB145
 6994 00ac 28000000 		.4byte	.LFE145-.LFB145
 6995 00b0 00000000 		.4byte	0
 6996 00b4 00000000 		.4byte	0
 6997              		.section	.debug_ranges,"",%progbits
 6998              	.Ldebug_ranges0:
 6999 0000 00000000 		.4byte	.LFB158
 7000 0004 8C000000 		.4byte	.LFE158
 7001 0008 00000000 		.4byte	.LFB159
 7002 000c A8000000 		.4byte	.LFE159
 7003 0010 00000000 		.4byte	.LFB160
ARM GAS  C:\Users\giris\AppData\Local\Temp\cceloVpD.s 			page 148


 7004 0014 6C000000 		.4byte	.LFE160
 7005 0018 00000000 		.4byte	.LFB161
 7006 001c C4000000 		.4byte	.LFE161
 7007 0020 00000000 		.4byte	.LFB148
 7008 0024 08000000 		.4byte	.LFE148
 7009 0028 00000000 		.4byte	.LFB162
 7010 002c 9C000000 		.4byte	.LFE162
 7011 0030 00000000 		.4byte	.LFB163
 7012 0034 A0000000 		.4byte	.LFE163
 7013 0038 00000000 		.4byte	.LFB157
 7014 003c 2C000000 		.4byte	.LFE157
 7015 0040 00000000 		.4byte	.LFB146
 7016 0044 88010000 		.4byte	.LFE146
 7017 0048 00000000 		.4byte	.LFB147
 7018 004c 70000000 		.4byte	.LFE147
 7019 0050 00000000 		.4byte	.LFB152
 7020 0054 0C000000 		.4byte	.LFE152
 7021 0058 00000000 		.4byte	.LFB151
 7022 005c 70000000 		.4byte	.LFE151
 7023 0060 00000000 		.4byte	.LFB150
 7024 0064 0C000000 		.4byte	.LFE150
 7025 0068 00000000 		.4byte	.LFB149
 7026 006c 80000000 		.4byte	.LFE149
 7027 0070 00000000 		.4byte	.LFB156
 7028 0074 0C000000 		.4byte	.LFE156
 7029 0078 00000000 		.4byte	.LFB155
 7030 007c 70000000 		.4byte	.LFE155
 7031 0080 00000000 		.4byte	.LFB154
 7032 0084 0C000000 		.4byte	.LFE154
 7033 0088 00000000 		.4byte	.LFB153
 7034 008c 0C000000 		.4byte	.LFE153
 7035 0090 00000000 		.4byte	.LFB144
 7036 0094 A8000000 		.4byte	.LFE144
 7037 0098 00000000 		.4byte	.LFB145
 7038 009c 28000000 		.4byte	.LFE145
 7039 00a0 00000000 		.4byte	0
 7040 00a4 00000000 		.4byte	0
 7041              		.section	.debug_line,"",%progbits
 7042              	.Ldebug_line0:
 7043 0000 EC060000 		.section	.debug_str,"MS",%progbits,1
 7043      02008503 
 7043      00000201 
 7043      FB0E0D00 
 7043      01010101 
 7044              	.LASF86:
 7045 0000 434C4F43 		.ascii	"CLOCK_Active_Widget_t\000"
 7045      4B5F4163 
 7045      74697665 
 7045      5F576964 
 7045      6765745F 
 7046              	.LASF70:
 7047 0016 45565F4B 		.ascii	"EV_KEYLEFT\000"
 7047      45594C45 
 7047      465400
 7048              	.LASF121:
 7049 0021 66726F6D 		.ascii	"fromState\000"
 7049      53746174 
ARM GAS  C:\Users\giris\AppData\Local\Temp\cceloVpD.s 			page 149


 7049      6500
 7050              	.LASF145:
 7051 002b 53435F49 		.ascii	"SC_INPUT_driverOut_t\000"
 7051      4E505554 
 7051      5F647269 
 7051      7665724F 
 7051      75745F74 
 7052              	.LASF133:
 7053 0040 434C4F43 		.ascii	"CLOCK_Widget_t\000"
 7053      4B5F5769 
 7053      64676574 
 7053      5F7400
 7054              	.LASF157:
 7055 004f 7265736F 		.ascii	"resource\000"
 7055      75726365 
 7055      00
 7056              	.LASF163:
 7057 0058 686F7572 		.ascii	"hour\000"
 7057      00
 7058              	.LASF38:
 7059 005d 52435F45 		.ascii	"RC_ERROR_INVALID_STATE\000"
 7059      52524F52 
 7059      5F494E56 
 7059      414C4944 
 7059      5F535441 
 7060              	.LASF54:
 7061 0074 4D414745 		.ascii	"MAGENTA\000"
 7061      4E544100 
 7062              	.LASF44:
 7063 007c 73697A65 		.ascii	"size_t\000"
 7063      5F7400
 7064              	.LASF225:
 7065 0083 53544154 		.ascii	"STATE_CLOCK_C_ISEDITINGHOURS_Transitions\000"
 7065      455F434C 
 7065      4F434B5F 
 7065      435F4953 
 7065      45444954 
 7066              	.LASF174:
 7067 00ac 70546173 		.ascii	"pTaskArray\000"
 7067      6B417272 
 7067      617900
 7068              	.LASF52:
 7069 00b7 47524544 		.ascii	"GRED\000"
 7069      00
 7070              	.LASF224:
 7071 00bc 53544154 		.ascii	"STATE_CLOCK_C_ISDISPLAYING_Transitions\000"
 7071      455F434C 
 7071      4F434B5F 
 7071      435F4953 
 7071      44495350 
 7072              	.LASF107:
 7073 00e3 5265736F 		.ascii	"ResourceType\000"
 7073      75726365 
 7073      54797065 
 7073      00
 7074              	.LASF235:
 7075 00f0 434C4F43 		.ascii	"CLOCK__Dispatch_Wrapper\000"
ARM GAS  C:\Users\giris\AppData\Local\Temp\cceloVpD.s 			page 150


 7075      4B5F5F44 
 7075      69737061 
 7075      7463685F 
 7075      57726170 
 7076              	.LASF196:
 7077 0108 6C6F6361 		.ascii	"localstate\000"
 7077      6C737461 
 7077      746500
 7078              	.LASF41:
 7079 0113 52435F74 		.ascii	"RC_t\000"
 7079      00
 7080              	.LASF30:
 7081 0118 52435F45 		.ascii	"RC_ERROR_WRITE_ONLY\000"
 7081      52524F52 
 7081      5F575249 
 7081      54455F4F 
 7081      4E4C5900 
 7082              	.LASF116:
 7083 012c 746F5374 		.ascii	"toState\000"
 7083      61746500 
 7084              	.LASF128:
 7085 0134 6D5F7769 		.ascii	"m_widgetState\000"
 7085      64676574 
 7085      53746174 
 7085      6500
 7086              	.LASF176:
 7087 0142 5254455F 		.ascii	"RTE_SC_CONTROL_set\000"
 7087      53435F43 
 7087      4F4E5452 
 7087      4F4C5F73 
 7087      657400
 7088              	.LASF207:
 7089 0155 434C4F43 		.ascii	"CLOCK_Container_Transitions\000"
 7089      4B5F436F 
 7089      6E746169 
 7089      6E65725F 
 7089      5472616E 
 7090              	.LASF129:
 7091 0171 6D5F7472 		.ascii	"m_transitions\000"
 7091      616E7369 
 7091      74696F6E 
 7091      7300
 7092              	.LASF230:
 7093 017f 45455F6F 		.ascii	"EE_oo_SetEvent\000"
 7093      6F5F5365 
 7093      74457665 
 7093      6E7400
 7094              	.LASF198:
 7095 018e 434C4F43 		.ascii	"CLOCK__Dispatch_250MS_Hours\000"
 7095      4B5F5F44 
 7095      69737061 
 7095      7463685F 
 7095      3235304D 
 7096              	.LASF26:
 7097 01aa 52435F45 		.ascii	"RC_ERROR_TIME_OUT\000"
 7097      52524F52 
 7097      5F54494D 
ARM GAS  C:\Users\giris\AppData\Local\Temp\cceloVpD.s 			page 151


 7097      455F4F55 
 7097      5400
 7098              	.LASF76:
 7099 01bc 434C4F43 		.ascii	"CLOCK_C_ISDISPLAYING\000"
 7099      4B5F435F 
 7099      49534449 
 7099      53504C41 
 7099      59494E47 
 7100              	.LASF197:
 7101 01d1 434C4F43 		.ascii	"CLOCK__Dispatch_KL_Hours\000"
 7101      4B5F5F44 
 7101      69737061 
 7101      7463685F 
 7101      4B4C5F48 
 7102              	.LASF42:
 7103 01ea 5F5F696E 		.ascii	"__int32_t\000"
 7103      7433325F 
 7103      7400
 7104              	.LASF83:
 7105 01f4 434C4F43 		.ascii	"CLOCK_HOURWIDGET\000"
 7105      4B5F484F 
 7105      55525749 
 7105      44474554 
 7105      00
 7106              	.LASF220:
 7107 0205 49544D5F 		.ascii	"ITM_RxBuffer\000"
 7107      52784275 
 7107      66666572 
 7107      00
 7108              	.LASF48:
 7109 0212 57484954 		.ascii	"WHITE\000"
 7109      4500
 7110              	.LASF68:
 7111 0218 5446545F 		.ascii	"TFT_colors_t\000"
 7111      636F6C6F 
 7111      72735F74 
 7111      00
 7112              	.LASF187:
 7113 0225 74696D65 		.ascii	"time\000"
 7113      00
 7114              	.LASF109:
 7115 022a 5254455F 		.ascii	"RTE_SIGNALSTATUS_INITIALIZED\000"
 7115      5349474E 
 7115      414C5354 
 7115      41545553 
 7115      5F494E49 
 7116              	.LASF139:
 7117 0247 4B65794C 		.ascii	"KeyLeft_Button_3_Status\000"
 7117      6566745F 
 7117      42757474 
 7117      6F6E5F33 
 7117      5F537461 
 7118              	.LASF193:
 7119 025f 434C4F43 		.ascii	"CLOCK__incrementWidget\000"
 7119      4B5F5F69 
 7119      6E637265 
 7119      6D656E74 
ARM GAS  C:\Users\giris\AppData\Local\Temp\cceloVpD.s 			page 152


 7119      57696467 
 7120              	.LASF11:
 7121 0276 6C6F6E67 		.ascii	"long long int\000"
 7121      206C6F6E 
 7121      6720696E 
 7121      7400
 7122              	.LASF0:
 7123 0284 7369676E 		.ascii	"signed char\000"
 7123      65642063 
 7123      68617200 
 7124              	.LASF105:
 7125 0290 4576656E 		.ascii	"EventMaskType\000"
 7125      744D6173 
 7125      6B547970 
 7125      6500
 7126              	.LASF150:
 7127 029e 65764F6E 		.ascii	"evOnUpdate\000"
 7127      55706461 
 7127      746500
 7128              	.LASF184:
 7129 02a9 434C4F43 		.ascii	"CLOCK__updateDisplay\000"
 7129      4B5F5F75 
 7129      70646174 
 7129      65446973 
 7129      706C6179 
 7130              	.LASF122:
 7131 02be 70496E6E 		.ascii	"pInnerTransitionTable\000"
 7131      65725472 
 7131      616E7369 
 7131      74696F6E 
 7131      5461626C 
 7132              	.LASF61:
 7133 02d4 4441524B 		.ascii	"DARKBLUE\000"
 7133      424C5545 
 7133      00
 7134              	.LASF227:
 7135 02dd 53544154 		.ascii	"STATE_CLOCK_W_ISDISPLAYING_Transitions\000"
 7135      455F434C 
 7135      4F434B5F 
 7135      575F4953 
 7135      44495350 
 7136              	.LASF181:
 7137 0304 434C4F43 		.ascii	"CLOCK__setDisplayFonts\000"
 7137      4B5F5F73 
 7137      65744469 
 7137      73706C61 
 7137      79466F6E 
 7138              	.LASF24:
 7139 031b 52435F45 		.ascii	"RC_ERROR_BUFFER_EMTPY\000"
 7139      52524F52 
 7139      5F425546 
 7139      4645525F 
 7139      454D5450 
 7140              	.LASF124:
 7141 0331 73746174 		.ascii	"state\000"
 7141      6500
 7142              	.LASF114:
ARM GAS  C:\Users\giris\AppData\Local\Temp\cceloVpD.s 			page 153


 7143 0337 53544154 		.ascii	"STATE_GuardPtr_t\000"
 7143      455F4775 
 7143      61726450 
 7143      74725F74 
 7143      00
 7144              	.LASF6:
 7145 0348 6C6F6E67 		.ascii	"long int\000"
 7145      20696E74 
 7145      00
 7146              	.LASF185:
 7147 0351 636C6F63 		.ascii	"clock_values\000"
 7147      6B5F7661 
 7147      6C756573 
 7147      00
 7148              	.LASF226:
 7149 035e 53544154 		.ascii	"STATE_CLOCK_C_ISEDITINGMINUTES_Transitions\000"
 7149      455F434C 
 7149      4F434B5F 
 7149      435F4953 
 7149      45444954 
 7150              	.LASF36:
 7151 0389 52435F45 		.ascii	"RC_ERROR_BAD_DATA\000"
 7151      52524F52 
 7151      5F424144 
 7151      5F444154 
 7151      4100
 7152              	.LASF77:
 7153 039b 434C4F43 		.ascii	"CLOCK_C_ISEDITINGHOURS\000"
 7153      4B5F435F 
 7153      49534544 
 7153      4954494E 
 7153      47484F55 
 7154              	.LASF58:
 7155 03b2 42524F57 		.ascii	"BROWN\000"
 7155      4E00
 7156              	.LASF238:
 7157 03b8 6D656D63 		.ascii	"memcpy\000"
 7157      707900
 7158              	.LASF126:
 7159 03bf 61637469 		.ascii	"actionExit\000"
 7159      6F6E4578 
 7159      697400
 7160              	.LASF89:
 7161 03ca 77696467 		.ascii	"widget_colour\000"
 7161      65745F63 
 7161      6F6C6F75 
 7161      7200
 7162              	.LASF57:
 7163 03d8 59454C4C 		.ascii	"YELLOW\000"
 7163      4F5700
 7164              	.LASF27:
 7165 03df 52435F45 		.ascii	"RC_ERROR_OPEN\000"
 7165      52524F52 
 7165      5F4F5045 
 7165      4E00
 7166              	.LASF73:
 7167 03ed 45565F32 		.ascii	"EV_250MS\000"
ARM GAS  C:\Users\giris\AppData\Local\Temp\cceloVpD.s 			page 154


 7167      35304D53 
 7167      00
 7168              	.LASF10:
 7169 03f6 646F7562 		.ascii	"double\000"
 7169      6C6500
 7170              	.LASF170:
 7171 03fd 53435F43 		.ascii	"SC_CONTROL_s\000"
 7171      4F4E5452 
 7171      4F4C5F73 
 7171      00
 7172              	.LASF201:
 7173 040a 434C4F43 		.ascii	"CLOCK__Dispatch_KL_HoursMin\000"
 7173      4B5F5F44 
 7173      69737061 
 7173      7463685F 
 7173      4B4C5F48 
 7174              	.LASF180:
 7175 0426 62756666 		.ascii	"buffer\000"
 7175      657200
 7176              	.LASF91:
 7177 042d 795F706F 		.ascii	"y_pos\000"
 7177      7300
 7178              	.LASF110:
 7179 0433 5254455F 		.ascii	"RTE_SIGNALSTATUS_VALID\000"
 7179      5349474E 
 7179      414C5354 
 7179      41545553 
 7179      5F56414C 
 7180              	.LASF96:
 7181 044a 434C4F43 		.ascii	"CLOCK_display_t\000"
 7181      4B5F6469 
 7181      73706C61 
 7181      795F7400 
 7182              	.LASF5:
 7183 045a 73686F72 		.ascii	"short unsigned int\000"
 7183      7420756E 
 7183      7369676E 
 7183      65642069 
 7183      6E7400
 7184              	.LASF152:
 7185 046d 6F6E5570 		.ascii	"onUpdateTaskCount\000"
 7185      64617465 
 7185      5461736B 
 7185      436F756E 
 7185      7400
 7186              	.LASF218:
 7187 047f 45455F73 		.ascii	"EE_std_endcycle_next_tid\000"
 7187      74645F65 
 7187      6E646379 
 7187      636C655F 
 7187      6E657874 
 7188              	.LASF202:
 7189 0498 434C4F43 		.ascii	"CLOCK__Dispatch_250MS_Min\000"
 7189      4B5F5F44 
 7189      69737061 
 7189      7463685F 
 7189      3235304D 
ARM GAS  C:\Users\giris\AppData\Local\Temp\cceloVpD.s 			page 155


 7190              	.LASF71:
 7191 04b2 45565F4B 		.ascii	"EV_KEYRIGHT\000"
 7191      45595249 
 7191      47485400 
 7192              	.LASF59:
 7193 04be 42525245 		.ascii	"BRRED\000"
 7193      4400
 7194              	.LASF131:
 7195 04c4 6D5F7661 		.ascii	"m_value\000"
 7195      6C756500 
 7196              	.LASF65:
 7197 04cc 4C475241 		.ascii	"LGRAY\000"
 7197      5900
 7198              	.LASF189:
 7199 04d2 434C4F43 		.ascii	"CLOCK__IncrementHourandDisplay\000"
 7199      4B5F5F49 
 7199      6E637265 
 7199      6D656E74 
 7199      486F7572 
 7200              	.LASF98:
 7201 04f1 53544154 		.ascii	"STATE_state_t\000"
 7201      455F7374 
 7201      6174655F 
 7201      7400
 7202              	.LASF90:
 7203 04ff 785F706F 		.ascii	"x_pos\000"
 7203      7300
 7204              	.LASF103:
 7205 0505 45455F54 		.ascii	"EE_TID\000"
 7205      494400
 7206              	.LASF95:
 7207 050c 76616C75 		.ascii	"value\000"
 7207      6500
 7208              	.LASF234:
 7209 0512 433A5C55 		.ascii	"C:\\Users\\giris\\OneDrive\\Documents\\PSoC Creator"
 7209      73657273 
 7209      5C676972 
 7209      69735C4F 
 7209      6E654472 
 7210 0540 5C454141 		.ascii	"\\EAA\\Assignment2.cydsn\000"
 7210      5C417373 
 7210      69676E6D 
 7210      656E7432 
 7210      2E637964 
 7211              	.LASF231:
 7212 0557 53544154 		.ascii	"STATE_processEvent\000"
 7212      455F7072 
 7212      6F636573 
 7212      73457665 
 7212      6E7400
 7213              	.LASF43:
 7214 056a 756E7369 		.ascii	"unsigned int\000"
 7214      676E6564 
 7214      20696E74 
 7214      00
 7215              	.LASF74:
 7216 0577 45565F31 		.ascii	"EV_1MIN\000"
ARM GAS  C:\Users\giris\AppData\Local\Temp\cceloVpD.s 			page 156


 7216      4D494E00 
 7217              	.LASF4:
 7218 057f 75696E74 		.ascii	"uint16_t\000"
 7218      31365F74 
 7218      00
 7219              	.LASF39:
 7220 0588 52435F45 		.ascii	"RC_ERROR_UNKNOWN\000"
 7220      52524F52 
 7220      5F554E4B 
 7220      4E4F574E 
 7220      00
 7221              	.LASF101:
 7222 0599 45455F55 		.ascii	"EE_UREG\000"
 7222      52454700 
 7223              	.LASF149:
 7224 05a1 6F757444 		.ascii	"outDriver\000"
 7224      72697665 
 7224      7200
 7225              	.LASF28:
 7226 05ab 52435F45 		.ascii	"RC_ERROR_CHECKSUM\000"
 7226      52524F52 
 7226      5F434845 
 7226      434B5355 
 7226      4D00
 7227              	.LASF8:
 7228 05bd 6C6F6E67 		.ascii	"long unsigned int\000"
 7228      20756E73 
 7228      69676E65 
 7228      6420696E 
 7228      7400
 7229              	.LASF17:
 7230 05cf 52435F45 		.ascii	"RC_ERROR_NULL\000"
 7230      52524F52 
 7230      5F4E554C 
 7230      4C00
 7231              	.LASF214:
 7232 05dd 434C4F43 		.ascii	"CLOCK_Widget_Actions_size\000"
 7232      4B5F5769 
 7232      64676574 
 7232      5F416374 
 7232      696F6E73 
 7233              	.LASF15:
 7234 05f7 52435F53 		.ascii	"RC_SUCCESS\000"
 7234      55434345 
 7234      535300
 7235              	.LASF223:
 7236 0602 696E6974 		.ascii	"init_state\000"
 7236      5F737461 
 7236      746500
 7237              	.LASF81:
 7238 060d 434C4F43 		.ascii	"CLOCK_W_ISAUTOINCREMENT\000"
 7238      4B5F575F 
 7238      49534155 
 7238      544F494E 
 7238      4352454D 
 7239              	.LASF203:
 7240 0625 434C4F43 		.ascii	"CLOCK__Dispatch_KRLP_Min\000"
ARM GAS  C:\Users\giris\AppData\Local\Temp\cceloVpD.s 			page 157


 7240      4B5F5F44 
 7240      69737061 
 7240      7463685F 
 7240      4B524C50 
 7241              	.LASF144:
 7242 063e 53435F49 		.ascii	"SC_INPUT_driverIn_t\000"
 7242      4E505554 
 7242      5F647269 
 7242      76657249 
 7242      6E5F7400 
 7243              	.LASF199:
 7244 0652 434C4F43 		.ascii	"CLOCK__Dispatch_KRLP_Hours\000"
 7244      4B5F5F44 
 7244      69737061 
 7244      7463685F 
 7244      4B524C50 
 7245              	.LASF53:
 7246 066d 47424C55 		.ascii	"GBLUE\000"
 7246      4500
 7247              	.LASF12:
 7248 0673 6C6F6E67 		.ascii	"long long unsigned int\000"
 7248      206C6F6E 
 7248      6720756E 
 7248      7369676E 
 7248      65642069 
 7249              	.LASF115:
 7250 068a 6576656E 		.ascii	"event\000"
 7250      7400
 7251              	.LASF87:
 7252 0690 73697A65 		.ascii	"size\000"
 7252      00
 7253              	.LASF104:
 7254 0695 5461736B 		.ascii	"TaskType\000"
 7254      54797065 
 7254      00
 7255              	.LASF215:
 7256 069e 45455F6F 		.ascii	"EE_oo_IRQ_disable_count\000"
 7256      6F5F4952 
 7256      515F6469 
 7256      7361626C 
 7256      655F636F 
 7257              	.LASF23:
 7258 06b6 52435F45 		.ascii	"RC_ERROR_BUFFER_FULL\000"
 7258      52524F52 
 7258      5F425546 
 7258      4645525F 
 7258      46554C4C 
 7259              	.LASF206:
 7260 06cb 6C6F6361 		.ascii	"local_event\000"
 7260      6C5F6576 
 7260      656E7400 
 7261              	.LASF211:
 7262 06d7 434C4F43 		.ascii	"CLOCK_Widget_Transitions\000"
 7262      4B5F5769 
 7262      64676574 
 7262      5F547261 
 7262      6E736974 
ARM GAS  C:\Users\giris\AppData\Local\Temp\cceloVpD.s 			page 158


 7263              	.LASF221:
 7264 06f0 534F5F49 		.ascii	"SO_INPUTEVENT_signal\000"
 7264      4E505554 
 7264      4556454E 
 7264      545F7369 
 7264      676E616C 
 7265              	.LASF125:
 7266 0705 61637469 		.ascii	"actionEntry\000"
 7266      6F6E456E 
 7266      74727900 
 7267              	.LASF85:
 7268 0711 4E4F4E45 		.ascii	"NONE\000"
 7268      00
 7269              	.LASF66:
 7270 0716 4C475241 		.ascii	"LGRAYBLUE\000"
 7270      59424C55 
 7270      4500
 7271              	.LASF33:
 7272 0720 52435F45 		.ascii	"RC_ERROR_WRITE_FAILS\000"
 7272      52524F52 
 7272      5F575249 
 7272      54455F46 
 7272      41494C53 
 7273              	.LASF97:
 7274 0735 53544154 		.ascii	"STATE_event_t\000"
 7274      455F6576 
 7274      656E745F 
 7274      7400
 7275              	.LASF108:
 7276 0743 5254455F 		.ascii	"RTE_SIGNALSTATUS_STARTUP\000"
 7276      5349474E 
 7276      414C5354 
 7276      41545553 
 7276      5F535441 
 7277              	.LASF35:
 7278 075c 52435F45 		.ascii	"RC_ERROR_BAD_PARAM\000"
 7278      52524F52 
 7278      5F424144 
 7278      5F504152 
 7278      414D00
 7279              	.LASF34:
 7280 076f 52435F45 		.ascii	"RC_ERROR_NOT_MATCH\000"
 7280      52524F52 
 7280      5F4E4F54 
 7280      5F4D4154 
 7280      434800
 7281              	.LASF212:
 7282 0782 434C4F43 		.ascii	"CLOCK_Widget_Transitions_size\000"
 7282      4B5F5769 
 7282      64676574 
 7282      5F547261 
 7282      6E736974 
 7283              	.LASF62:
 7284 07a0 4C494748 		.ascii	"LIGHTBLUE\000"
 7284      54424C55 
 7284      4500
 7285              	.LASF84:
ARM GAS  C:\Users\giris\AppData\Local\Temp\cceloVpD.s 			page 159


 7286 07aa 434C4F43 		.ascii	"CLOCK_MINWIDGET\000"
 7286      4B5F4D49 
 7286      4E574944 
 7286      47455400 
 7287              	.LASF127:
 7288 07ba 53544154 		.ascii	"STATE_stateAction_t\000"
 7288      455F7374 
 7288      61746541 
 7288      6374696F 
 7288      6E5F7400 
 7289              	.LASF222:
 7290 07ce 534F5F43 		.ascii	"SO_CONTROL_signal\000"
 7290      4F4E5452 
 7290      4F4C5F73 
 7290      69676E61 
 7290      6C00
 7291              	.LASF82:
 7292 07e0 436C6F63 		.ascii	"Clock_State_Enum_t\000"
 7292      6B5F5374 
 7292      6174655F 
 7292      456E756D 
 7292      5F7400
 7293              	.LASF75:
 7294 07f3 4556454E 		.ascii	"EVENT_t\000"
 7294      545F7400 
 7295              	.LASF46:
 7296 07fb 73697A65 		.ascii	"sizetype\000"
 7296      74797065 
 7296      00
 7297              	.LASF80:
 7298 0804 434C4F43 		.ascii	"CLOCK_W_ISEDITING\000"
 7298      4B5F575F 
 7298      49534544 
 7298      4954494E 
 7298      4700
 7299              	.LASF45:
 7300 0816 6C6F6E67 		.ascii	"long double\000"
 7300      20646F75 
 7300      626C6500 
 7301              	.LASF67:
 7302 0822 4C42424C 		.ascii	"LBBLUE\000"
 7302      554500
 7303              	.LASF13:
 7304 0829 626F6F6C 		.ascii	"boolean_t\000"
 7304      65616E5F 
 7304      7400
 7305              	.LASF119:
 7306 0833 53544154 		.ascii	"STATE_stateInnerTransition_t\000"
 7306      455F7374 
 7306      61746549 
 7306      6E6E6572 
 7306      5472616E 
 7307              	.LASF216:
 7308 0850 45455F6F 		.ascii	"EE_oo_IRQ_suspend_status\000"
 7308      6F5F4952 
 7308      515F7375 
 7308      7370656E 
ARM GAS  C:\Users\giris\AppData\Local\Temp\cceloVpD.s 			page 160


 7308      645F7374 
 7309              	.LASF31:
 7310 0869 52435F45 		.ascii	"RC_ERROR_INVALID\000"
 7310      52524F52 
 7310      5F494E56 
 7310      414C4944 
 7310      00
 7311              	.LASF123:
 7312 087a 53544154 		.ascii	"STATE_stateOuterTransition_t\000"
 7312      455F7374 
 7312      6174654F 
 7312      75746572 
 7312      5472616E 
 7313              	.LASF94:
 7314 0897 666F6E74 		.ascii	"font_type\000"
 7314      5F747970 
 7314      6500
 7315              	.LASF217:
 7316 08a1 45455F41 		.ascii	"EE_ApplicationMode\000"
 7316      70706C69 
 7316      63617469 
 7316      6F6E4D6F 
 7316      646500
 7317              	.LASF78:
 7318 08b4 434C4F43 		.ascii	"CLOCK_C_ISEDITINGMINUTES\000"
 7318      4B5F435F 
 7318      49534544 
 7318      4954494E 
 7318      474D494E 
 7319              	.LASF37:
 7320 08cd 52435F45 		.ascii	"RC_ERROR_CANCELED\000"
 7320      52524F52 
 7320      5F43414E 
 7320      43454C45 
 7320      4400
 7321              	.LASF60:
 7322 08df 47524159 		.ascii	"GRAY\000"
 7322      00
 7323              	.LASF22:
 7324 08e4 52435F45 		.ascii	"RC_ERROR_UNDERRUN\000"
 7324      52524F52 
 7324      5F554E44 
 7324      45525255 
 7324      4E00
 7325              	.LASF32:
 7326 08f6 52435F45 		.ascii	"RC_ERROR_READ_FAILS\000"
 7326      52524F52 
 7326      5F524541 
 7326      445F4641 
 7326      494C5300 
 7327              	.LASF191:
 7328 090a 434C4F43 		.ascii	"CLOCK__IncrementMinuteandDisplay\000"
 7328      4B5F5F49 
 7328      6E637265 
 7328      6D656E74 
 7328      4D696E75 
 7329              	.LASF168:
ARM GAS  C:\Users\giris\AppData\Local\Temp\cceloVpD.s 			page 161


 7330 092b 53435F43 		.ascii	"SC_CONTROL_cfg_s\000"
 7330      4F4E5452 
 7330      4F4C5F63 
 7330      66675F73 
 7330      00
 7331              	.LASF169:
 7332 093c 53435F43 		.ascii	"SC_CONTROL_cfg_t\000"
 7332      4F4E5452 
 7332      4F4C5F63 
 7332      66675F74 
 7332      00
 7333              	.LASF167:
 7334 094d 53435F43 		.ascii	"SC_CONTROL_driverOut_t\000"
 7334      4F4E5452 
 7334      4F4C5F64 
 7334      72697665 
 7334      724F7574 
 7335              	.LASF237:
 7336 0964 50726F63 		.ascii	"ProcessEvent\000"
 7336      65737345 
 7336      76656E74 
 7336      00
 7337              	.LASF209:
 7338 0971 434C4F43 		.ascii	"CLOCK_Container_Actions\000"
 7338      4B5F436F 
 7338      6E746169 
 7338      6E65725F 
 7338      41637469 
 7339              	.LASF159:
 7340 0989 53435F49 		.ascii	"SC_INPUT_s\000"
 7340      4E505554 
 7340      5F7300
 7341              	.LASF162:
 7342 0994 53435F49 		.ascii	"SC_INPUT_t\000"
 7342      4E505554 
 7342      5F7400
 7343              	.LASF16:
 7344 099f 52435F45 		.ascii	"RC_ERROR\000"
 7344      52524F52 
 7344      00
 7345              	.LASF51:
 7346 09a8 42524544 		.ascii	"BRED\000"
 7346      00
 7347              	.LASF142:
 7348 09ad 6D5F636C 		.ascii	"m_clock_data\000"
 7348      6F636B5F 
 7348      64617461 
 7348      00
 7349              	.LASF208:
 7350 09ba 434C4F43 		.ascii	"CLOCK_Container_Transitions_size\000"
 7350      4B5F436F 
 7350      6E746169 
 7350      6E65725F 
 7350      5472616E 
 7351              	.LASF165:
 7352 09db 53435F43 		.ascii	"SC_CONTROL_data_t\000"
 7352      4F4E5452 
ARM GAS  C:\Users\giris\AppData\Local\Temp\cceloVpD.s 			page 162


 7352      4F4C5F64 
 7352      6174615F 
 7352      7400
 7353              	.LASF229:
 7354 09ed 53544154 		.ascii	"STATE_CLOCK_W_ISAUTOINCREMENT_Transitions\000"
 7354      455F434C 
 7354      4F434B5F 
 7354      575F4953 
 7354      4155544F 
 7355              	.LASF25:
 7356 0a17 52435F45 		.ascii	"RC_ERROR_BUSY\000"
 7356      52524F52 
 7356      5F425553 
 7356      5900
 7357              	.LASF140:
 7358 0a25 4B657952 		.ascii	"KeyRight_Button_4_Status\000"
 7358      69676874 
 7358      5F427574 
 7358      746F6E5F 
 7358      345F5374 
 7359              	.LASF154:
 7360 0a3e 6F6E4572 		.ascii	"onErrorTaskCount\000"
 7360      726F7254 
 7360      61736B43 
 7360      6F756E74 
 7360      00
 7361              	.LASF130:
 7362 0a4f 6D5F7374 		.ascii	"m_stateActions\000"
 7362      61746541 
 7362      6374696F 
 7362      6E7300
 7363              	.LASF18:
 7364 0a5e 52435F45 		.ascii	"RC_ERROR_ZERO\000"
 7364      52524F52 
 7364      5F5A4552 
 7364      4F00
 7365              	.LASF47:
 7366 0a6c 696E7433 		.ascii	"int32_t\000"
 7366      325F7400 
 7367              	.LASF1:
 7368 0a74 756E7369 		.ascii	"unsigned char\000"
 7368      676E6564 
 7368      20636861 
 7368      7200
 7369              	.LASF120:
 7370 0a82 53544154 		.ascii	"STATE_stateInnerTransitionTable_t\000"
 7370      455F7374 
 7370      61746549 
 7370      6E6E6572 
 7370      5472616E 
 7371              	.LASF228:
 7372 0aa4 53544154 		.ascii	"STATE_CLOCK_W_ISEDITING_Transitions\000"
 7372      455F434C 
 7372      4F434B5F 
 7372      575F4953 
 7372      45444954 
 7373              	.LASF148:
ARM GAS  C:\Users\giris\AppData\Local\Temp\cceloVpD.s 			page 163


 7374 0ac8 696E4472 		.ascii	"inDriver\000"
 7374      69766572 
 7374      00
 7375              	.LASF195:
 7376 0ad1 77696467 		.ascii	"widget\000"
 7376      657400
 7377              	.LASF236:
 7378 0ad8 73746174 		.ascii	"statemachine_init\000"
 7378      656D6163 
 7378      68696E65 
 7378      5F696E69 
 7378      7400
 7379              	.LASF183:
 7380 0aea 666F6E74 		.ascii	"fontstyle\000"
 7380      7374796C 
 7380      6500
 7381              	.LASF200:
 7382 0af4 434C4F43 		.ascii	"CLOCK__Dispatch_KR_Hours\000"
 7382      4B5F5F44 
 7382      69737061 
 7382      7463685F 
 7382      4B525F48 
 7383              	.LASF138:
 7384 0b0d 434C4F43 		.ascii	"CLOCK_data_t\000"
 7384      4B5F6461 
 7384      74615F74 
 7384      00
 7385              	.LASF147:
 7386 0b1a 53435F49 		.ascii	"SC_INPUT_cfg_s\000"
 7386      4E505554 
 7386      5F636667 
 7386      5F7300
 7387              	.LASF158:
 7388 0b29 53435F49 		.ascii	"SC_INPUT_cfg_t\000"
 7388      4E505554 
 7388      5F636667 
 7388      5F7400
 7389              	.LASF153:
 7390 0b38 6F6E5570 		.ascii	"onUpdateTasks\000"
 7390      64617465 
 7390      5461736B 
 7390      7300
 7391              	.LASF204:
 7392 0b46 434C4F43 		.ascii	"CLOCK__Dispatch_KR_Min\000"
 7392      4B5F5F44 
 7392      69737061 
 7392      7463685F 
 7392      4B525F4D 
 7393              	.LASF143:
 7394 0b5d 53435F49 		.ascii	"SC_INPUT_data_t\000"
 7394      4E505554 
 7394      5F646174 
 7394      615F7400 
 7395              	.LASF232:
 7396 0b6d 474E5520 		.ascii	"GNU C11 5.4.1 20160609 (release) [ARM/embedded-5-br"
 7396      43313120 
 7396      352E342E 
ARM GAS  C:\Users\giris\AppData\Local\Temp\cceloVpD.s 			page 164


 7396      31203230 
 7396      31363036 
 7397 0ba0 616E6368 		.ascii	"anch revision 237715] -mcpu=cortex-m3 -mthumb -g -O"
 7397      20726576 
 7397      6973696F 
 7397      6E203233 
 7397      37373135 
 7398 0bd3 67202D66 		.ascii	"g -ffunction-sections -ffat-lto-objects\000"
 7398      66756E63 
 7398      74696F6E 
 7398      2D736563 
 7398      74696F6E 
 7399              	.LASF177:
 7400 0bfb 5254455F 		.ascii	"RTE_SC_CONTROL_get\000"
 7400      53435F43 
 7400      4F4E5452 
 7400      4F4C5F67 
 7400      657400
 7401              	.LASF151:
 7402 0c0e 65764F6E 		.ascii	"evOnError\000"
 7402      4572726F 
 7402      7200
 7403              	.LASF56:
 7404 0c18 4359414E 		.ascii	"CYAN\000"
 7404      00
 7405              	.LASF188:
 7406 0c1d 434C4F43 		.ascii	"CLOCK__Increment1Minute\000"
 7406      4B5F5F49 
 7406      6E637265 
 7406      6D656E74 
 7406      314D696E 
 7407              	.LASF161:
 7408 0c35 70536967 		.ascii	"pSigCfg\000"
 7408      43666700 
 7409              	.LASF179:
 7410 0c3d 5254455F 		.ascii	"RTE_SC_INPUT_set\000"
 7410      53435F49 
 7410      4E505554 
 7410      5F736574 
 7410      00
 7411              	.LASF7:
 7412 0c4e 75696E74 		.ascii	"uint32_t\000"
 7412      33325F74 
 7412      00
 7413              	.LASF172:
 7414 0c57 7369676E 		.ascii	"signal\000"
 7414      616C00
 7415              	.LASF29:
 7416 0c5e 52435F45 		.ascii	"RC_ERROR_READ_ONLY\000"
 7416      52524F52 
 7416      5F524541 
 7416      445F4F4E 
 7416      4C5900
 7417              	.LASF9:
 7418 0c71 666C6F61 		.ascii	"float\000"
 7418      7400
 7419              	.LASF146:
ARM GAS  C:\Users\giris\AppData\Local\Temp\cceloVpD.s 			page 165


 7420 0c77 65434C4F 		.ascii	"eCLOCK_display\000"
 7420      434B5F64 
 7420      6973706C 
 7420      617900
 7421              	.LASF14:
 7422 0c86 63686172 		.ascii	"char\000"
 7422      00
 7423              	.LASF49:
 7424 0c8b 424C4143 		.ascii	"BLACK\000"
 7424      4B00
 7425              	.LASF132:
 7426 0c91 6D5F666F 		.ascii	"m_font\000"
 7426      6E7400
 7427              	.LASF156:
 7428 0c98 7265736F 		.ascii	"resourceActive\000"
 7428      75726365 
 7428      41637469 
 7428      766500
 7429              	.LASF50:
 7430 0ca7 424C5545 		.ascii	"BLUE\000"
 7430      00
 7431              	.LASF2:
 7432 0cac 73686F72 		.ascii	"short int\000"
 7432      7420696E 
 7432      7400
 7433              	.LASF135:
 7434 0cb6 6D5F6163 		.ascii	"m_activeWidget\000"
 7434      74697665 
 7434      57696467 
 7434      657400
 7435              	.LASF55:
 7436 0cc5 47524545 		.ascii	"GREEN\000"
 7436      4E00
 7437              	.LASF40:
 7438 0ccb 52435F45 		.ascii	"RC_ERROR_NOT_IMPLEMENTED\000"
 7438      52524F52 
 7438      5F4E4F54 
 7438      5F494D50 
 7438      4C454D45 
 7439              	.LASF69:
 7440 0ce4 45565F4E 		.ascii	"EV_NONE\000"
 7440      4F4E4500 
 7441              	.LASF21:
 7442 0cec 52435F45 		.ascii	"RC_ERROR_OVERRUN\000"
 7442      52524F52 
 7442      5F4F5645 
 7442      5252554E 
 7442      00
 7443              	.LASF175:
 7444 0cfd 7461736B 		.ascii	"task\000"
 7444      00
 7445              	.LASF64:
 7446 0d02 4C494748 		.ascii	"LIGHTGREEN\000"
 7446      54475245 
 7446      454E00
 7447              	.LASF112:
 7448 0d0d 5254455F 		.ascii	"RTE_signalStatus_t\000"
ARM GAS  C:\Users\giris\AppData\Local\Temp\cceloVpD.s 			page 166


 7448      7369676E 
 7448      616C5374 
 7448      61747573 
 7448      5F7400
 7449              	.LASF141:
 7450 0d20 6D5F6576 		.ascii	"m_ev\000"
 7450      00
 7451              	.LASF19:
 7452 0d25 52435F45 		.ascii	"RC_ERROR_MEMORY\000"
 7452      52524F52 
 7452      5F4D454D 
 7452      4F525900 
 7453              	.LASF190:
 7454 0d35 636C6F63 		.ascii	"clock_hour\000"
 7454      6B5F686F 
 7454      757200
 7455              	.LASF186:
 7456 0d40 434C4F43 		.ascii	"CLOCK__updateTime\000"
 7456      4B5F5F75 
 7456      70646174 
 7456      6554696D 
 7456      6500
 7457              	.LASF79:
 7458 0d52 434C4F43 		.ascii	"CLOCK_W_ISDISPLAYING\000"
 7458      4B5F575F 
 7458      49534449 
 7458      53504C41 
 7458      59494E47 
 7459              	.LASF106:
 7460 0d67 5461736B 		.ascii	"TaskTypeArray\000"
 7460      54797065 
 7460      41727261 
 7460      7900
 7461              	.LASF118:
 7462 0d75 61637469 		.ascii	"actionTransition\000"
 7462      6F6E5472 
 7462      616E7369 
 7462      74696F6E 
 7462      00
 7463              	.LASF173:
 7464 0d86 7461736B 		.ascii	"taskNum\000"
 7464      4E756D00 
 7465              	.LASF233:
 7466 0d8e 736F7572 		.ascii	"source\\asw\\clock.c\000"
 7466      63655C61 
 7466      73775C63 
 7466      6C6F636B 
 7466      2E6300
 7467              	.LASF171:
 7468 0da1 53435F43 		.ascii	"SC_CONTROL_t\000"
 7468      4F4E5452 
 7468      4F4C5F74 
 7468      00
 7469              	.LASF182:
 7470 0dae 434C4F43 		.ascii	"CLOCK__setEditFonts\000"
 7470      4B5F5F73 
 7470      65744564 
ARM GAS  C:\Users\giris\AppData\Local\Temp\cceloVpD.s 			page 167


 7470      6974466F 
 7470      6E747300 
 7471              	.LASF164:
 7472 0dc2 6D696E75 		.ascii	"minute\000"
 7472      746500
 7473              	.LASF137:
 7474 0dc9 6D5F6D69 		.ascii	"m_minutes\000"
 7474      6E757465 
 7474      7300
 7475              	.LASF166:
 7476 0dd3 53435F43 		.ascii	"SC_CONTROL_driverIn_t\000"
 7476      4F4E5452 
 7476      4F4C5F64 
 7476      72697665 
 7476      72496E5F 
 7477              	.LASF111:
 7478 0de9 5254455F 		.ascii	"RTE_SIGNALSTATUS_INVALID\000"
 7478      5349474E 
 7478      414C5354 
 7478      41545553 
 7478      5F494E56 
 7479              	.LASF160:
 7480 0e02 73746174 		.ascii	"status\000"
 7480      757300
 7481              	.LASF88:
 7482 0e09 62675F63 		.ascii	"bg_colour\000"
 7482      6F6C6F75 
 7482      7200
 7483              	.LASF219:
 7484 0e13 45455F49 		.ascii	"EE_IRQ_nesting_level\000"
 7484      52515F6E 
 7484      65737469 
 7484      6E675F6C 
 7484      6576656C 
 7485              	.LASF100:
 7486 0e28 45455F55 		.ascii	"EE_UINT32\000"
 7486      494E5433 
 7486      3200
 7487              	.LASF213:
 7488 0e32 434C4F43 		.ascii	"CLOCK_Widget_Actions\000"
 7488      4B5F5769 
 7488      64676574 
 7488      5F416374 
 7488      696F6E73 
 7489              	.LASF20:
 7490 0e47 52435F45 		.ascii	"RC_ERROR_RANGE\000"
 7490      52524F52 
 7490      5F52414E 
 7490      474500
 7491              	.LASF99:
 7492 0e56 45455F49 		.ascii	"EE_INT32\000"
 7492      4E543332 
 7492      00
 7493              	.LASF3:
 7494 0e5f 75696E74 		.ascii	"uint8_t\000"
 7494      385F7400 
 7495              	.LASF178:
ARM GAS  C:\Users\giris\AppData\Local\Temp\cceloVpD.s 			page 168


 7496 0e67 5254455F 		.ascii	"RTE_SC_INPUT_get\000"
 7496      53435F49 
 7496      4E505554 
 7496      5F676574 
 7496      00
 7497              	.LASF136:
 7498 0e78 6D5F686F 		.ascii	"m_hours\000"
 7498      75727300 
 7499              	.LASF134:
 7500 0e80 6D5F636F 		.ascii	"m_containerState\000"
 7500      6E746169 
 7500      6E657253 
 7500      74617465 
 7500      00
 7501              	.LASF205:
 7502 0e91 434C4F43 		.ascii	"CLOCK__Dispatch_KL_Min\000"
 7502      4B5F5F44 
 7502      69737061 
 7502      7463685F 
 7502      4B4C5F4D 
 7503              	.LASF72:
 7504 0ea8 45565F4B 		.ascii	"EV_KEYRIGHTLONGPRESS\000"
 7504      45595249 
 7504      4748544C 
 7504      4F4E4750 
 7504      52455353 
 7505              	.LASF63:
 7506 0ebd 47524159 		.ascii	"GRAYBLUE\000"
 7506      424C5545 
 7506      00
 7507              	.LASF92:
 7508 0ec6 434C4F43 		.ascii	"CLOCK_font_t\000"
 7508      4B5F666F 
 7508      6E745F74 
 7508      00
 7509              	.LASF192:
 7510 0ed3 636C6F63 		.ascii	"clock_minute\000"
 7510      6B5F6D69 
 7510      6E757465 
 7510      00
 7511              	.LASF194:
 7512 0ee0 636C6F63 		.ascii	"clock\000"
 7512      6B00
 7513              	.LASF117:
 7514 0ee6 67756172 		.ascii	"guard\000"
 7514      6400
 7515              	.LASF155:
 7516 0eec 6F6E4572 		.ascii	"onErrorTasks\000"
 7516      726F7254 
 7516      61736B73 
 7516      00
 7517              	.LASF93:
 7518 0ef9 77696467 		.ascii	"widget_type\000"
 7518      65745F74 
 7518      79706500 
 7519              	.LASF113:
 7520 0f05 53544154 		.ascii	"STATE_ActionPtr_t\000"
ARM GAS  C:\Users\giris\AppData\Local\Temp\cceloVpD.s 			page 169


 7520      455F4163 
 7520      74696F6E 
 7520      5074725F 
 7520      7400
 7521              	.LASF102:
 7522 0f17 45455F46 		.ascii	"EE_FREG\000"
 7522      52454700 
 7523              	.LASF210:
 7524 0f1f 434C4F43 		.ascii	"CLOCK_Container_Actions_size\000"
 7524      4B5F436F 
 7524      6E746169 
 7524      6E65725F 
 7524      41637469 
 7525              		.ident	"GCC: (GNU Tools for ARM Embedded Processors) 5.4.1 20160609 (release) [ARM/embedded-5-bran
