ARM GAS  C:\Users\giris\AppData\Local\Temp\ccpQCPRb.s 			page 1


   1              		.syntax unified
   2              		.cpu cortex-m3
   3              		.fpu softvfp
   4              		.eabi_attribute 20, 1
   5              		.eabi_attribute 21, 1
   6              		.eabi_attribute 23, 3
   7              		.eabi_attribute 24, 1
   8              		.eabi_attribute 25, 1
   9              		.eabi_attribute 26, 1
  10              		.eabi_attribute 30, 1
  11              		.eabi_attribute 34, 1
  12              		.eabi_attribute 18, 4
  13              		.thumb
  14              		.syntax unified
  15              		.file	"statemachine_cfg.c"
  16              		.text
  17              	.Ltext0:
  18              		.cfi_sections	.debug_frame
  19              		.section	.text.CLOCK__Increment1Minute,"ax",%progbits
  20              		.align	2
  21              		.thumb
  22              		.thumb_func
  23              		.type	CLOCK__Increment1Minute, %function
  24              	CLOCK__Increment1Minute:
  25              	.LFB112:
  26              		.file 1 "source\\asw\\statemachine_cfg.c"
   1:source\asw/statemachine_cfg.c **** /**
   2:source\asw/statemachine_cfg.c **** * \file <filename>
   3:source\asw/statemachine_cfg.c **** * \author <author-name>
   4:source\asw/statemachine_cfg.c **** * \date <date>
   5:source\asw/statemachine_cfg.c **** *
   6:source\asw/statemachine_cfg.c **** * \brief <Symbolic File name>
   7:source\asw/statemachine_cfg.c **** *
   8:source\asw/statemachine_cfg.c **** * \copyright Copyright ©2016
   9:source\asw/statemachine_cfg.c **** * Department of electrical engineering and information technology, Hochschule Darmstadt - Universit
  10:source\asw/statemachine_cfg.c **** * Permission to use, copy, modify, and distribute this software and its documentation for education
  11:source\asw/statemachine_cfg.c **** * (unless permitted by h_da) and official h_da projects, is hereby granted for enrolled students of
  12:source\asw/statemachine_cfg.c **** * this paragraph and the following paragraph appear in all copies, modifications, and distributions
  13:source\asw/statemachine_cfg.c **** * Contact Prof.Dr.-Ing. Peter Fromm, peter.fromm@h-da.de, Birkenweg 8 64295 Darmstadt - GERMANY for
  14:source\asw/statemachine_cfg.c **** *
  15:source\asw/statemachine_cfg.c **** * \warning This software is a PROTOTYPE version and is not designed or intended for use in producti
  16:source\asw/statemachine_cfg.c **** * The user represents and warrants that it will NOT use or redistribute the Software for such purpo
  17:source\asw/statemachine_cfg.c **** * This prototype is for research purposes only. This software is provided "AS IS," without a warran
  18:source\asw/statemachine_cfg.c **** */
  19:source\asw/statemachine_cfg.c **** 
  20:source\asw/statemachine_cfg.c **** /*****************************************************************************/
  21:source\asw/statemachine_cfg.c **** /* Include files                                                             */
  22:source\asw/statemachine_cfg.c **** /*****************************************************************************/
  23:source\asw/statemachine_cfg.c **** #include "statemachine_cfg.h"
  24:source\asw/statemachine_cfg.c **** #include "statemachine.h"
  25:source\asw/statemachine_cfg.c **** #include "sc_input_type.h"
  26:source\asw/statemachine_cfg.c **** 
  27:source\asw/statemachine_cfg.c **** #include "stdlib.h"
  28:source\asw/statemachine_cfg.c **** /*****************************************************************************/
  29:source\asw/statemachine_cfg.c **** /* Local pre-processor symbols/macros ('#define')                            */
  30:source\asw/statemachine_cfg.c **** /*****************************************************************************/
  31:source\asw/statemachine_cfg.c **** 
ARM GAS  C:\Users\giris\AppData\Local\Temp\ccpQCPRb.s 			page 2


  32:source\asw/statemachine_cfg.c **** /*****************************************************************************/
  33:source\asw/statemachine_cfg.c **** /* Global variable definitions (declared in header file with 'extern')       */
  34:source\asw/statemachine_cfg.c **** /*****************************************************************************/
  35:source\asw/statemachine_cfg.c **** 
  36:source\asw/statemachine_cfg.c **** /*****************************************************************************/
  37:source\asw/statemachine_cfg.c **** /* Local type definitions ('typedef')                                        */
  38:source\asw/statemachine_cfg.c **** /*****************************************************************************/
  39:source\asw/statemachine_cfg.c **** 
  40:source\asw/statemachine_cfg.c **** /*****************************************************************************/
  41:source\asw/statemachine_cfg.c **** /* Local variable definitions ('static')                                     */
  42:source\asw/statemachine_cfg.c **** /*****************************************************************************/
  43:source\asw/statemachine_cfg.c **** 
  44:source\asw/statemachine_cfg.c **** 
  45:source\asw/statemachine_cfg.c **** 
  46:source\asw/statemachine_cfg.c **** /*****************************************************************************/
  47:source\asw/statemachine_cfg.c **** /* Local function prototypes ('static')                                      */
  48:source\asw/statemachine_cfg.c **** /*****************************************************************************/
  49:source\asw/statemachine_cfg.c **** /** ---------------------------- Actions ---------------------------------- **/
  50:source\asw/statemachine_cfg.c **** static void CLOCK__Dispatch_KL_Hours();
  51:source\asw/statemachine_cfg.c **** 
  52:source\asw/statemachine_cfg.c **** static void CLOCK__Increment1Minute();
  53:source\asw/statemachine_cfg.c **** 
  54:source\asw/statemachine_cfg.c **** static void CLOCK__Dispatch_KL_HoursMin();
  55:source\asw/statemachine_cfg.c **** 
  56:source\asw/statemachine_cfg.c **** static void CLOCK__Dispatch_KR_Hours();
  57:source\asw/statemachine_cfg.c **** 
  58:source\asw/statemachine_cfg.c **** static void CLOCK__Dispatch_KRLP_Hours();
  59:source\asw/statemachine_cfg.c **** 
  60:source\asw/statemachine_cfg.c **** static void CLOCK__Dispatch_250MS_Hours();
  61:source\asw/statemachine_cfg.c **** 
  62:source\asw/statemachine_cfg.c **** static void CLOCK__Dispatch_KL_Min();
  63:source\asw/statemachine_cfg.c **** 
  64:source\asw/statemachine_cfg.c **** static void CLOCK__Dispatch_KR_Min();
  65:source\asw/statemachine_cfg.c **** 
  66:source\asw/statemachine_cfg.c **** static void CLOCK__Dispatch_KRLP_Min();
  67:source\asw/statemachine_cfg.c **** 
  68:source\asw/statemachine_cfg.c **** static void CLOCK__Dispatch_250MS_Min();
  69:source\asw/statemachine_cfg.c **** /*****************************************************************************/
  70:source\asw/statemachine_cfg.c **** /* Function implementation - global ('extern') and local ('static')          */
  71:source\asw/statemachine_cfg.c **** /*****************************************************************************/
  72:source\asw/statemachine_cfg.c **** 
  73:source\asw/statemachine_cfg.c **** /** ---------------------------- Transitions ---------------------------------- **/
  74:source\asw/statemachine_cfg.c **** 
  75:source\asw/statemachine_cfg.c **** /**============================== Container ================================ **/
  76:source\asw/statemachine_cfg.c **** 
  77:source\asw/statemachine_cfg.c **** /** ========= CLOCK_C_ISDISPLAYING ========== **/
  78:source\asw/statemachine_cfg.c **** const STATE_stateInnerTransition_t STATE_CLOCK_C_ISDISPLAYING_Transitions[] = 
  79:source\asw/statemachine_cfg.c **** {
  80:source\asw/statemachine_cfg.c ****     /*  Event               ToState                         Guard           Action                 
  81:source\asw/statemachine_cfg.c ****     {   EV_KEYLEFT,         CLOCK_C_ISEDITINGHOURS,         0,              CLOCK__Dispatch_KL_Hour
  82:source\asw/statemachine_cfg.c ****     {   EV_1MIN,            CLOCK_C_ISDISPLAYING,           0,              CLOCK__Increment1Minute
  83:source\asw/statemachine_cfg.c **** };
  84:source\asw/statemachine_cfg.c **** 
  85:source\asw/statemachine_cfg.c **** /** ========= CLOCK_C_ISEDITINGHOURS ========== **/
  86:source\asw/statemachine_cfg.c **** const STATE_stateInnerTransition_t STATE_CLOCK_C_ISEDITINGHOURS_Transitions[] = 
  87:source\asw/statemachine_cfg.c **** {
  88:source\asw/statemachine_cfg.c ****     /*  Event                       ToState                         Guard           Action         
ARM GAS  C:\Users\giris\AppData\Local\Temp\ccpQCPRb.s 			page 3


  89:source\asw/statemachine_cfg.c ****     {   EV_KEYLEFT,                 CLOCK_C_ISEDITINGMINUTES,         0,              CLOCK__Dispat
  90:source\asw/statemachine_cfg.c ****     {   EV_KEYRIGHT,                CLOCK_C_ISEDITINGHOURS,           0,              CLOCK__Dispat
  91:source\asw/statemachine_cfg.c ****     {   EV_KEYRIGHTLONGPRESS,       CLOCK_C_ISEDITINGHOURS,           0,              CLOCK__Dispat
  92:source\asw/statemachine_cfg.c ****     {   EV_250MS,                   CLOCK_C_ISEDITINGHOURS,           0,              CLOCK__Dispat
  93:source\asw/statemachine_cfg.c **** };
  94:source\asw/statemachine_cfg.c **** 
  95:source\asw/statemachine_cfg.c **** /** ========= CLOCK_C_ISEDITINGMINUTES ========== **/
  96:source\asw/statemachine_cfg.c **** const STATE_stateInnerTransition_t STATE_CLOCK_C_ISEDITINGMINUTES_Transitions[] = 
  97:source\asw/statemachine_cfg.c **** {
  98:source\asw/statemachine_cfg.c ****     /*  Event                       ToState                         Guard           Action         
  99:source\asw/statemachine_cfg.c ****     {   EV_KEYLEFT,                 CLOCK_C_ISDISPLAYING,           0,              CLOCK__Dispatch
 100:source\asw/statemachine_cfg.c ****     {   EV_KEYRIGHT,                CLOCK_C_ISEDITINGMINUTES,       0,              CLOCK__Dispatch
 101:source\asw/statemachine_cfg.c ****     {   EV_KEYRIGHTLONGPRESS,       CLOCK_C_ISEDITINGMINUTES,       0,              CLOCK__Dispatch
 102:source\asw/statemachine_cfg.c ****     {   EV_250MS,                   CLOCK_C_ISEDITINGMINUTES,       0,              CLOCK__Dispatch
 103:source\asw/statemachine_cfg.c **** };
 104:source\asw/statemachine_cfg.c **** 
 105:source\asw/statemachine_cfg.c **** static const STATE_stateOuterTransitionTable_t CLOCK_Container_Transitions = 
 106:source\asw/statemachine_cfg.c **** {
 107:source\asw/statemachine_cfg.c ****     /*  fromState                     Pointer to table                                        Size 
 108:source\asw/statemachine_cfg.c ****     {   CLOCK_C_ISDISPLAYING,         &STATE_CLOCK_C_ISDISPLAYING_Transitions,                sizeo
 109:source\asw/statemachine_cfg.c ****     {   CLOCK_C_ISEDITINGHOURS,       &STATE_CLOCK_C_ISEDITINGHOURS_Transitions,              sizeo
 110:source\asw/statemachine_cfg.c ****     {   CLOCK_C_ISEDITINGMINUTES,     &STATE_CLOCK_C_ISEDITINGMINUTES_Transitions,            sizeo
 111:source\asw/statemachine_cfg.c **** };
 112:source\asw/statemachine_cfg.c **** static const uint16_t CLOCK_Container_Transitions_size = sizeof(CLOCK_Container_Transitions)/sizeof
 113:source\asw/statemachine_cfg.c **** 
 114:source\asw/statemachine_cfg.c **** /**============================== WIDGET ================================ **/
 115:source\asw/statemachine_cfg.c **** 
 116:source\asw/statemachine_cfg.c **** /** ========= CLOCK_W_ISDISPLAYING =========== **/
 117:source\asw/statemachine_cfg.c **** const STATE_stateInnerTransition_t STATE_CLOCK_W_ISDISPLAYING_Transitions[] = 
 118:source\asw/statemachine_cfg.c **** {
 119:source\asw/statemachine_cfg.c ****     /*  Event               ToState                         Guard           Action                 
 120:source\asw/statemachine_cfg.c ****     {   EV_KEYLEFT,         CLOCK_C_ISEDITINGHOURS,         0,              CLOCK__Dispatch_KL_Hour
 121:source\asw/statemachine_cfg.c ****     {   EV_1MIN,            CLOCK_C_ISDISPLAYING,           0,              CLOCK__Increment1Minute
 122:source\asw/statemachine_cfg.c **** };
 123:source\asw/statemachine_cfg.c **** 
 124:source\asw/statemachine_cfg.c **** /** ========= CLOCK_W_ISEDITING ============== **/
 125:source\asw/statemachine_cfg.c **** const STATE_stateInnerTransition_t STATE_CLOCK_W_ISEDITING_Transitions[] = 
 126:source\asw/statemachine_cfg.c **** {
 127:source\asw/statemachine_cfg.c ****     /*  Event                       ToState                         Guard           Action         
 128:source\asw/statemachine_cfg.c ****     {   EV_KEYLEFT,                 CLOCK_C_ISEDITINGMINUTES,         0,              CLOCK__Dispat
 129:source\asw/statemachine_cfg.c ****     {   EV_KEYRIGHT,                CLOCK_C_ISEDITINGHOURS,           0,              CLOCK__Dispat
 130:source\asw/statemachine_cfg.c ****     {   EV_KEYRIGHTLONGPRESS,       CLOCK_C_ISEDITINGHOURS,           0,              CLOCK__Dispat
 131:source\asw/statemachine_cfg.c ****     {   EV_250MS,                   CLOCK_C_ISEDITINGHOURS,           0,              CLOCK__Dispat
 132:source\asw/statemachine_cfg.c **** };
 133:source\asw/statemachine_cfg.c **** 
 134:source\asw/statemachine_cfg.c **** /** ========= CLOCK_W_ISAUTOINCREMENT ========== **/
 135:source\asw/statemachine_cfg.c **** const STATE_stateInnerTransition_t STATE_CLOCK_W_ISAUTOINCREMENT_Transitions[] = 
 136:source\asw/statemachine_cfg.c **** {
 137:source\asw/statemachine_cfg.c ****     /*  Event                       ToState                         Guard           Action         
 138:source\asw/statemachine_cfg.c ****     {   EV_KEYLEFT,                 CLOCK_C_ISDISPLAYING,           0,              CLOCK__Dispatch
 139:source\asw/statemachine_cfg.c ****     {   EV_KEYRIGHT,                CLOCK_C_ISEDITINGMINUTES,       0,              CLOCK__Dispatch
 140:source\asw/statemachine_cfg.c ****     {   EV_KEYRIGHTLONGPRESS,       CLOCK_C_ISEDITINGMINUTES,       0,              CLOCK__Dispatch
 141:source\asw/statemachine_cfg.c ****     {   EV_250MS,                   CLOCK_C_ISEDITINGMINUTES,       0,              CLOCK__Dispatch
 142:source\asw/statemachine_cfg.c **** };
 143:source\asw/statemachine_cfg.c **** 
 144:source\asw/statemachine_cfg.c **** static const STATE_stateOuterTransitionTable_t CLOCK_Widget_Transitions = 
 145:source\asw/statemachine_cfg.c **** {
ARM GAS  C:\Users\giris\AppData\Local\Temp\ccpQCPRb.s 			page 4


 146:source\asw/statemachine_cfg.c ****     /*  fromState                   Pointer to table                                Size of table [
 147:source\asw/statemachine_cfg.c ****     {   CLOCK_W_ISDISPLAYING,       &STATE_CLOCK_W_ISDISPLAYING_Transitions,        sizeof(STATE_CL
 148:source\asw/statemachine_cfg.c ****     {   CLOCK_W_ISEDITING,          &STATE_CLOCK_W_ISEDITING_Transitions,           sizeof(STATE_CL
 149:source\asw/statemachine_cfg.c ****     {   CLOCK_W_ISAUTOINCREMENT,    &STATE_CLOCK_W_ISAUTOINCREMENT_Transitions,     sizeof(STATE_CL
 150:source\asw/statemachine_cfg.c **** };
 151:source\asw/statemachine_cfg.c **** static const uint16_t CLOCK_Widget_Transitions_size = sizeof(CLOCK_Container_Transitions)/sizeof(ST
 152:source\asw/statemachine_cfg.c **** 
 153:source\asw/statemachine_cfg.c **** void ProcessEvent(STATE_state_t *state, STATE_event_t event)
 154:source\asw/statemachine_cfg.c **** {
 155:source\asw/statemachine_cfg.c ****     STATE_state_t local_state = *state;
 156:source\asw/statemachine_cfg.c ****     STATE_event_t local_event = event;
 157:source\asw/statemachine_cfg.c ****     
 158:source\asw/statemachine_cfg.c ****     char buffer[100];
 159:source\asw/statemachine_cfg.c ****     
 160:source\asw/statemachine_cfg.c ****     UART_LOG_PutString("in process event function...\n");
 161:source\asw/statemachine_cfg.c ****     
 162:source\asw/statemachine_cfg.c ****     itoa(local_state, buffer, 10);
 163:source\asw/statemachine_cfg.c ****     UART_LOG_PutString(buffer);
 164:source\asw/statemachine_cfg.c ****     UART_LOG_PutString("\n");
 165:source\asw/statemachine_cfg.c ****     itoa(local_event, buffer, 10);
 166:source\asw/statemachine_cfg.c ****     UART_LOG_PutString(buffer);
 167:source\asw/statemachine_cfg.c ****     
 168:source\asw/statemachine_cfg.c ****     STATE_processEvent(CLOCK_Container_Transitions, CLOCK_Container_Transitions_size, 0, 0, local_e
 169:source\asw/statemachine_cfg.c **** }
 170:source\asw/statemachine_cfg.c **** 
 171:source\asw/statemachine_cfg.c **** void CLOCK__Dispatch_KL_Hours()
 172:source\asw/statemachine_cfg.c **** {
 173:source\asw/statemachine_cfg.c ****     UART_LOG_PutString("\nIn KL hours Dispatch.....\n");
 174:source\asw/statemachine_cfg.c **** }
 175:source\asw/statemachine_cfg.c **** 
 176:source\asw/statemachine_cfg.c **** void CLOCK__Increment1Minute()
 177:source\asw/statemachine_cfg.c **** {
  27              		.loc 1 177 0
  28              		.cfi_startproc
  29              		@ args = 0, pretend = 0, frame = 0
  30              		@ frame_needed = 0, uses_anonymous_args = 0
  31 0000 08B5     		push	{r3, lr}
  32              		.cfi_def_cfa_offset 8
  33              		.cfi_offset 3, -8
  34              		.cfi_offset 14, -4
 178:source\asw/statemachine_cfg.c ****     UART_LOG_PutString("\nIn Increment1Minute Dispatch.....\n");
  35              		.loc 1 178 0
  36 0002 0248     		ldr	r0, .L3
  37 0004 FFF7FEFF 		bl	UART_LOG_PutString
  38              	.LVL0:
  39 0008 08BD     		pop	{r3, pc}
  40              	.L4:
  41 000a 00BF     		.align	2
  42              	.L3:
  43 000c 00000000 		.word	.LC0
  44              		.cfi_endproc
  45              	.LFE112:
  46              		.size	CLOCK__Increment1Minute, .-CLOCK__Increment1Minute
  47              		.section	.text.CLOCK__Dispatch_KL_Hours,"ax",%progbits
  48              		.align	2
  49              		.thumb
  50              		.thumb_func
ARM GAS  C:\Users\giris\AppData\Local\Temp\ccpQCPRb.s 			page 5


  51              		.type	CLOCK__Dispatch_KL_Hours, %function
  52              	CLOCK__Dispatch_KL_Hours:
  53              	.LFB111:
 172:source\asw/statemachine_cfg.c ****     UART_LOG_PutString("\nIn KL hours Dispatch.....\n");
  54              		.loc 1 172 0
  55              		.cfi_startproc
  56              		@ args = 0, pretend = 0, frame = 0
  57              		@ frame_needed = 0, uses_anonymous_args = 0
  58 0000 08B5     		push	{r3, lr}
  59              		.cfi_def_cfa_offset 8
  60              		.cfi_offset 3, -8
  61              		.cfi_offset 14, -4
 173:source\asw/statemachine_cfg.c **** }
  62              		.loc 1 173 0
  63 0002 0248     		ldr	r0, .L7
  64 0004 FFF7FEFF 		bl	UART_LOG_PutString
  65              	.LVL1:
  66 0008 08BD     		pop	{r3, pc}
  67              	.L8:
  68 000a 00BF     		.align	2
  69              	.L7:
  70 000c 24000000 		.word	.LC1
  71              		.cfi_endproc
  72              	.LFE111:
  73              		.size	CLOCK__Dispatch_KL_Hours, .-CLOCK__Dispatch_KL_Hours
  74              		.section	.text.CLOCK__Dispatch_250MS_Hours,"ax",%progbits
  75              		.align	2
  76              		.thumb
  77              		.thumb_func
  78              		.type	CLOCK__Dispatch_250MS_Hours, %function
  79              	CLOCK__Dispatch_250MS_Hours:
  80              	.LFB116:
 179:source\asw/statemachine_cfg.c **** }
 180:source\asw/statemachine_cfg.c **** 
 181:source\asw/statemachine_cfg.c **** void CLOCK__Dispatch_KL_HoursMin()
 182:source\asw/statemachine_cfg.c **** {
 183:source\asw/statemachine_cfg.c ****     UART_LOG_PutString("\nIn KL_HoursMin Dispatch.....\n");
 184:source\asw/statemachine_cfg.c **** }
 185:source\asw/statemachine_cfg.c **** 
 186:source\asw/statemachine_cfg.c **** void CLOCK__Dispatch_KR_Hours()
 187:source\asw/statemachine_cfg.c **** {
 188:source\asw/statemachine_cfg.c ****     UART_LOG_PutString("\nIn KR_Hours Dispatch.....\n");
 189:source\asw/statemachine_cfg.c **** }
 190:source\asw/statemachine_cfg.c **** 
 191:source\asw/statemachine_cfg.c **** void CLOCK__Dispatch_KRLP_Hours()
 192:source\asw/statemachine_cfg.c **** {
 193:source\asw/statemachine_cfg.c ****     UART_LOG_PutString("\nIn KRLP_Hours Dispatch.....\n");
 194:source\asw/statemachine_cfg.c **** }
 195:source\asw/statemachine_cfg.c **** 
 196:source\asw/statemachine_cfg.c **** void CLOCK__Dispatch_250MS_Hours()
 197:source\asw/statemachine_cfg.c **** {
  81              		.loc 1 197 0
  82              		.cfi_startproc
  83              		@ args = 0, pretend = 0, frame = 0
  84              		@ frame_needed = 0, uses_anonymous_args = 0
  85 0000 08B5     		push	{r3, lr}
  86              		.cfi_def_cfa_offset 8
ARM GAS  C:\Users\giris\AppData\Local\Temp\ccpQCPRb.s 			page 6


  87              		.cfi_offset 3, -8
  88              		.cfi_offset 14, -4
 198:source\asw/statemachine_cfg.c ****     UART_LOG_PutString("\nIn 250MS_Hours Dispatch.....\n");
  89              		.loc 1 198 0
  90 0002 0248     		ldr	r0, .L11
  91 0004 FFF7FEFF 		bl	UART_LOG_PutString
  92              	.LVL2:
  93 0008 08BD     		pop	{r3, pc}
  94              	.L12:
  95 000a 00BF     		.align	2
  96              	.L11:
  97 000c 40000000 		.word	.LC2
  98              		.cfi_endproc
  99              	.LFE116:
 100              		.size	CLOCK__Dispatch_250MS_Hours, .-CLOCK__Dispatch_250MS_Hours
 101              		.section	.text.CLOCK__Dispatch_KRLP_Hours,"ax",%progbits
 102              		.align	2
 103              		.thumb
 104              		.thumb_func
 105              		.type	CLOCK__Dispatch_KRLP_Hours, %function
 106              	CLOCK__Dispatch_KRLP_Hours:
 107              	.LFB115:
 192:source\asw/statemachine_cfg.c ****     UART_LOG_PutString("\nIn KRLP_Hours Dispatch.....\n");
 108              		.loc 1 192 0
 109              		.cfi_startproc
 110              		@ args = 0, pretend = 0, frame = 0
 111              		@ frame_needed = 0, uses_anonymous_args = 0
 112 0000 08B5     		push	{r3, lr}
 113              		.cfi_def_cfa_offset 8
 114              		.cfi_offset 3, -8
 115              		.cfi_offset 14, -4
 193:source\asw/statemachine_cfg.c **** }
 116              		.loc 1 193 0
 117 0002 0248     		ldr	r0, .L15
 118 0004 FFF7FEFF 		bl	UART_LOG_PutString
 119              	.LVL3:
 120 0008 08BD     		pop	{r3, pc}
 121              	.L16:
 122 000a 00BF     		.align	2
 123              	.L15:
 124 000c 60000000 		.word	.LC3
 125              		.cfi_endproc
 126              	.LFE115:
 127              		.size	CLOCK__Dispatch_KRLP_Hours, .-CLOCK__Dispatch_KRLP_Hours
 128              		.section	.text.CLOCK__Dispatch_KR_Hours,"ax",%progbits
 129              		.align	2
 130              		.thumb
 131              		.thumb_func
 132              		.type	CLOCK__Dispatch_KR_Hours, %function
 133              	CLOCK__Dispatch_KR_Hours:
 134              	.LFB114:
 187:source\asw/statemachine_cfg.c ****     UART_LOG_PutString("\nIn KR_Hours Dispatch.....\n");
 135              		.loc 1 187 0
 136              		.cfi_startproc
 137              		@ args = 0, pretend = 0, frame = 0
 138              		@ frame_needed = 0, uses_anonymous_args = 0
 139 0000 08B5     		push	{r3, lr}
ARM GAS  C:\Users\giris\AppData\Local\Temp\ccpQCPRb.s 			page 7


 140              		.cfi_def_cfa_offset 8
 141              		.cfi_offset 3, -8
 142              		.cfi_offset 14, -4
 188:source\asw/statemachine_cfg.c **** }
 143              		.loc 1 188 0
 144 0002 0248     		ldr	r0, .L19
 145 0004 FFF7FEFF 		bl	UART_LOG_PutString
 146              	.LVL4:
 147 0008 08BD     		pop	{r3, pc}
 148              	.L20:
 149 000a 00BF     		.align	2
 150              	.L19:
 151 000c 80000000 		.word	.LC4
 152              		.cfi_endproc
 153              	.LFE114:
 154              		.size	CLOCK__Dispatch_KR_Hours, .-CLOCK__Dispatch_KR_Hours
 155              		.section	.text.CLOCK__Dispatch_KL_HoursMin,"ax",%progbits
 156              		.align	2
 157              		.thumb
 158              		.thumb_func
 159              		.type	CLOCK__Dispatch_KL_HoursMin, %function
 160              	CLOCK__Dispatch_KL_HoursMin:
 161              	.LFB113:
 182:source\asw/statemachine_cfg.c ****     UART_LOG_PutString("\nIn KL_HoursMin Dispatch.....\n");
 162              		.loc 1 182 0
 163              		.cfi_startproc
 164              		@ args = 0, pretend = 0, frame = 0
 165              		@ frame_needed = 0, uses_anonymous_args = 0
 166 0000 08B5     		push	{r3, lr}
 167              		.cfi_def_cfa_offset 8
 168              		.cfi_offset 3, -8
 169              		.cfi_offset 14, -4
 183:source\asw/statemachine_cfg.c **** }
 170              		.loc 1 183 0
 171 0002 0248     		ldr	r0, .L23
 172 0004 FFF7FEFF 		bl	UART_LOG_PutString
 173              	.LVL5:
 174 0008 08BD     		pop	{r3, pc}
 175              	.L24:
 176 000a 00BF     		.align	2
 177              	.L23:
 178 000c 9C000000 		.word	.LC5
 179              		.cfi_endproc
 180              	.LFE113:
 181              		.size	CLOCK__Dispatch_KL_HoursMin, .-CLOCK__Dispatch_KL_HoursMin
 182              		.section	.text.CLOCK__Dispatch_250MS_Min,"ax",%progbits
 183              		.align	2
 184              		.thumb
 185              		.thumb_func
 186              		.type	CLOCK__Dispatch_250MS_Min, %function
 187              	CLOCK__Dispatch_250MS_Min:
 188              	.LFB120:
 199:source\asw/statemachine_cfg.c **** }
 200:source\asw/statemachine_cfg.c **** 
 201:source\asw/statemachine_cfg.c **** void CLOCK__Dispatch_KL_Min()
 202:source\asw/statemachine_cfg.c **** {
 203:source\asw/statemachine_cfg.c ****     UART_LOG_PutString("\nIn KL_Min Dispatch.....\n");
ARM GAS  C:\Users\giris\AppData\Local\Temp\ccpQCPRb.s 			page 8


 204:source\asw/statemachine_cfg.c **** }
 205:source\asw/statemachine_cfg.c **** 
 206:source\asw/statemachine_cfg.c **** void CLOCK__Dispatch_KR_Min()
 207:source\asw/statemachine_cfg.c **** {
 208:source\asw/statemachine_cfg.c ****     UART_LOG_PutString("\nIn KR_Min Dispatch.....\n");
 209:source\asw/statemachine_cfg.c **** }
 210:source\asw/statemachine_cfg.c **** 
 211:source\asw/statemachine_cfg.c **** void CLOCK__Dispatch_KRLP_Min()
 212:source\asw/statemachine_cfg.c **** {
 213:source\asw/statemachine_cfg.c ****     UART_LOG_PutString("\nIn KRLP_Min Dispatch.....\n");
 214:source\asw/statemachine_cfg.c **** }
 215:source\asw/statemachine_cfg.c **** 
 216:source\asw/statemachine_cfg.c **** void CLOCK__Dispatch_250MS_Min()
 217:source\asw/statemachine_cfg.c **** {
 189              		.loc 1 217 0
 190              		.cfi_startproc
 191              		@ args = 0, pretend = 0, frame = 0
 192              		@ frame_needed = 0, uses_anonymous_args = 0
 193 0000 08B5     		push	{r3, lr}
 194              		.cfi_def_cfa_offset 8
 195              		.cfi_offset 3, -8
 196              		.cfi_offset 14, -4
 218:source\asw/statemachine_cfg.c ****     UART_LOG_PutString("\nIn 250MS_Min Dispatch.....\n");
 197              		.loc 1 218 0
 198 0002 0248     		ldr	r0, .L27
 199 0004 FFF7FEFF 		bl	UART_LOG_PutString
 200              	.LVL6:
 201 0008 08BD     		pop	{r3, pc}
 202              	.L28:
 203 000a 00BF     		.align	2
 204              	.L27:
 205 000c BC000000 		.word	.LC6
 206              		.cfi_endproc
 207              	.LFE120:
 208              		.size	CLOCK__Dispatch_250MS_Min, .-CLOCK__Dispatch_250MS_Min
 209              		.section	.text.CLOCK__Dispatch_KRLP_Min,"ax",%progbits
 210              		.align	2
 211              		.thumb
 212              		.thumb_func
 213              		.type	CLOCK__Dispatch_KRLP_Min, %function
 214              	CLOCK__Dispatch_KRLP_Min:
 215              	.LFB119:
 212:source\asw/statemachine_cfg.c ****     UART_LOG_PutString("\nIn KRLP_Min Dispatch.....\n");
 216              		.loc 1 212 0
 217              		.cfi_startproc
 218              		@ args = 0, pretend = 0, frame = 0
 219              		@ frame_needed = 0, uses_anonymous_args = 0
 220 0000 08B5     		push	{r3, lr}
 221              		.cfi_def_cfa_offset 8
 222              		.cfi_offset 3, -8
 223              		.cfi_offset 14, -4
 213:source\asw/statemachine_cfg.c **** }
 224              		.loc 1 213 0
 225 0002 0248     		ldr	r0, .L31
 226 0004 FFF7FEFF 		bl	UART_LOG_PutString
 227              	.LVL7:
 228 0008 08BD     		pop	{r3, pc}
ARM GAS  C:\Users\giris\AppData\Local\Temp\ccpQCPRb.s 			page 9


 229              	.L32:
 230 000a 00BF     		.align	2
 231              	.L31:
 232 000c DC000000 		.word	.LC7
 233              		.cfi_endproc
 234              	.LFE119:
 235              		.size	CLOCK__Dispatch_KRLP_Min, .-CLOCK__Dispatch_KRLP_Min
 236              		.section	.text.CLOCK__Dispatch_KR_Min,"ax",%progbits
 237              		.align	2
 238              		.thumb
 239              		.thumb_func
 240              		.type	CLOCK__Dispatch_KR_Min, %function
 241              	CLOCK__Dispatch_KR_Min:
 242              	.LFB118:
 207:source\asw/statemachine_cfg.c ****     UART_LOG_PutString("\nIn KR_Min Dispatch.....\n");
 243              		.loc 1 207 0
 244              		.cfi_startproc
 245              		@ args = 0, pretend = 0, frame = 0
 246              		@ frame_needed = 0, uses_anonymous_args = 0
 247 0000 08B5     		push	{r3, lr}
 248              		.cfi_def_cfa_offset 8
 249              		.cfi_offset 3, -8
 250              		.cfi_offset 14, -4
 208:source\asw/statemachine_cfg.c **** }
 251              		.loc 1 208 0
 252 0002 0248     		ldr	r0, .L35
 253 0004 FFF7FEFF 		bl	UART_LOG_PutString
 254              	.LVL8:
 255 0008 08BD     		pop	{r3, pc}
 256              	.L36:
 257 000a 00BF     		.align	2
 258              	.L35:
 259 000c F8000000 		.word	.LC8
 260              		.cfi_endproc
 261              	.LFE118:
 262              		.size	CLOCK__Dispatch_KR_Min, .-CLOCK__Dispatch_KR_Min
 263              		.section	.text.CLOCK__Dispatch_KL_Min,"ax",%progbits
 264              		.align	2
 265              		.thumb
 266              		.thumb_func
 267              		.type	CLOCK__Dispatch_KL_Min, %function
 268              	CLOCK__Dispatch_KL_Min:
 269              	.LFB117:
 202:source\asw/statemachine_cfg.c ****     UART_LOG_PutString("\nIn KL_Min Dispatch.....\n");
 270              		.loc 1 202 0
 271              		.cfi_startproc
 272              		@ args = 0, pretend = 0, frame = 0
 273              		@ frame_needed = 0, uses_anonymous_args = 0
 274 0000 08B5     		push	{r3, lr}
 275              		.cfi_def_cfa_offset 8
 276              		.cfi_offset 3, -8
 277              		.cfi_offset 14, -4
 203:source\asw/statemachine_cfg.c **** }
 278              		.loc 1 203 0
 279 0002 0248     		ldr	r0, .L39
 280 0004 FFF7FEFF 		bl	UART_LOG_PutString
 281              	.LVL9:
ARM GAS  C:\Users\giris\AppData\Local\Temp\ccpQCPRb.s 			page 10


 282 0008 08BD     		pop	{r3, pc}
 283              	.L40:
 284 000a 00BF     		.align	2
 285              	.L39:
 286 000c 14010000 		.word	.LC9
 287              		.cfi_endproc
 288              	.LFE117:
 289              		.size	CLOCK__Dispatch_KL_Min, .-CLOCK__Dispatch_KL_Min
 290              		.section	.text.ProcessEvent,"ax",%progbits
 291              		.align	2
 292              		.global	ProcessEvent
 293              		.thumb
 294              		.thumb_func
 295              		.type	ProcessEvent, %function
 296              	ProcessEvent:
 297              	.LFB110:
 154:source\asw/statemachine_cfg.c ****     STATE_state_t local_state = *state;
 298              		.loc 1 154 0
 299              		.cfi_startproc
 300              		@ args = 0, pretend = 0, frame = 104
 301              		@ frame_needed = 0, uses_anonymous_args = 0
 302              	.LVL10:
 303 0000 30B5     		push	{r4, r5, lr}
 304              		.cfi_def_cfa_offset 12
 305              		.cfi_offset 4, -12
 306              		.cfi_offset 5, -8
 307              		.cfi_offset 14, -4
 308 0002 9DB0     		sub	sp, sp, #116
 309              		.cfi_def_cfa_offset 128
 310 0004 0D46     		mov	r5, r1
 155:source\asw/statemachine_cfg.c ****     STATE_event_t local_event = event;
 311              		.loc 1 155 0
 312 0006 0378     		ldrb	r3, [r0]	@ zero_extendqisi2
 313 0008 8DF86F30 		strb	r3, [sp, #111]
 314              	.LVL11:
 160:source\asw/statemachine_cfg.c ****     
 315              		.loc 1 160 0
 316 000c 1048     		ldr	r0, .L43
 317              	.LVL12:
 318 000e FFF7FEFF 		bl	UART_LOG_PutString
 319              	.LVL13:
 162:source\asw/statemachine_cfg.c ****     UART_LOG_PutString(buffer);
 320              		.loc 1 162 0
 321 0012 1CAC     		add	r4, sp, #112
 322 0014 0A22     		movs	r2, #10
 323 0016 02A9     		add	r1, sp, #8
 324 0018 14F8010D 		ldrb	r0, [r4, #-1]!	@ zero_extendqisi2
 325 001c FFF7FEFF 		bl	itoa
 326              	.LVL14:
 163:source\asw/statemachine_cfg.c ****     UART_LOG_PutString("\n");
 327              		.loc 1 163 0
 328 0020 02A8     		add	r0, sp, #8
 329 0022 FFF7FEFF 		bl	UART_LOG_PutString
 330              	.LVL15:
 164:source\asw/statemachine_cfg.c ****     itoa(local_event, buffer, 10);
 331              		.loc 1 164 0
 332 0026 0B48     		ldr	r0, .L43+4
ARM GAS  C:\Users\giris\AppData\Local\Temp\ccpQCPRb.s 			page 11


 333 0028 FFF7FEFF 		bl	UART_LOG_PutString
 334              	.LVL16:
 165:source\asw/statemachine_cfg.c ****     UART_LOG_PutString(buffer);
 335              		.loc 1 165 0
 336 002c 0A22     		movs	r2, #10
 337 002e 02A9     		add	r1, sp, #8
 338 0030 2846     		mov	r0, r5
 339 0032 FFF7FEFF 		bl	itoa
 340              	.LVL17:
 166:source\asw/statemachine_cfg.c ****     
 341              		.loc 1 166 0
 342 0036 02A8     		add	r0, sp, #8
 343 0038 FFF7FEFF 		bl	UART_LOG_PutString
 344              	.LVL18:
 168:source\asw/statemachine_cfg.c **** }
 345              		.loc 1 168 0
 346 003c 0194     		str	r4, [sp, #4]
 347 003e 0095     		str	r5, [sp]
 348 0040 0023     		movs	r3, #0
 349 0042 1A46     		mov	r2, r3
 350 0044 0321     		movs	r1, #3
 351 0046 0448     		ldr	r0, .L43+8
 352 0048 FFF7FEFF 		bl	STATE_processEvent
 353              	.LVL19:
 169:source\asw/statemachine_cfg.c **** 
 354              		.loc 1 169 0
 355 004c 1DB0     		add	sp, sp, #116
 356              		.cfi_def_cfa_offset 12
 357              		@ sp needed
 358 004e 30BD     		pop	{r4, r5, pc}
 359              	.LVL20:
 360              	.L44:
 361              		.align	2
 362              	.L43:
 363 0050 30010000 		.word	.LC10
 364 0054 50010000 		.word	.LC11
 365 0058 00000000 		.word	.LANCHOR0
 366              		.cfi_endproc
 367              	.LFE110:
 368              		.size	ProcessEvent, .-ProcessEvent
 369              		.global	STATE_CLOCK_W_ISAUTOINCREMENT_Transitions
 370              		.global	STATE_CLOCK_W_ISEDITING_Transitions
 371              		.global	STATE_CLOCK_W_ISDISPLAYING_Transitions
 372              		.global	STATE_CLOCK_C_ISEDITINGMINUTES_Transitions
 373              		.global	STATE_CLOCK_C_ISEDITINGHOURS_Transitions
 374              		.global	STATE_CLOCK_C_ISDISPLAYING_Transitions
 375              		.section	.rodata
 376              		.align	2
 377              		.set	.LANCHOR0,. + 0
 378              		.type	CLOCK_Container_Transitions, %object
 379              		.size	CLOCK_Container_Transitions, 36
 380              	CLOCK_Container_Transitions:
 381 0000 00       		.byte	0
 382 0001 000000   		.space	3
 383 0004 00000000 		.word	STATE_CLOCK_C_ISDISPLAYING_Transitions
 384 0008 0200     		.short	2
 385 000a 0000     		.space	2
ARM GAS  C:\Users\giris\AppData\Local\Temp\ccpQCPRb.s 			page 12


 386 000c 01       		.byte	1
 387 000d 000000   		.space	3
 388 0010 00000000 		.word	STATE_CLOCK_C_ISEDITINGHOURS_Transitions
 389 0014 0400     		.short	4
 390 0016 0000     		.space	2
 391 0018 02       		.byte	2
 392 0019 000000   		.space	3
 393 001c 00000000 		.word	STATE_CLOCK_C_ISEDITINGMINUTES_Transitions
 394 0020 0400     		.short	4
 395 0022 0000     		.space	2
 396              		.type	STATE_CLOCK_W_ISAUTOINCREMENT_Transitions, %object
 397              		.size	STATE_CLOCK_W_ISAUTOINCREMENT_Transitions, 48
 398              	STATE_CLOCK_W_ISAUTOINCREMENT_Transitions:
 399 0024 01       		.byte	1
 400 0025 00       		.byte	0
 401 0026 0000     		.space	2
 402 0028 00000000 		.word	0
 403 002c 00000000 		.word	CLOCK__Dispatch_KL_Min
 404 0030 02       		.byte	2
 405 0031 02       		.byte	2
 406 0032 0000     		.space	2
 407 0034 00000000 		.word	0
 408 0038 00000000 		.word	CLOCK__Dispatch_KR_Min
 409 003c 03       		.byte	3
 410 003d 02       		.byte	2
 411 003e 0000     		.space	2
 412 0040 00000000 		.word	0
 413 0044 00000000 		.word	CLOCK__Dispatch_KRLP_Min
 414 0048 04       		.byte	4
 415 0049 02       		.byte	2
 416 004a 0000     		.space	2
 417 004c 00000000 		.word	0
 418 0050 00000000 		.word	CLOCK__Dispatch_250MS_Min
 419              		.type	STATE_CLOCK_W_ISEDITING_Transitions, %object
 420              		.size	STATE_CLOCK_W_ISEDITING_Transitions, 48
 421              	STATE_CLOCK_W_ISEDITING_Transitions:
 422 0054 01       		.byte	1
 423 0055 02       		.byte	2
 424 0056 0000     		.space	2
 425 0058 00000000 		.word	0
 426 005c 00000000 		.word	CLOCK__Dispatch_KL_HoursMin
 427 0060 02       		.byte	2
 428 0061 01       		.byte	1
 429 0062 0000     		.space	2
 430 0064 00000000 		.word	0
 431 0068 00000000 		.word	CLOCK__Dispatch_KR_Hours
 432 006c 03       		.byte	3
 433 006d 01       		.byte	1
 434 006e 0000     		.space	2
 435 0070 00000000 		.word	0
 436 0074 00000000 		.word	CLOCK__Dispatch_KRLP_Hours
 437 0078 04       		.byte	4
 438 0079 01       		.byte	1
 439 007a 0000     		.space	2
 440 007c 00000000 		.word	0
 441 0080 00000000 		.word	CLOCK__Dispatch_250MS_Hours
 442              		.type	STATE_CLOCK_W_ISDISPLAYING_Transitions, %object
ARM GAS  C:\Users\giris\AppData\Local\Temp\ccpQCPRb.s 			page 13


 443              		.size	STATE_CLOCK_W_ISDISPLAYING_Transitions, 24
 444              	STATE_CLOCK_W_ISDISPLAYING_Transitions:
 445 0084 01       		.byte	1
 446 0085 01       		.byte	1
 447 0086 0000     		.space	2
 448 0088 00000000 		.word	0
 449 008c 00000000 		.word	CLOCK__Dispatch_KL_Hours
 450 0090 05       		.byte	5
 451 0091 00       		.byte	0
 452 0092 0000     		.space	2
 453 0094 00000000 		.word	0
 454 0098 00000000 		.word	CLOCK__Increment1Minute
 455              		.type	STATE_CLOCK_C_ISEDITINGMINUTES_Transitions, %object
 456              		.size	STATE_CLOCK_C_ISEDITINGMINUTES_Transitions, 48
 457              	STATE_CLOCK_C_ISEDITINGMINUTES_Transitions:
 458 009c 01       		.byte	1
 459 009d 00       		.byte	0
 460 009e 0000     		.space	2
 461 00a0 00000000 		.word	0
 462 00a4 00000000 		.word	CLOCK__Dispatch_KL_Min
 463 00a8 02       		.byte	2
 464 00a9 02       		.byte	2
 465 00aa 0000     		.space	2
 466 00ac 00000000 		.word	0
 467 00b0 00000000 		.word	CLOCK__Dispatch_KR_Min
 468 00b4 03       		.byte	3
 469 00b5 02       		.byte	2
 470 00b6 0000     		.space	2
 471 00b8 00000000 		.word	0
 472 00bc 00000000 		.word	CLOCK__Dispatch_KRLP_Min
 473 00c0 04       		.byte	4
 474 00c1 02       		.byte	2
 475 00c2 0000     		.space	2
 476 00c4 00000000 		.word	0
 477 00c8 00000000 		.word	CLOCK__Dispatch_250MS_Min
 478              		.type	STATE_CLOCK_C_ISEDITINGHOURS_Transitions, %object
 479              		.size	STATE_CLOCK_C_ISEDITINGHOURS_Transitions, 48
 480              	STATE_CLOCK_C_ISEDITINGHOURS_Transitions:
 481 00cc 01       		.byte	1
 482 00cd 02       		.byte	2
 483 00ce 0000     		.space	2
 484 00d0 00000000 		.word	0
 485 00d4 00000000 		.word	CLOCK__Dispatch_KL_HoursMin
 486 00d8 02       		.byte	2
 487 00d9 01       		.byte	1
 488 00da 0000     		.space	2
 489 00dc 00000000 		.word	0
 490 00e0 00000000 		.word	CLOCK__Dispatch_KR_Hours
 491 00e4 03       		.byte	3
 492 00e5 01       		.byte	1
 493 00e6 0000     		.space	2
 494 00e8 00000000 		.word	0
 495 00ec 00000000 		.word	CLOCK__Dispatch_KRLP_Hours
 496 00f0 04       		.byte	4
 497 00f1 01       		.byte	1
 498 00f2 0000     		.space	2
 499 00f4 00000000 		.word	0
ARM GAS  C:\Users\giris\AppData\Local\Temp\ccpQCPRb.s 			page 14


 500 00f8 00000000 		.word	CLOCK__Dispatch_250MS_Hours
 501              		.type	STATE_CLOCK_C_ISDISPLAYING_Transitions, %object
 502              		.size	STATE_CLOCK_C_ISDISPLAYING_Transitions, 24
 503              	STATE_CLOCK_C_ISDISPLAYING_Transitions:
 504 00fc 01       		.byte	1
 505 00fd 01       		.byte	1
 506 00fe 0000     		.space	2
 507 0100 00000000 		.word	0
 508 0104 00000000 		.word	CLOCK__Dispatch_KL_Hours
 509 0108 05       		.byte	5
 510 0109 00       		.byte	0
 511 010a 0000     		.space	2
 512 010c 00000000 		.word	0
 513 0110 00000000 		.word	CLOCK__Increment1Minute
 514              		.section	.rodata.str1.4,"aMS",%progbits,1
 515              		.align	2
 516              	.LC0:
 517 0000 0A496E20 		.ascii	"\012In Increment1Minute Dispatch.....\012\000"
 517      496E6372 
 517      656D656E 
 517      74314D69 
 517      6E757465 
 518              	.LC1:
 519 0024 0A496E20 		.ascii	"\012In KL hours Dispatch.....\012\000"
 519      4B4C2068 
 519      6F757273 
 519      20446973 
 519      70617463 
 520              	.LC2:
 521 0040 0A496E20 		.ascii	"\012In 250MS_Hours Dispatch.....\012\000"
 521      3235304D 
 521      535F486F 
 521      75727320 
 521      44697370 
 522 005f 00       		.space	1
 523              	.LC3:
 524 0060 0A496E20 		.ascii	"\012In KRLP_Hours Dispatch.....\012\000"
 524      4B524C50 
 524      5F486F75 
 524      72732044 
 524      69737061 
 525 007e 0000     		.space	2
 526              	.LC4:
 527 0080 0A496E20 		.ascii	"\012In KR_Hours Dispatch.....\012\000"
 527      4B525F48 
 527      6F757273 
 527      20446973 
 527      70617463 
 528              	.LC5:
 529 009c 0A496E20 		.ascii	"\012In KL_HoursMin Dispatch.....\012\000"
 529      4B4C5F48 
 529      6F757273 
 529      4D696E20 
 529      44697370 
 530 00bb 00       		.space	1
 531              	.LC6:
 532 00bc 0A496E20 		.ascii	"\012In 250MS_Min Dispatch.....\012\000"
ARM GAS  C:\Users\giris\AppData\Local\Temp\ccpQCPRb.s 			page 15


 532      3235304D 
 532      535F4D69 
 532      6E204469 
 532      73706174 
 533 00d9 000000   		.space	3
 534              	.LC7:
 535 00dc 0A496E20 		.ascii	"\012In KRLP_Min Dispatch.....\012\000"
 535      4B524C50 
 535      5F4D696E 
 535      20446973 
 535      70617463 
 536              	.LC8:
 537 00f8 0A496E20 		.ascii	"\012In KR_Min Dispatch.....\012\000"
 537      4B525F4D 
 537      696E2044 
 537      69737061 
 537      7463682E 
 538 0112 0000     		.space	2
 539              	.LC9:
 540 0114 0A496E20 		.ascii	"\012In KL_Min Dispatch.....\012\000"
 540      4B4C5F4D 
 540      696E2044 
 540      69737061 
 540      7463682E 
 541 012e 0000     		.space	2
 542              	.LC10:
 543 0130 696E2070 		.ascii	"in process event function...\012\000"
 543      726F6365 
 543      73732065 
 543      76656E74 
 543      2066756E 
 544 014e 0000     		.space	2
 545              	.LC11:
 546 0150 0A00     		.ascii	"\012\000"
 547              		.text
 548              	.Letext0:
 549              		.file 2 ".\\source\\bsw/global.h"
 550              		.file 3 "c:\\program files (x86)\\cypress\\psoc creator\\4.4\\psoc creator\\import\\gnu\\arm\\5.4.
 551              		.file 4 "c:\\program files (x86)\\cypress\\psoc creator\\4.4\\psoc creator\\import\\gnu\\arm\\5.4.
 552              		.file 5 "Generated_Source\\PSoC5/ErikaOS_common_ee_types.inc"
 553              		.file 6 "Generated_Source\\PSoC5/ErikaOS_cortex_mx_ee_cpu.inc"
 554              		.file 7 ".\\source\\rte/sc_input_type.h"
 555              		.file 8 "source\\asw\\statemachine_cfg.h"
 556              		.file 9 "source\\asw\\statemachine.h"
 557              		.file 10 "Generated_Source\\PSoC5/ErikaOS_ee_oo_intfunc.inc"
 558              		.file 11 "Generated_Source\\PSoC5/ErikaOS_cortex_mx_ee_context.inc"
 559              		.file 12 "Generated_Source\\PSoC5/ErikaOS_common_ee_primitives.inc"
 560              		.file 13 "Generated_Source\\PSoC5/core_cm3.h"
 561              		.file 14 "Generated_Source\\PSoC5/UART_LOG.h"
 562              		.file 15 "c:\\program files (x86)\\cypress\\psoc creator\\4.4\\psoc creator\\import\\gnu\\arm\\5.4